Game.dll:
89E9AC - ?$TSS0@?1??HandleEvent@ControllerMegalesiosStateLaunchBursts@GAME@@UEAAXAEBVName@3@@Z@4HA
89EA70 - ?$TSS0@?1??HandleEvent@ControllerOrmenosStateAttack@GAME@@MEAAXAEBVName@3@@Z@4HA
44B650 - ??$GetStringAsEnum@W4ActorMountType@GAME@@@EnumConverter@GAME@@SA?AW4ActorMountType@1@AEBV?$basic_string@DU?$char_traits@D@std@@V?$allocator@D@2@@std@@@Z
6BD10 - ??$GetStringAsEnum@W4CharacterPathGenerationStyle@GAME@@@EnumConverter@GAME@@SA?AW4CharacterPathGenerationStyle@1@AEBV?$basic_string@DU?$char_traits@D@std@@V?$allocator@D@2@@std@@@Z
3145B0 - ??$GetStringAsEnum@W4PlayerCharacterClassType@GAME@@@EnumConverter@GAME@@SA?AW4PlayerCharacterClassType@1@AEBV?$basic_string@DU?$char_traits@D@std@@V?$allocator@D@2@@std@@@Z
3A920 - ??0?$ControllerAIStateT@VControllerAI@GAME@@VCharacter@2@@GAME@@QEAA@AEBV01@@Z
63380 - ??0?$ControllerAIStateT@VControllerAI@GAME@@VCharacter@2@@GAME@@QEAA@PEAVControllerAI@1@@Z
DE700 - ??0?$ControllerAIStateT@VControllerCerberus@GAME@@VCerberus@2@@GAME@@QEAA@AEBV01@@Z
DEEF0 - ??0?$ControllerAIStateT@VControllerCerberus@GAME@@VCerberus@2@@GAME@@QEAA@PEAVControllerCerberus@1@@Z
E4B80 - ??0?$ControllerAIStateT@VControllerMegalesios@GAME@@VMegalesios@2@@GAME@@QEAA@AEBV01@@Z
E6680 - ??0?$ControllerAIStateT@VControllerMegalesios@GAME@@VMegalesios@2@@GAME@@QEAA@PEAVControllerMegalesios@1@@Z
E4F00 - ??0?$ControllerAIStateT@VControllerMegalesios@GAME@@VMonster@2@@GAME@@QEAA@AEBV01@@Z
E82F0 - ??0?$ControllerAIStateT@VControllerMegalesios@GAME@@VMonster@2@@GAME@@QEAA@PEAVControllerMegalesios@1@@Z
AE0F0 - ??0?$ControllerAIStateT@VControllerMonster@GAME@@VMonster@2@@GAME@@QEAA@AEBV01@@Z
C4AE0 - ??0?$ControllerAIStateT@VControllerMonster@GAME@@VMonster@2@@GAME@@QEAA@PEAVControllerMonster@1@@Z
AEEF0 - ??0?$ControllerAIStateT@VControllerMonsterHidden@GAME@@VMonster@2@@GAME@@QEAA@AEBV01@@Z
C6730 - ??0?$ControllerAIStateT@VControllerMonsterHidden@GAME@@VMonster@2@@GAME@@QEAA@PEAVControllerMonsterHidden@1@@Z
103710 - ??0?$ControllerAIStateT@VControllerMonsterSynergy@GAME@@VMonster@2@@GAME@@QEAA@AEBV01@@Z
105570 - ??0?$ControllerAIStateT@VControllerMonsterSynergy@GAME@@VMonster@2@@GAME@@QEAA@PEAVControllerMonsterSynergy@1@@Z
1080C0 - ??0?$ControllerAIStateT@VControllerNpc2@GAME@@VNpc@2@@GAME@@QEAA@AEBV01@@Z
109E60 - ??0?$ControllerAIStateT@VControllerNpc2@GAME@@VNpc@2@@GAME@@QEAA@PEAVControllerNpc2@1@@Z
108470 - ??0?$ControllerAIStateT@VControllerNpcHerdAnimal@GAME@@VCharacter@2@@GAME@@QEAA@AEBV01@@Z
10B6A0 - ??0?$ControllerAIStateT@VControllerNpcHerdAnimal@GAME@@VCharacter@2@@GAME@@QEAA@PEAVControllerNpcHerdAnimal@1@@Z
1084E0 - ??0?$ControllerAIStateT@VControllerNpcHerdAnimal@GAME@@VNpc@2@@GAME@@QEAA@AEBV01@@Z
10C250 - ??0?$ControllerAIStateT@VControllerNpcHerdAnimal@GAME@@VNpc@2@@GAME@@QEAA@PEAVControllerNpcHerdAnimal@1@@Z
108540 - ??0?$ControllerAIStateT@VControllerNpcHerder@GAME@@VCharacter@2@@GAME@@QEAA@AEBV01@@Z
10CE00 - ??0?$ControllerAIStateT@VControllerNpcHerder@GAME@@VCharacter@2@@GAME@@QEAA@PEAVControllerNpcHerder@1@@Z
111A00 - ??0?$ControllerAIStateT@VControllerPlayer@GAME@@VPlayer@2@@GAME@@QEAA@AEBV01@@Z
114A10 - ??0?$ControllerAIStateT@VControllerPlayer@GAME@@VPlayer@2@@GAME@@QEAA@PEAVControllerPlayer@1@@Z
E4740 - ??0?$ControllerAIStateT@VControllerSpirit@GAME@@VMonster@2@@GAME@@QEAA@AEBV01@@Z
E56A0 - ??0?$ControllerAIStateT@VControllerSpirit@GAME@@VMonster@2@@GAME@@QEAA@PEAVControllerSpirit@1@@Z
11F310 - ??0?$ControllerAIStateT@VControllerSpiritHost@GAME@@VSpiritHost@2@@GAME@@QEAA@AEBV01@@Z
1204B0 - ??0?$ControllerAIStateT@VControllerSpiritHost@GAME@@VSpiritHost@2@@GAME@@QEAA@PEAVControllerSpiritHost@1@@Z
123B30 - ??0?$ControllerAIStateT@VControllerStationaryMonster@GAME@@VMonster@2@@GAME@@QEAA@AEBV01@@Z
124960 - ??0?$ControllerAIStateT@VControllerStationaryMonster@GAME@@VMonster@2@@GAME@@QEAA@PEAVControllerStationaryMonster@1@@Z
126500 - ??0?$ControllerAIStateT@VControllerTerracotta@GAME@@VMonster@2@@GAME@@QEAA@AEBV01@@Z
127010 - ??0?$ControllerAIStateT@VControllerTerracotta@GAME@@VMonster@2@@GAME@@QEAA@PEAVControllerTerracotta@1@@Z
128330 - ??0?$ControllerAIStateT@VControllerTyphonChained@GAME@@VMonster@2@@GAME@@QEAA@AEBV01@@Z
129C00 - ??0?$ControllerAIStateT@VControllerTyphonChained@GAME@@VMonster@2@@GAME@@QEAA@PEAVControllerTyphonChained@1@@Z
DE730 - ??0?$ControllerMonsterState@VControllerCerberus@GAME@@VCerberus@2@@GAME@@QEAA@AEBV01@@Z
E11F0 - ??0?$ControllerMonsterState@VControllerCerberus@GAME@@VCerberus@2@@GAME@@QEAA@PEAVControllerCerberus@1@@Z
E4BB0 - ??0?$ControllerMonsterState@VControllerMegalesios@GAME@@VMegalesios@2@@GAME@@QEAA@AEBV01@@Z
E6250 - ??0?$ControllerMonsterState@VControllerMegalesios@GAME@@VMegalesios@2@@GAME@@QEAA@PEAVControllerMegalesios@1@@Z
E4F30 - ??0?$ControllerMonsterState@VControllerMegalesios@GAME@@VMonster@2@@GAME@@QEAA@AEBV01@@Z
E7EC0 - ??0?$ControllerMonsterState@VControllerMegalesios@GAME@@VMonster@2@@GAME@@QEAA@PEAVControllerMegalesios@1@@Z
AE120 - ??0?$ControllerMonsterState@VControllerMonster@GAME@@VMonster@2@@GAME@@QEAA@AEBV01@@Z
E4240 - ??0?$ControllerMonsterState@VControllerMonster@GAME@@VMonster@2@@GAME@@QEAA@PEAVControllerMonster@1@@Z
AEF20 - ??0?$ControllerMonsterState@VControllerMonsterHidden@GAME@@VMonster@2@@GAME@@QEAA@AEBV01@@Z
F3BE0 - ??0?$ControllerMonsterState@VControllerMonsterHidden@GAME@@VMonster@2@@GAME@@QEAA@PEAVControllerMonsterHidden@1@@Z
103740 - ??0?$ControllerMonsterState@VControllerMonsterSynergy@GAME@@VMonster@2@@GAME@@QEAA@AEBV01@@Z
108040 - ??0?$ControllerMonsterState@VControllerMonsterSynergy@GAME@@VMonster@2@@GAME@@QEAA@PEAVControllerMonsterSynergy@1@@Z
E4770 - ??0?$ControllerMonsterState@VControllerSpirit@GAME@@VMonster@2@@GAME@@QEAA@AEBV01@@Z
122360 - ??0?$ControllerMonsterState@VControllerSpirit@GAME@@VMonster@2@@GAME@@QEAA@PEAVControllerSpirit@1@@Z
11F340 - ??0?$ControllerMonsterState@VControllerSpiritHost@GAME@@VSpiritHost@2@@GAME@@QEAA@AEBV01@@Z
11F290 - ??0?$ControllerMonsterState@VControllerSpiritHost@GAME@@VSpiritHost@2@@GAME@@QEAA@PEAVControllerSpiritHost@1@@Z
123B60 - ??0?$ControllerMonsterState@VControllerStationaryMonster@GAME@@VMonster@2@@GAME@@QEAA@AEBV01@@Z
124530 - ??0?$ControllerMonsterState@VControllerStationaryMonster@GAME@@VMonster@2@@GAME@@QEAA@PEAVControllerStationaryMonster@1@@Z
126530 - ??0?$ControllerMonsterState@VControllerTerracotta@GAME@@VMonster@2@@GAME@@QEAA@AEBV01@@Z
126BE0 - ??0?$ControllerMonsterState@VControllerTerracotta@GAME@@VMonster@2@@GAME@@QEAA@PEAVControllerTerracotta@1@@Z
128360 - ??0?$ControllerMonsterState@VControllerTyphonChained@GAME@@VMonster@2@@GAME@@QEAA@AEBV01@@Z
1297D0 - ??0?$ControllerMonsterState@VControllerTyphonChained@GAME@@VMonster@2@@GAME@@QEAA@PEAVControllerTyphonChained@1@@Z
1F8C70 - ??0?$FilterFunction@VCharacterAction@GAME@@@GAME@@QEAA@AEBV01@@Z
1F8C70 - ??0?$FilterFunction@VCharacterAction@GAME@@@GAME@@QEAA@XZ
1F8C70 - ??0?$FilterFunction@VEntity@GAME@@@GAME@@QEAA@AEBV01@@Z
1F8C70 - ??0?$FilterFunction@VEntity@GAME@@@GAME@@QEAA@XZ
14820 - ??0?$Singleton@VQuest2Repository@GAME@@@GAME@@IEAA@XZ
453950 - ??0Achievement@GAME@@QEAA@AEBV01@@Z
14170 - ??0Achievement@GAME@@QEAA@XZ
451F80 - ??0AckEntityPacket@GAME@@QEAA@AEBV01@@Z
2D58D0 - ??0AckEntityPacket@GAME@@QEAA@XZ
3E910 - ??0ActivateSkillConfigCmd@GAME@@QEAA@AEBV01@@Z
A8120 - ??0ActivateSkillConfigCmd@GAME@@QEAA@IIIAEBVWorldVec3@1@AEBV?$basic_string@DU?$char_traits@D@std@@V?$allocator@D@2@@std@@@Z
44E450 - ??0ActivateSkillConfigCmdPacket@GAME@@QEAA@AEBV01@@Z
2C2D20 - ??0ActivateSkillConfigCmdPacket@GAME@@QEAA@XZ
3CD80 - ??0AddInventoryItemConfigCmd@GAME@@QEAA@AEBV01@@Z
A51D0 - ??0AddInventoryItemConfigCmd@GAME@@QEAA@II@Z
44D1D0 - ??0AddInventoryItemConfigCmdPacket@GAME@@QEAA@AEBV01@@Z
2BBC40 - ??0AddInventoryItemConfigCmdPacket@GAME@@QEAA@XZ
1EA2D0 - ??0AddPetBonusFxPakPacket@GAME@@QEAA@AEBV01@@Z
2D2B30 - ??0AddPetBonusFxPakPacket@GAME@@QEAA@XZ
3EFA0 - ??0AdjustFactionConfigCmd@GAME@@QEAA@AEBV01@@Z
A8B40 - ??0AdjustFactionConfigCmd@GAME@@QEAA@IW4FactionType@1@H@Z
44E8B0 - ??0AdjustFactionConfigCmdPacket@GAME@@QEAA@AEBV01@@Z
2C3B30 - ??0AdjustFactionConfigCmdPacket@GAME@@QEAA@XZ
1F3730 - ??0AllPlayersBasicInfoPacket@GAME@@QEAA@AEBV01@@Z
2DB7F0 - ??0AllPlayersBasicInfoPacket@GAME@@QEAA@XZ
1F43F0 - ??0AllPlayersHeartbeatPacket@GAME@@QEAA@AEBV01@@Z
2DA450 - ??0AllPlayersHeartbeatPacket@GAME@@QEAA@XZ
19B20 - ??0AmbientCharacter@GAME@@QEAA@XZ
157E0 - ??0AmbientShadow@GAME@@QEAA@AEBV01@@Z
1BBA0 - ??0AmbientShadow@GAME@@QEAA@XZ
1C610 - ??0AngerManager@GAME@@QEAA@AEBV01@@Z
1C6F0 - ??0AngerManager@GAME@@QEAA@XZ
4483F0 - ??0AnimationSet@GAME@@QEAA@AEBV01@@Z
222F0 - ??0AnimationSet@GAME@@QEAA@XZ
23E00 - ??0Apparatus@GAME@@QEAA@XZ
23FE0 - ??0AreaOfInterest@GAME@@QEAA@XZ
24950 - ??0AreaTriggerHookPack@GAME@@QEAA@AEBV01@@Z
27450 - ??0AreaTriggerHookPack@GAME@@QEAA@XZ
27560 - ??0Armor@GAME@@QEAA@XZ
2AD70 - ??0ArmorJewelry@GAME@@QEAA@XZ
2AF90 - ??0ArmorJewelry_Amulet@GAME@@QEAA@XZ
2AF00 - ??0ArmorJewelry_Bracelet@GAME@@QEAA@XZ
2B020 - ??0ArmorJewelry_Medal@GAME@@QEAA@XZ
2AE70 - ??0ArmorJewelry_Ring@GAME@@QEAA@XZ
2B370 - ??0ArmorMisc@GAME@@QEAA@XZ
2BC70 - ??0ArmorMisc_Clothing@GAME@@QEAA@XZ
2B420 - ??0ArmorMisc_Vestment@GAME@@QEAA@XZ
2C600 - ??0ArmorProtective@GAME@@QEAA@XZ
2C740 - ??0ArmorProtective_Chest@GAME@@QEAA@XZ
2C8A0 - ??0ArmorProtective_Feet@GAME@@QEAA@XZ
2C940 - ??0ArmorProtective_Hands@GAME@@QEAA@XZ
2C6B0 - ??0ArmorProtective_Head@GAME@@QEAA@XZ
2C810 - ??0ArmorProtective_Legs@GAME@@QEAA@XZ
2CAA0 - ??0ArmorProtective_Shoulders@GAME@@QEAA@XZ
2CA00 - ??0ArmorProtective_Waist@GAME@@QEAA@XZ
3B2E0 - ??0AttachItemConfigCmd@GAME@@QEAA@AEBV01@@Z
A2910 - ??0AttachItemConfigCmd@GAME@@QEAA@IIW4EquipLocations@1@@Z
44BCC0 - ??0AttachItemConfigCmdPacket@GAME@@QEAA@AEBV01@@Z
2B5260 - ??0AttachItemConfigCmdPacket@GAME@@QEAA@XZ
3F080 - ??0AttachPetAutocastConfigCmd@GAME@@QEAA@AEBV01@@Z
A8D90 - ??0AttachPetAutocastConfigCmd@GAME@@QEAA@IIIIAEBV?$basic_string@DU?$char_traits@D@std@@V?$allocator@D@2@@std@@@Z
44E910 - ??0AttachPetAutocastConfigCmdPacket@GAME@@QEAA@AEBV01@@Z
2C3CE0 - ??0AttachPetAutocastConfigCmdPacket@GAME@@QEAA@XZ
44F050 - ??0AttackAction@GAME@@QEAA@AEBV01@@Z
70E20 - ??0AttackAction@GAME@@QEAA@IIAEBVWorldVec3@1@IIAEBUTargetLeadingData@1@@Z
4528E0 - ??0AttackPacket@GAME@@QEAA@AEBV01@@Z
2D7920 - ??0AttackPacket@GAME@@QEAA@XZ
328A0 - ??0AttackRandoms@GAME@@QEAA@AEBV01@@Z
329D0 - ??0AttackRandoms@GAME@@QEAA@HH@Z
324D0 - ??0AttributePak@GAME@@QEAA@AEBV01@@Z
32CD0 - ??0AttributePak@GAME@@QEAA@XZ
34650 - ??0AttributeRange@GAME@@QEAA@$$QEAV01@@Z
34650 - ??0AttributeRange@GAME@@QEAA@AEBV01@@Z
34310 - ??0AttributeRange@GAME@@QEAA@XZ
35EA0 - ??0AuraContainer@GAME@@QEAA@AEBV01@@Z
350D0 - ??0AuraContainer@GAME@@QEAA@AEBV?$basic_string@DU?$char_traits@D@std@@V?$allocator@D@2@@std@@I_NH@Z
44A1E0 - ??0AuraManager@GAME@@QEAA@AEBV01@@Z
18D90 - ??0AuraManager@GAME@@QEAA@XZ
DD4A0 - ??0BandariTeleportPoint@GAME@@QEAA@XZ
362B0 - ??0BindingInteractable@GAME@@QEAA@XZ
1F3320 - ??0BonusToClientPacket@GAME@@QEAA@AEBV01@@Z
2C0130 - ??0BonusToClientPacket@GAME@@QEAA@XZ
1F3210 - ??0BonusToServerPacket@GAME@@QEAA@AEBV01@@Z
2C15F0 - ??0BonusToServerPacket@GAME@@QEAA@XZ
3E11D0 - ??0CerberusGeyserMarker@GAME@@QEAA@XZ
2D0E0 - ??0ChallengeArea@GAME@@QEAA@$$QEAV01@@Z
2CF00 - ??0ChallengeArea@GAME@@QEAA@AEBV01@@Z
37A10 - ??0ChallengeArea@GAME@@QEAA@XZ
94890 - ??0CharAttribute@GAME@@QEAA@AEBV01@@Z
90520 - ??0CharAttribute@GAME@@QEAA@XZ
44AB30 - ??0CharAttributeAccumulator@GAME@@QEAA@AEBV01@@Z
94900 - ??0CharAttributeAccumulator@GAME@@QEAA@XZ
928C0 - ??0CharAttributeAttackSpeed@GAME@@QEAA@$$QEAV01@@Z
928C0 - ??0CharAttributeAttackSpeed@GAME@@QEAA@AEBV01@@Z
94740 - ??0CharAttributeAttackSpeed@GAME@@QEAA@XZ
92A10 - ??0CharAttributeAttackSpeedMod@GAME@@QEAA@$$QEAV01@@Z
92A10 - ??0CharAttributeAttackSpeedMod@GAME@@QEAA@AEBV01@@Z
94680 - ??0CharAttributeAttackSpeedMod@GAME@@QEAA@XZ
92980 - ??0CharAttributeMod@GAME@@QEAA@$$QEAV01@@Z
92980 - ??0CharAttributeMod@GAME@@QEAA@AEBV01@@Z
946E0 - ??0CharAttributeMod@GAME@@QEAA@XZ
92A10 - ??0CharAttributeMod_AttackSpeed@GAME@@QEAA@$$QEAV01@@Z
92A10 - ??0CharAttributeMod_AttackSpeed@GAME@@QEAA@AEBV01@@Z
945B0 - ??0CharAttributeMod_AttackSpeed@GAME@@QEAA@XZ
92920 - ??0CharAttributeMod_Constitution@GAME@@QEAA@$$QEAV01@@Z
92920 - ??0CharAttributeMod_Constitution@GAME@@QEAA@AEBV01@@Z
941F0 - ??0CharAttributeMod_Constitution@GAME@@QEAA@XZ
92920 - ??0CharAttributeMod_Dexterity@GAME@@QEAA@$$QEAV01@@Z
92920 - ??0CharAttributeMod_Dexterity@GAME@@QEAA@AEBV01@@Z
94010 - ??0CharAttributeMod_Dexterity@GAME@@QEAA@XZ
92980 - ??0CharAttributeMod_HealIncrease@GAME@@QEAA@$$QEAV01@@Z
92980 - ??0CharAttributeMod_HealIncrease@GAME@@QEAA@AEBV01@@Z
94240 - ??0CharAttributeMod_HealIncrease@GAME@@QEAA@XZ
92920 - ??0CharAttributeMod_Intelligence@GAME@@QEAA@$$QEAV01@@Z
92920 - ??0CharAttributeMod_Intelligence@GAME@@QEAA@AEBV01@@Z
94060 - ??0CharAttributeMod_Intelligence@GAME@@QEAA@XZ
92950 - ??0CharAttributeMod_Life@GAME@@QEAA@$$QEAV01@@Z
92950 - ??0CharAttributeMod_Life@GAME@@QEAA@AEBV01@@Z
940B0 - ??0CharAttributeMod_Life@GAME@@QEAA@XZ
92920 - ??0CharAttributeMod_LifeRegen@GAME@@QEAA@$$QEAV01@@Z
92920 - ??0CharAttributeMod_LifeRegen@GAME@@QEAA@AEBV01@@Z
94150 - ??0CharAttributeMod_LifeRegen@GAME@@QEAA@XZ
92950 - ??0CharAttributeMod_Mana@GAME@@QEAA@$$QEAV01@@Z
92950 - ??0CharAttributeMod_Mana@GAME@@QEAA@AEBV01@@Z
94100 - ??0CharAttributeMod_Mana@GAME@@QEAA@XZ
92980 - ??0CharAttributeMod_ManaLimitReserve@GAME@@QEAA@$$QEAV01@@Z
92980 - ??0CharAttributeMod_ManaLimitReserve@GAME@@QEAA@AEBV01@@Z
94290 - ??0CharAttributeMod_ManaLimitReserve@GAME@@QEAA@XZ
92980 - ??0CharAttributeMod_ManaLimitReserveReduction@GAME@@QEAA@$$QEAV01@@Z
92980 - ??0CharAttributeMod_ManaLimitReserveReduction@GAME@@QEAA@AEBV01@@Z
942E0 - ??0CharAttributeMod_ManaLimitReserveReduction@GAME@@QEAA@XZ
92920 - ??0CharAttributeMod_ManaRegen@GAME@@QEAA@$$QEAV01@@Z
92920 - ??0CharAttributeMod_ManaRegen@GAME@@QEAA@AEBV01@@Z
941A0 - ??0CharAttributeMod_ManaRegen@GAME@@QEAA@XZ
929E0 - ??0CharAttributeMod_RunSpeed@GAME@@QEAA@$$QEAV01@@Z
929E0 - ??0CharAttributeMod_RunSpeed@GAME@@QEAA@AEBV01@@Z
94560 - ??0CharAttributeMod_RunSpeed@GAME@@QEAA@XZ
92A10 - ??0CharAttributeMod_SpellCastSpeed@GAME@@QEAA@$$QEAV01@@Z
92A10 - ??0CharAttributeMod_SpellCastSpeed@GAME@@QEAA@AEBV01@@Z
94600 - ??0CharAttributeMod_SpellCastSpeed@GAME@@QEAA@XZ
92920 - ??0CharAttributeMod_Strength@GAME@@QEAA@$$QEAV01@@Z
92920 - ??0CharAttributeMod_Strength@GAME@@QEAA@AEBV01@@Z
93FC0 - ??0CharAttributeMod_Strength@GAME@@QEAA@XZ
929B0 - ??0CharAttributeMod_TotalSpeed@GAME@@QEAA@$$QEAV01@@Z
929B0 - ??0CharAttributeMod_TotalSpeed@GAME@@QEAA@AEBV01@@Z
94330 - ??0CharAttributeMod_TotalSpeed@GAME@@QEAA@XZ
92890 - ??0CharAttributeOtherSpeed@GAME@@QEAA@$$QEAV01@@Z
92890 - ??0CharAttributeOtherSpeed@GAME@@QEAA@AEBV01@@Z
947A0 - ??0CharAttributeOtherSpeed@GAME@@QEAA@XZ
929E0 - ??0CharAttributeOtherSpeedMod@GAME@@QEAA@$$QEAV01@@Z
929E0 - ??0CharAttributeOtherSpeedMod@GAME@@QEAA@AEBV01@@Z
94650 - ??0CharAttributeOtherSpeedMod@GAME@@QEAA@XZ
92920 - ??0CharAttributePriMod@GAME@@QEAA@$$QEAV01@@Z
92920 - ??0CharAttributePriMod@GAME@@QEAA@AEBV01@@Z
94710 - ??0CharAttributePriMod@GAME@@QEAA@XZ
92950 - ??0CharAttributeSecMod@GAME@@QEAA@$$QEAV01@@Z
92950 - ??0CharAttributeSecMod@GAME@@QEAA@AEBV01@@Z
946B0 - ??0CharAttributeSecMod@GAME@@QEAA@XZ
31E10 - ??0CharAttributeStore@GAME@@QEAA@AEBV01@@Z
94B90 - ??0CharAttributeStore@GAME@@QEAA@XZ
447080 - ??0CharAttributeStore_Bio@GAME@@QEAA@$$QEAV01@@Z
447080 - ??0CharAttributeStore_Bio@GAME@@QEAA@AEBV01@@Z
7A260 - ??0CharAttributeStore_Bio@GAME@@QEAA@XZ
4470D0 - ??0CharAttributeStore_Equipment@GAME@@QEAA@$$QEAV01@@Z
4470D0 - ??0CharAttributeStore_Equipment@GAME@@QEAA@AEBV01@@Z
27D030 - ??0CharAttributeStore_Equipment@GAME@@QEAA@XZ
447120 - ??0CharAttributeStore_EquipmentPenaltyReduction@GAME@@QEAA@$$QEAV01@@Z
447120 - ??0CharAttributeStore_EquipmentPenaltyReduction@GAME@@QEAA@AEBV01@@Z
27D010 - ??0CharAttributeStore_EquipmentPenaltyReduction@GAME@@QEAA@XZ
34CF0 - ??0CharAttributeStore_Max@GAME@@QEAA@$$QEAV01@@Z
34CF0 - ??0CharAttributeStore_Max@GAME@@QEAA@AEBV01@@Z
34F10 - ??0CharAttributeStore_Max@GAME@@QEAA@XZ
34D40 - ??0CharAttributeStore_Min@GAME@@QEAA@$$QEAV01@@Z
34D40 - ??0CharAttributeStore_Min@GAME@@QEAA@AEBV01@@Z
34F30 - ??0CharAttributeStore_Min@GAME@@QEAA@XZ
31D20 - ??0CharAttributeStore_Skill@GAME@@QEAA@$$QEAV01@@Z
31D20 - ??0CharAttributeStore_Skill@GAME@@QEAA@AEBV01@@Z
342F0 - ??0CharAttributeStore_Skill@GAME@@QEAA@XZ
447170 - ??0CharAttributeStore_SkillPenalty@GAME@@QEAA@$$QEAV01@@Z
447170 - ??0CharAttributeStore_SkillPenalty@GAME@@QEAA@AEBV01@@Z
429F50 - ??0CharAttributeStore_SkillPenalty@GAME@@QEAA@XZ
31E60 - ??0CharAttributeStore_SkillPenaltyReduction@GAME@@QEAA@$$QEAV01@@Z
31E60 - ??0CharAttributeStore_SkillPenaltyReduction@GAME@@QEAA@AEBV01@@Z
342D0 - ??0CharAttributeStore_SkillPenaltyReduction@GAME@@QEAA@XZ
92860 - ??0CharAttributeVal@GAME@@QEAA@$$QEAV01@@Z
92860 - ??0CharAttributeVal@GAME@@QEAA@AEBV01@@Z
94830 - ??0CharAttributeVal@GAME@@QEAA@XZ
927D0 - ??0CharAttributeValPri@GAME@@QEAA@$$QEAV01@@Z
927D0 - ??0CharAttributeValPri@GAME@@QEAA@AEBV01@@Z
94800 - ??0CharAttributeValPri@GAME@@QEAA@XZ
92800 - ??0CharAttributeValSec@GAME@@QEAA@$$QEAV01@@Z
92800 - ??0CharAttributeValSec@GAME@@QEAA@AEBV01@@Z
947D0 - ??0CharAttributeValSec@GAME@@QEAA@XZ
94860 - ??0CharAttributeValSpeed@GAME@@QEAA@$$QEAV01@@Z
94860 - ??0CharAttributeValSpeed@GAME@@QEAA@AEBV01@@Z
94770 - ??0CharAttributeValSpeed@GAME@@QEAA@XZ
92860 - ??0CharAttributeVal_ArmorDexterityReqReduction@GAME@@QEAA@$$QEAV01@@Z
92860 - ??0CharAttributeVal_ArmorDexterityReqReduction@GAME@@QEAA@AEBV01@@Z
93930 - ??0CharAttributeVal_ArmorDexterityReqReduction@GAME@@QEAA@XZ
92860 - ??0CharAttributeVal_ArmorIntelligenceReqReduction@GAME@@QEAA@$$QEAV01@@Z
92860 - ??0CharAttributeVal_ArmorIntelligenceReqReduction@GAME@@QEAA@AEBV01@@Z
93980 - ??0CharAttributeVal_ArmorIntelligenceReqReduction@GAME@@QEAA@XZ
92860 - ??0CharAttributeVal_ArmorStrengthReqReduction@GAME@@QEAA@$$QEAV01@@Z
92860 - ??0CharAttributeVal_ArmorStrengthReqReduction@GAME@@QEAA@AEBV01@@Z
938E0 - ??0CharAttributeVal_ArmorStrengthReqReduction@GAME@@QEAA@XZ
928C0 - ??0CharAttributeVal_AttackSpeed@GAME@@QEAA@$$QEAV01@@Z
928C0 - ??0CharAttributeVal_AttackSpeed@GAME@@QEAA@AEBV01@@Z
933E0 - ??0CharAttributeVal_AttackSpeed@GAME@@QEAA@XZ
92740 - ??0CharAttributeVal_BaseAttackSpeed@GAME@@QEAA@$$QEAV01@@Z
92740 - ??0CharAttributeVal_BaseAttackSpeed@GAME@@QEAA@AEBV01@@Z
92A40 - ??0CharAttributeVal_BaseAttackSpeed@GAME@@QEAA@XZ
927D0 - ??0CharAttributeVal_Constitution@GAME@@QEAA@$$QEAV01@@Z
927D0 - ??0CharAttributeVal_Constitution@GAME@@QEAA@AEBV01@@Z
932A0 - ??0CharAttributeVal_Constitution@GAME@@QEAA@XZ
92800 - ??0CharAttributeVal_DefensiveAbility@GAME@@QEAA@$$QEAV01@@Z
92800 - ??0CharAttributeVal_DefensiveAbility@GAME@@QEAA@AEBV01@@Z
934D0 - ??0CharAttributeVal_DefensiveAbility@GAME@@QEAA@XZ
92860 - ??0CharAttributeVal_DefensiveAbilityModifier@GAME@@QEAA@$$QEAV01@@Z
92860 - ??0CharAttributeVal_DefensiveAbilityModifier@GAME@@QEAA@AEBV01@@Z
93570 - ??0CharAttributeVal_DefensiveAbilityModifier@GAME@@QEAA@XZ
92860 - ??0CharAttributeVal_DefensiveBlockRecoveryReduction@GAME@@QEAA@$$QEAV01@@Z
92860 - ??0CharAttributeVal_DefensiveBlockRecoveryReduction@GAME@@QEAA@AEBV01@@Z
93D90 - ??0CharAttributeVal_DefensiveBlockRecoveryReduction@GAME@@QEAA@XZ
92860 - ??0CharAttributeVal_DeflectProjectile@GAME@@QEAA@$$QEAV01@@Z
92860 - ??0CharAttributeVal_DeflectProjectile@GAME@@QEAA@AEBV01@@Z
93E80 - ??0CharAttributeVal_DeflectProjectile@GAME@@QEAA@XZ
927D0 - ??0CharAttributeVal_Dexterity@GAME@@QEAA@$$QEAV01@@Z
927D0 - ??0CharAttributeVal_Dexterity@GAME@@QEAA@AEBV01@@Z
930C0 - ??0CharAttributeVal_Dexterity@GAME@@QEAA@XZ
92860 - ??0CharAttributeVal_DodgePercent@GAME@@QEAA@$$QEAV01@@Z
92860 - ??0CharAttributeVal_DodgePercent@GAME@@QEAA@AEBV01@@Z
93E30 - ??0CharAttributeVal_DodgePercent@GAME@@QEAA@XZ
92860 - ??0CharAttributeVal_EnergyAbsorptionPercent@GAME@@QEAA@$$QEAV01@@Z
92860 - ??0CharAttributeVal_EnergyAbsorptionPercent@GAME@@QEAA@AEBV01@@Z
93DE0 - ??0CharAttributeVal_EnergyAbsorptionPercent@GAME@@QEAA@XZ
92860 - ??0CharAttributeVal_GlobalReqReduction@GAME@@QEAA@$$QEAV01@@Z
92860 - ??0CharAttributeVal_GlobalReqReduction@GAME@@QEAA@AEBV01@@Z
935C0 - ??0CharAttributeVal_GlobalReqReduction@GAME@@QEAA@XZ
92860 - ??0CharAttributeVal_HuntingDexterityReqReduction@GAME@@QEAA@$$QEAV01@@Z
92860 - ??0CharAttributeVal_HuntingDexterityReqReduction@GAME@@QEAA@AEBV01@@Z
93C00 - ??0CharAttributeVal_HuntingDexterityReqReduction@GAME@@QEAA@XZ
92860 - ??0CharAttributeVal_HuntingIntelligenceReqReduction@GAME@@QEAA@$$QEAV01@@Z
92860 - ??0CharAttributeVal_HuntingIntelligenceReqReduction@GAME@@QEAA@AEBV01@@Z
93C50 - ??0CharAttributeVal_HuntingIntelligenceReqReduction@GAME@@QEAA@XZ
92860 - ??0CharAttributeVal_HuntingStrengthReqReduction@GAME@@QEAA@$$QEAV01@@Z
92860 - ??0CharAttributeVal_HuntingStrengthReqReduction@GAME@@QEAA@AEBV01@@Z
93BB0 - ??0CharAttributeVal_HuntingStrengthReqReduction@GAME@@QEAA@XZ
92860 - ??0CharAttributeVal_IncreasedExperience@GAME@@QEAA@$$QEAV01@@Z
92860 - ??0CharAttributeVal_IncreasedExperience@GAME@@QEAA@AEBV01@@Z
93F20 - ??0CharAttributeVal_IncreasedExperience@GAME@@QEAA@XZ
927D0 - ??0CharAttributeVal_Intelligence@GAME@@QEAA@$$QEAV01@@Z
927D0 - ??0CharAttributeVal_Intelligence@GAME@@QEAA@AEBV01@@Z
93110 - ??0CharAttributeVal_Intelligence@GAME@@QEAA@XZ
92860 - ??0CharAttributeVal_JewelryDexterityReqReduction@GAME@@QEAA@$$QEAV01@@Z
92860 - ??0CharAttributeVal_JewelryDexterityReqReduction@GAME@@QEAA@AEBV01@@Z
93A20 - ??0CharAttributeVal_JewelryDexterityReqReduction@GAME@@QEAA@XZ
92860 - ??0CharAttributeVal_JewelryIntelligenceReqReduction@GAME@@QEAA@$$QEAV01@@Z
92860 - ??0CharAttributeVal_JewelryIntelligenceReqReduction@GAME@@QEAA@AEBV01@@Z
93A70 - ??0CharAttributeVal_JewelryIntelligenceReqReduction@GAME@@QEAA@XZ
92860 - ??0CharAttributeVal_JewelryStrengthReqReduction@GAME@@QEAA@$$QEAV01@@Z
92860 - ??0CharAttributeVal_JewelryStrengthReqReduction@GAME@@QEAA@AEBV01@@Z
939D0 - ??0CharAttributeVal_JewelryStrengthReqReduction@GAME@@QEAA@XZ
928F0 - ??0CharAttributeVal_LevelReqReduction@GAME@@QEAA@$$QEAV01@@Z
928F0 - ??0CharAttributeVal_LevelReqReduction@GAME@@QEAA@AEBV01@@Z
93ED0 - ??0CharAttributeVal_LevelReqReduction@GAME@@QEAA@XZ
92800 - ??0CharAttributeVal_Life@GAME@@QEAA@$$QEAV01@@Z
92800 - ??0CharAttributeVal_Life@GAME@@QEAA@AEBV01@@Z
93160 - ??0CharAttributeVal_Life@GAME@@QEAA@XZ
927D0 - ??0CharAttributeVal_LifeRegen@GAME@@QEAA@$$QEAV01@@Z
927D0 - ??0CharAttributeVal_LifeRegen@GAME@@QEAA@AEBV01@@Z
93200 - ??0CharAttributeVal_LifeRegen@GAME@@QEAA@XZ
92860 - ??0CharAttributeVal_LightRadius@GAME@@QEAA@$$QEAV01@@Z
92860 - ??0CharAttributeVal_LightRadius@GAME@@QEAA@AEBV01@@Z
93F70 - ??0CharAttributeVal_LightRadius@GAME@@QEAA@XZ
92800 - ??0CharAttributeVal_Mana@GAME@@QEAA@$$QEAV01@@Z
92800 - ??0CharAttributeVal_Mana@GAME@@QEAA@AEBV01@@Z
931B0 - ??0CharAttributeVal_Mana@GAME@@QEAA@XZ
92830 - ??0CharAttributeVal_ManaLimitReserve@GAME@@QEAA@$$QEAV01@@Z
92830 - ??0CharAttributeVal_ManaLimitReserve@GAME@@QEAA@AEBV01@@Z
932F0 - ??0CharAttributeVal_ManaLimitReserve@GAME@@QEAA@XZ
92860 - ??0CharAttributeVal_ManaLimitReserveReduction@GAME@@QEAA@$$QEAV01@@Z
92860 - ??0CharAttributeVal_ManaLimitReserveReduction@GAME@@QEAA@AEBV01@@Z
93340 - ??0CharAttributeVal_ManaLimitReserveReduction@GAME@@QEAA@XZ
927D0 - ??0CharAttributeVal_ManaRegen@GAME@@QEAA@$$QEAV01@@Z
927D0 - ??0CharAttributeVal_ManaRegen@GAME@@QEAA@AEBV01@@Z
93250 - ??0CharAttributeVal_ManaRegen@GAME@@QEAA@XZ
92860 - ??0CharAttributeVal_MeleeDexterityReqReduction@GAME@@QEAA@$$QEAV01@@Z
92860 - ??0CharAttributeVal_MeleeDexterityReqReduction@GAME@@QEAA@AEBV01@@Z
93840 - ??0CharAttributeVal_MeleeDexterityReqReduction@GAME@@QEAA@XZ
92860 - ??0CharAttributeVal_MeleeIntelligenceReqReduction@GAME@@QEAA@$$QEAV01@@Z
92860 - ??0CharAttributeVal_MeleeIntelligenceReqReduction@GAME@@QEAA@AEBV01@@Z
93890 - ??0CharAttributeVal_MeleeIntelligenceReqReduction@GAME@@QEAA@XZ
92860 - ??0CharAttributeVal_MeleeStrengthReqReduction@GAME@@QEAA@$$QEAV01@@Z
92860 - ??0CharAttributeVal_MeleeStrengthReqReduction@GAME@@QEAA@AEBV01@@Z
937F0 - ??0CharAttributeVal_MeleeStrengthReqReduction@GAME@@QEAA@XZ
92800 - ??0CharAttributeVal_OffensiveAbility@GAME@@QEAA@$$QEAV01@@Z
92800 - ??0CharAttributeVal_OffensiveAbility@GAME@@QEAA@AEBV01@@Z
93480 - ??0CharAttributeVal_OffensiveAbility@GAME@@QEAA@XZ
92860 - ??0CharAttributeVal_OffensiveAbilityModifier@GAME@@QEAA@$$QEAV01@@Z
92860 - ??0CharAttributeVal_OffensiveAbilityModifier@GAME@@QEAA@AEBV01@@Z
93520 - ??0CharAttributeVal_OffensiveAbilityModifier@GAME@@QEAA@XZ
92890 - ??0CharAttributeVal_RunSpeed@GAME@@QEAA@$$QEAV01@@Z
92890 - ??0CharAttributeVal_RunSpeed@GAME@@QEAA@AEBV01@@Z
93390 - ??0CharAttributeVal_RunSpeed@GAME@@QEAA@XZ
92860 - ??0CharAttributeVal_ShieldDexterityReqReduction@GAME@@QEAA@$$QEAV01@@Z
92860 - ??0CharAttributeVal_ShieldDexterityReqReduction@GAME@@QEAA@AEBV01@@Z
93B10 - ??0CharAttributeVal_ShieldDexterityReqReduction@GAME@@QEAA@XZ
92860 - ??0CharAttributeVal_ShieldIntelligenceReqReduction@GAME@@QEAA@$$QEAV01@@Z
92860 - ??0CharAttributeVal_ShieldIntelligenceReqReduction@GAME@@QEAA@AEBV01@@Z
93B60 - ??0CharAttributeVal_ShieldIntelligenceReqReduction@GAME@@QEAA@XZ
92860 - ??0CharAttributeVal_ShieldStrengthReqReduction@GAME@@QEAA@$$QEAV01@@Z
92860 - ??0CharAttributeVal_ShieldStrengthReqReduction@GAME@@QEAA@AEBV01@@Z
93AC0 - ??0CharAttributeVal_ShieldStrengthReqReduction@GAME@@QEAA@XZ
928C0 - ??0CharAttributeVal_SpellCastSpeed@GAME@@QEAA@$$QEAV01@@Z
928C0 - ??0CharAttributeVal_SpellCastSpeed@GAME@@QEAA@AEBV01@@Z
93430 - ??0CharAttributeVal_SpellCastSpeed@GAME@@QEAA@XZ
92860 - ??0CharAttributeVal_StaffDexterityReqReduction@GAME@@QEAA@$$QEAV01@@Z
92860 - ??0CharAttributeVal_StaffDexterityReqReduction@GAME@@QEAA@AEBV01@@Z
93CF0 - ??0CharAttributeVal_StaffDexterityReqReduction@GAME@@QEAA@XZ
92860 - ??0CharAttributeVal_StaffIntelligenceReqReduction@GAME@@QEAA@$$QEAV01@@Z
92860 - ??0CharAttributeVal_StaffIntelligenceReqReduction@GAME@@QEAA@AEBV01@@Z
93D40 - ??0CharAttributeVal_StaffIntelligenceReqReduction@GAME@@QEAA@XZ
92860 - ??0CharAttributeVal_StaffStrengthReqReduction@GAME@@QEAA@$$QEAV01@@Z
92860 - ??0CharAttributeVal_StaffStrengthReqReduction@GAME@@QEAA@AEBV01@@Z
93CA0 - ??0CharAttributeVal_StaffStrengthReqReduction@GAME@@QEAA@XZ
927D0 - ??0CharAttributeVal_Strength@GAME@@QEAA@$$QEAV01@@Z
927D0 - ??0CharAttributeVal_Strength@GAME@@QEAA@AEBV01@@Z
93070 - ??0CharAttributeVal_Strength@GAME@@QEAA@XZ
92860 - ??0CharAttributeVal_Weapon2HDexterityReqReduction@GAME@@QEAA@$$QEAV01@@Z
92860 - ??0CharAttributeVal_Weapon2HDexterityReqReduction@GAME@@QEAA@AEBV01@@Z
93750 - ??0CharAttributeVal_Weapon2HDexterityReqReduction@GAME@@QEAA@XZ
92860 - ??0CharAttributeVal_Weapon2HIntelligenceReqReduction@GAME@@QEAA@$$QEAV01@@Z
92860 - ??0CharAttributeVal_Weapon2HIntelligenceReqReduction@GAME@@QEAA@AEBV01@@Z
937A0 - ??0CharAttributeVal_Weapon2HIntelligenceReqReduction@GAME@@QEAA@XZ
92860 - ??0CharAttributeVal_Weapon2HStrengthReqReduction@GAME@@QEAA@$$QEAV01@@Z
92860 - ??0CharAttributeVal_Weapon2HStrengthReqReduction@GAME@@QEAA@AEBV01@@Z
93700 - ??0CharAttributeVal_Weapon2HStrengthReqReduction@GAME@@QEAA@XZ
92860 - ??0CharAttributeVal_WeaponDexterityReqReduction@GAME@@QEAA@$$QEAV01@@Z
92860 - ??0CharAttributeVal_WeaponDexterityReqReduction@GAME@@QEAA@AEBV01@@Z
93660 - ??0CharAttributeVal_WeaponDexterityReqReduction@GAME@@QEAA@XZ
92860 - ??0CharAttributeVal_WeaponIntelligenceReqReduction@GAME@@QEAA@$$QEAV01@@Z
92860 - ??0CharAttributeVal_WeaponIntelligenceReqReduction@GAME@@QEAA@AEBV01@@Z
936B0 - ??0CharAttributeVal_WeaponIntelligenceReqReduction@GAME@@QEAA@XZ
92860 - ??0CharAttributeVal_WeaponStrengthReqReduction@GAME@@QEAA@$$QEAV01@@Z
92860 - ??0CharAttributeVal_WeaponStrengthReqReduction@GAME@@QEAA@AEBV01@@Z
93610 - ??0CharAttributeVal_WeaponStrengthReqReduction@GAME@@QEAA@XZ
CA1A0 - ??0CharFxPak@GAME@@QEAA@AEBV01@@Z
A9AD0 - ??0CharFxPak@GAME@@QEAA@XZ
3E350 - ??0CharPickUpConfigCmd@GAME@@QEAA@AEBV01@@Z
A76F0 - ??0CharPickUpConfigCmd@GAME@@QEAA@II@Z
42490 - ??0Character@GAME@@QEAA@XZ
44EDC0 - ??0CharacterActionBase@GAME@@QEAA@AEBV01@@Z
6EF00 - ??0CharacterActionBase@GAME@@QEAA@I@Z
3A740 - ??0CharacterActionHandler@GAME@@QEAA@AEBV01@@Z
761D0 - ??0CharacterActionHandler@GAME@@QEAA@XZ
44B340 - ??0CharacterBio@GAME@@QEAA@AEBV01@@Z
76760 - ??0CharacterBio@GAME@@QEAA@XZ
44BB10 - ??0CharacterHookPack@GAME@@QEAA@AEBV01@@Z
7A600 - ??0CharacterHookPack@GAME@@QEAA@XZ
44EBC0 - ??0CharacterMovementManager@GAME@@QEAA@AEBV01@@Z
7ADC0 - ??0CharacterMovementManager@GAME@@QEAA@PEAVCharacter@1@@Z
3E3560 - ??0CharonGeyserMarker@GAME@@QEAA@XZ
44F370 - ??0ChatAction@GAME@@QEAA@AEBV01@@Z
73900 - ??0ChatAction@GAME@@QEAA@II@Z
453030 - ??0ChatActionPacket@GAME@@QEAA@AEBV01@@Z
2D8EF0 - ??0ChatActionPacket@GAME@@QEAA@XZ
1E6170 - ??0ChatCommandUseSkillPacket@GAME@@QEAA@AEBV01@@Z
2C8D10 - ??0ChatCommandUseSkillPacket@GAME@@QEAA@XZ
AD5A0 - ??0ChestHookPack@GAME@@QEAA@AEBV01@@Z
AD710 - ??0ChestHookPack@GAME@@QEAA@XZ
3DBA0 - ??0CleanseShrineConfigCmd@GAME@@QEAA@AEBV01@@Z
A6A70 - ??0CleanseShrineConfigCmd@GAME@@QEAA@IAEBUCleanseShrineConfigInfo@1@@Z
44DB40 - ??0CleanseShrineConfigCmdPacket@GAME@@QEAA@AEBV01@@Z
2BDFF0 - ??0CleanseShrineConfigCmdPacket@GAME@@QEAA@XZ
1E5DA0 - ??0CleanseShrinePacket@GAME@@QEAA@AEBV01@@Z
2CD940 - ??0CleanseShrinePacket@GAME@@QEAA@XZ
1EA670 - ??0ClearMutatorsPacket@GAME@@QEAA@AEBV01@@Z
2D3C60 - ??0ClearMutatorsPacket@GAME@@QEAA@XZ
CF2B0 - ??0CombatAttribute@GAME@@QEAA@AEBV01@@Z
CA2F0 - ??0CombatAttribute@GAME@@QEAA@W4CombatAttributeType@1@@Z
CF250 - ??0CombatAttributeAbsDamage@GAME@@QEAA@AEBV01@@Z
CA420 - ??0CombatAttributeAbsDamage@GAME@@QEAA@W4CombatAttributeType@1@@Z
CA450 - ??0CombatAttributeAbsDamage@GAME@@QEAA@W4CombatAttributeType@1@MMM_N@Z
44A460 - ??0CombatAttributeAbsDamageElemental@GAME@@QEAA@AEBV01@@Z
CAA60 - ??0CombatAttributeAbsDamageElemental@GAME@@QEAA@W4CombatAttributeType@1@@Z
CAA90 - ??0CombatAttributeAbsDamageElemental@GAME@@QEAA@W4CombatAttributeType@1@MMM@Z
44A6B0 - ??0CombatAttributeAbsDamageMod@GAME@@QEAA@AEBV01@@Z
CBB90 - ??0CombatAttributeAbsDamageMod@GAME@@QEAA@W4CombatAttributeType@1@M@Z
CCF60 - ??0CombatAttributeAbsDamage_Disruption@GAME@@QEAA@$$QEAV01@@Z
CCF60 - ??0CombatAttributeAbsDamage_Disruption@GAME@@QEAA@AEBV01@@Z
CCF20 - ??0CombatAttributeAbsDamage_Disruption@GAME@@QEAA@W4CombatAttributeType@1@MMM@Z
CCFD0 - ??0CombatAttributeAbsDamage_LifeLeech@GAME@@QEAA@$$QEAV01@@Z
CCFD0 - ??0CombatAttributeAbsDamage_LifeLeech@GAME@@QEAA@AEBV01@@Z
CEA90 - ??0CombatAttributeAbsDamage_LifeLeech@GAME@@QEAA@W4CombatAttributeType@1@MMM@Z
CD090 - ??0CombatAttributeAbsDamage_ManaBurn@GAME@@QEAA@$$QEAV01@@Z
CD090 - ??0CombatAttributeAbsDamage_ManaBurn@GAME@@QEAA@AEBV01@@Z
CD040 - ??0CombatAttributeAbsDamage_ManaBurn@GAME@@QEAA@W4CombatAttributeType@1@MMMM@Z
CCEB0 - ??0CombatAttributeAbsDamage_PercentLife@GAME@@QEAA@$$QEAV01@@Z
CCEB0 - ??0CombatAttributeAbsDamage_PercentLife@GAME@@QEAA@AEBV01@@Z
CCE70 - ??0CombatAttributeAbsDamage_PercentLife@GAME@@QEAA@W4CombatAttributeType@1@MMM@Z
44A7A0 - ??0CombatAttributeAbsDefense@GAME@@QEAA@AEBV01@@Z
CBE60 - ??0CombatAttributeAbsDefense@GAME@@QEAA@W4CombatAttributeType@1@M@Z
44AA00 - ??0CombatAttributeAbsDefenseMod@GAME@@QEAA@AEBV01@@Z
CC580 - ??0CombatAttributeAbsDefenseMod@GAME@@QEAA@W4CombatAttributeType@1@M@Z
44A800 - ??0CombatAttributeAbsDefenseRestricted@GAME@@QEAA@AEBV01@@Z
CC0E0 - ??0CombatAttributeAbsDefenseRestricted@GAME@@QEAA@W4CombatAttributeType@1@M@Z
44A870 - ??0CombatAttributeAbsDefenseTotalSpeed@GAME@@QEAA@AEBV01@@Z
CBD80 - ??0CombatAttributeAbsDefenseTotalSpeed@GAME@@QEAA@W4CombatAttributeType@1@M@Z
192F0 - ??0CombatAttributeAccumulator@GAME@@QEAA@AEBV01@@Z
CF2F0 - ??0CombatAttributeAccumulator@GAME@@QEAA@XZ
CCBD0 - ??0CombatAttributeDamage_BasePhysical@GAME@@QEAA@AEBV01@@Z
CD2E0 - ??0CombatAttributeDamage_BasePhysical@GAME@@QEAA@W4CombatAttributeType@1@MMMM_NM@Z
CCD00 - ??0CombatAttributeDamage_BonusPhysical@GAME@@QEAA@AEBV01@@Z
CE090 - ??0CombatAttributeDamage_BonusPhysical@GAME@@QEAA@W4CombatAttributeType@1@@Z
CE0C0 - ??0CombatAttributeDamage_BonusPhysical@GAME@@QEAA@W4CombatAttributeType@1@MMM@Z
44AAA0 - ??0CombatAttributeDefenseCap@GAME@@QEAA@AEBV01@@Z
CC720 - ??0CombatAttributeDefenseCap@GAME@@QEAA@W4CombatAttributeType@1@M@Z
44A940 - ??0CombatAttributeDefenseMisc@GAME@@QEAA@AEBV01@@Z
CC370 - ??0CombatAttributeDefenseMisc@GAME@@QEAA@W4CombatAttributeType@1@M@Z
44A9A0 - ??0CombatAttributeDefenseMiscRestricted@GAME@@QEAA@AEBV01@@Z
CC4C0 - ??0CombatAttributeDefenseMiscRestricted@GAME@@QEAA@W4CombatAttributeType@1@M@Z
CCE00 - ??0CombatAttributeDefense_AbsorptionProtection@GAME@@QEAA@AEBV01@@Z
CE590 - ??0CombatAttributeDefense_AbsorptionProtection@GAME@@QEAA@MMW4CombatAttributeRegion@1@@Z
44A4D0 - ??0CombatAttributeDurDamage@GAME@@QEAA@AEBV01@@Z
CADD0 - ??0CombatAttributeDurDamage@GAME@@QEAA@W4CombatAttributeType@1@@Z
CAE00 - ??0CombatAttributeDurDamage@GAME@@QEAA@W4CombatAttributeType@1@MMIMM_N@Z
44A540 - ??0CombatAttributeDurDamageElemental@GAME@@QEAA@AEBV01@@Z
CB4C0 - ??0CombatAttributeDurDamageElemental@GAME@@QEAA@W4CombatAttributeType@1@@Z
CB500 - ??0CombatAttributeDurDamageElemental@GAME@@QEAA@W4CombatAttributeType@1@MMIMM@Z
44A750 - ??0CombatAttributeDurDamageMod@GAME@@QEAA@AEBV01@@Z
CBCB0 - ??0CombatAttributeDurDamageMod@GAME@@QEAA@W4CombatAttributeType@1@MM@Z
44A8E0 - ??0CombatAttributeDurDefense@GAME@@QEAA@AEBV01@@Z
CC190 - ??0CombatAttributeDurDefense@GAME@@QEAA@W4CombatAttributeType@1@M@Z
44AA50 - ??0CombatAttributeDurDefenseMod@GAME@@QEAA@AEBV01@@Z
CC680 - ??0CombatAttributeDurDefenseMod@GAME@@QEAA@W4CombatAttributeType@1@M@Z
44A5C0 - ??0CombatAttributeDurFixedDamage@GAME@@QEAA@AEBV01@@Z
CB8B0 - ??0CombatAttributeDurFixedDamage@GAME@@QEAA@W4CombatAttributeType@1@MMIMM@Z
CF1E0 - ??0CombatAttributeInfluenceDamage@GAME@@QEAA@AEBV01@@Z
CBAF0 - ??0CombatAttributeInfluenceDamage@GAME@@QEAA@W4CombatAttributeType@1@M@Z
CD270 - ??0CombatAttributeInfluenceDamage_Confusion@GAME@@QEAA@$$QEAV01@@Z
CD270 - ??0CombatAttributeInfluenceDamage_Confusion@GAME@@QEAA@AEBV01@@Z
CD240 - ??0CombatAttributeInfluenceDamage_Confusion@GAME@@QEAA@W4CombatAttributeType@1@M@Z
CD1D0 - ??0CombatAttributeInfluenceDamage_Convert@GAME@@QEAA@$$QEAV01@@Z
CD1D0 - ??0CombatAttributeInfluenceDamage_Convert@GAME@@QEAA@AEBV01@@Z
CD1A0 - ??0CombatAttributeInfluenceDamage_Convert@GAME@@QEAA@W4CombatAttributeType@1@M@Z
CD270 - ??0CombatAttributeInfluenceDamage_Fear@GAME@@QEAA@$$QEAV01@@Z
CD270 - ??0CombatAttributeInfluenceDamage_Fear@GAME@@QEAA@AEBV01@@Z
CD240 - ??0CombatAttributeInfluenceDamage_Fear@GAME@@QEAA@W4CombatAttributeType@1@M@Z
CD130 - ??0CombatAttributeInfluenceDamage_Taunt@GAME@@QEAA@$$QEAV01@@Z
CD130 - ??0CombatAttributeInfluenceDamage_Taunt@GAME@@QEAA@AEBV01@@Z
CD100 - ??0CombatAttributeInfluenceDamage_Taunt@GAME@@QEAA@W4CombatAttributeType@1@M@Z
44A640 - ??0CombatAttributeReflexDamage@GAME@@QEAA@AEBV01@@Z
CB9F0 - ??0CombatAttributeReflexDamage@GAME@@QEAA@W4CombatAttributeType@1@MMM@Z
44A700 - ??0CombatAttributeTotalDamageMod@GAME@@QEAA@AEBV01@@Z
CBC30 - ??0CombatAttributeTotalDamageMod@GAME@@QEAA@W4CombatAttributeType@1@M@Z
CCD60 - ??0CombatAttribute_DamageCritBonus@GAME@@QEAA@AEBV01@@Z
CE3F0 - ??0CombatAttribute_DamageCritBonus@GAME@@QEAA@M@Z
CCDB0 - ??0CombatAttribute_DamageMultiplier@GAME@@QEAA@AEBV01@@Z
CE490 - ??0CombatAttribute_DamageMultiplier@GAME@@QEAA@M@Z
15620 - ??0CombatDisplayAccumulator@GAME@@QEAA@AEBV01@@Z
D1B60 - ??0CombatDisplayAccumulator@GAME@@QEAA@_N@Z
D1CA0 - ??0CombatManager@GAME@@QEAA@XZ
3B1E0 - ??0CompleteRelicsConfigCmd@GAME@@QEAA@AEBV01@@Z
A27B0 - ??0CompleteRelicsConfigCmd@GAME@@QEAA@IAEBV?$vector@U?$pair@IUItemReplicaInfo@GAME@@@std@@@mem@@@Z
44C080 - ??0CompleteRelicsConfigCmdPacket@GAME@@QEAA@AEBV01@@Z
2B6490 - ??0CompleteRelicsConfigCmdPacket@GAME@@QEAA@XZ
1EA830 - ??0ControlPlayerRespawnPacket@GAME@@QEAA@AEBV01@@Z
2D3E60 - ??0ControlPlayerRespawnPacket@GAME@@QEAA@XZ
1B470 - ??0Controller@GAME@@QEAA@AEBV01@@Z
D8AD0 - ??0Controller@GAME@@QEAA@XZ
3ABB0 - ??0ControllerAI@GAME@@QEAA@AEBV01@@Z
D8B40 - ??0ControllerAI@GAME@@QEAA@XZ
3A870 - ??0ControllerAIState@GAME@@QEAA@AEBV01@@Z
3A870 - ??0ControllerAIState@GAME@@QEAA@PEAVControllerAI@1@@Z
DC270 - ??0ControllerAIStateData@GAME@@QEAA@IIIAEBVWorldVec3@1@@Z
DC240 - ??0ControllerAIStateData@GAME@@QEAA@XZ
3A970 - ??0ControllerAIStatePreStart@GAME@@QEAA@AEBV01@@Z
DC2A0 - ??0ControllerAIStatePreStart@GAME@@QEAA@PEAVControllerAI@1@@Z
ADBC0 - ??0ControllerAlly@GAME@@QEAA@AEBV01@@Z
DC740 - ??0ControllerAlly@GAME@@QEAA@XZ
1B6B0 - ??0ControllerBaseCharacter@GAME@@QEAA@AEBV01@@Z
DD5E0 - ??0ControllerBaseCharacter@GAME@@QEAA@XZ
ADCE0 - ??0ControllerCerberus@GAME@@QEAA@AEBV01@@Z
DE800 - ??0ControllerCerberus@GAME@@QEAA@XZ
DE7A0 - ??0ControllerCerberusStateAttack@GAME@@QEAA@AEBV01@@Z
E1040 - ??0ControllerCerberusStateAttack@GAME@@QEAA@PEAVControllerCerberus@1@@Z
DE760 - ??0ControllerCerberusStateRoar@GAME@@QEAA@AEBV01@@Z
E0DB0 - ??0ControllerCerberusStateRoar@GAME@@QEAA@PEAVControllerCerberus@1@@Z
1BAF0 - ??0ControllerCharacter@GAME@@QEAA@AEBV01@@Z
E1210 - ??0ControllerCharacter@GAME@@QEAA@XZ
1BB70 - ??0ControllerCombat@GAME@@QEAA@AEBV01@@Z
E28E0 - ??0ControllerCombat@GAME@@QEAA@XZ
ADDF0 - ??0ControllerGraeae@GAME@@QEAA@AEBV01@@Z
E2F40 - ??0ControllerGraeae@GAME@@QEAA@XZ
E2E40 - ??0ControllerGraeaeStateAttack@GAME@@QEAA@AEBV01@@Z
E4030 - ??0ControllerGraeaeStateAttack@GAME@@QEAA@PEAVControllerGraeae@1@@Z
E2ED0 - ??0ControllerGraeaeStateDead@GAME@@QEAA@AEBV01@@Z
E4120 - ??0ControllerGraeaeStateDead@GAME@@QEAA@PEAVControllerGraeae@1@@Z
E2EA0 - ??0ControllerGraeaeStateDying@GAME@@QEAA@AEBV01@@Z
E4060 - ??0ControllerGraeaeStateDying@GAME@@QEAA@PEAVControllerGraeae@1@@Z
E2E00 - ??0ControllerGraeaeStateIdle@GAME@@QEAA@AEBV01@@Z
E4010 - ??0ControllerGraeaeStateIdle@GAME@@QEAA@PEAVControllerGraeae@1@@Z
E2F00 - ??0ControllerGraeaeStateToggleEye@GAME@@QEAA@AEBV01@@Z
E41F0 - ??0ControllerGraeaeStateToggleEye@GAME@@QEAA@PEAVControllerMonster@1@@Z
AE000 - ??0ControllerHades@GAME@@QEAA@AEBV01@@Z
E4270 - ??0ControllerHades@GAME@@QEAA@XZ
E4F60 - ??0ControllerMegalesiosStateLaunchBursts@GAME@@QEAA@AEBV01@@Z
E4C10 - ??0ControllerMegalesiosStateLaunchBursts@GAME@@QEAA@PEAVControllerMegalesios@1@@Z
E4BE0 - ??0ControllerMegalesiosStateStartup@GAME@@QEAA@AEBV01@@Z
E4980 - ??0ControllerMegalesiosStateStartup@GAME@@QEAA@PEAVControllerMegalesios@1@@Z
6E300 - ??0ControllerMonster@GAME@@QEAA@AEBV01@@Z
EA130 - ??0ControllerMonster@GAME@@QEAA@XZ
AEDD0 - ??0ControllerMonsterStateAlertBeforePursue@GAME@@QEAA@AEBV01@@Z
1006C0 - ??0ControllerMonsterStateAlertBeforePursue@GAME@@QEAA@PEAVControllerMonster@1@@Z
AE520 - ??0ControllerMonsterStateAttack@GAME@@QEAA@AEBV01@@Z
F64E0 - ??0ControllerMonsterStateAttack@GAME@@QEAA@PEAVControllerMonster@1@@Z
AEAB0 - ??0ControllerMonsterStateCharge@GAME@@QEAA@AEBV01@@Z
FE030 - ??0ControllerMonsterStateCharge@GAME@@QEAA@PEAVControllerMonster@1@@Z
AEB80 - ??0ControllerMonsterStateConfused@GAME@@QEAA@AEBV01@@Z
FEBA0 - ??0ControllerMonsterStateConfused@GAME@@QEAA@PEAVControllerMonster@1@@Z
AE9A0 - ??0ControllerMonsterStateDead@GAME@@QEAA@AEBV01@@Z
FCC70 - ??0ControllerMonsterStateDead@GAME@@QEAA@PEAVControllerMonster@1@@Z
AEA10 - ??0ControllerMonsterStateDefendLeader@GAME@@QEAA@AEBV01@@Z
FD5E0 - ??0ControllerMonsterStateDefendLeader@GAME@@QEAA@PEAVControllerMonster@1@@Z
AEAE0 - ??0ControllerMonsterStateDodgeAttack@GAME@@QEAA@AEBV01@@Z
FE1B0 - ??0ControllerMonsterStateDodgeAttack@GAME@@QEAA@PEAVControllerMonster@1@@Z
AE970 - ??0ControllerMonsterStateDying@GAME@@QEAA@AEBV01@@Z
FC980 - ??0ControllerMonsterStateDying@GAME@@QEAA@PEAVControllerMonster@1@@Z
AEE00 - ??0ControllerMonsterStateEmote@GAME@@QEAA@AEBV01@@Z
1008F0 - ??0ControllerMonsterStateEmote@GAME@@QEAA@PEAVControllerMonster@1@@Z
AE670 - ??0ControllerMonsterStateFlee@GAME@@QEAA@AEBV01@@Z
F91A0 - ??0ControllerMonsterStateFlee@GAME@@QEAA@PEAVControllerMonster@1@@Z
AE9D0 - ??0ControllerMonsterStateFollowLeader@GAME@@QEAA@AEBV01@@Z
FCD00 - ??0ControllerMonsterStateFollowLeader@GAME@@QEAA@PEAVControllerMonster@1@@Z
AEC60 - ??0ControllerMonsterStateGettingUp@GAME@@QEAA@AEBV01@@Z
FF5A0 - ??0ControllerMonsterStateGettingUp@GAME@@QEAA@PEAVControllerMonster@1@@Z
AEF50 - ??0ControllerMonsterStateHidden@GAME@@QEAA@AEBV01@@Z
F3310 - ??0ControllerMonsterStateHidden@GAME@@QEAA@PEAVControllerMonsterHidden@1@@Z
AE250 - ??0ControllerMonsterStateIdle@GAME@@QEAA@AEBV01@@Z
F45A0 - ??0ControllerMonsterStateIdle@GAME@@QEAA@PEAVControllerMonster@1@@Z
AEBC0 - ??0ControllerMonsterStateImmobile@GAME@@QEAA@AEBV01@@Z
FF1C0 - ??0ControllerMonsterStateImmobile@GAME@@QEAA@PEAVControllerMonster@1@@Z
AE5C0 - ??0ControllerMonsterStateJumpAttack@GAME@@QEAA@AEBV01@@Z
F7E20 - ??0ControllerMonsterStateJumpAttack@GAME@@QEAA@PEAVControllerMonster@1@@Z
AECA0 - ??0ControllerMonsterStateKnockedDown@GAME@@QEAA@AEBV01@@Z
FF870 - ??0ControllerMonsterStateKnockedDown@GAME@@QEAA@PEAVControllerMonster@1@@Z
AEA80 - ??0ControllerMonsterStateMove@GAME@@QEAA@AEBV01@@Z
FDD70 - ??0ControllerMonsterStateMove@GAME@@QEAA@PEAVControllerMonster@1@@Z
AE3E0 - ??0ControllerMonsterStateNavigateObstacle@GAME@@QEAA@AEBV01@@Z
F5DB0 - ??0ControllerMonsterStateNavigateObstacle@GAME@@QEAA@PEAVControllerMonster@1@@Z
AEB50 - ??0ControllerMonsterStatePanic@GAME@@QEAA@AEBV01@@Z
FE7E0 - ??0ControllerMonsterStatePanic@GAME@@QEAA@PEAVControllerMonster@1@@Z
AEB10 - ??0ControllerMonsterStateParalyze@GAME@@QEAA@AEBV01@@Z
FE420 - ??0ControllerMonsterStateParalyze@GAME@@QEAA@PEAVControllerMonster@1@@Z
AE930 - ??0ControllerMonsterStatePatrol@GAME@@QEAA@AEBV01@@Z
FC180 - ??0ControllerMonsterStatePatrol@GAME@@QEAA@PEAVControllerMonster@1@@Z
AE2C0 - ??0ControllerMonsterStatePursue@GAME@@QEAA@AEBV01@@Z
F4A90 - ??0ControllerMonsterStatePursue@GAME@@QEAA@PEAVControllerMonster@1@@Z
AEE30 - ??0ControllerMonsterStateQuestMove@GAME@@QEAA@AEBV01@@Z
100A20 - ??0ControllerMonsterStateQuestMove@GAME@@QEAA@PEAVControllerMonster@1@@Z
AEE90 - ??0ControllerMonsterStateQuestPlayAnimation@GAME@@QEAA@AEBV01@@Z
1012C0 - ??0ControllerMonsterStateQuestPlayAnimation@GAME@@QEAA@PEAVControllerMonster@1@@Z
AEEC0 - ??0ControllerMonsterStateQuestUseSkill@GAME@@QEAA@AEBV01@@Z
1014D0 - ??0ControllerMonsterStateQuestUseSkill@GAME@@QEAA@PEAVControllerMonster@1@@Z
AEE60 - ??0ControllerMonsterStateQuestWalk@GAME@@QEAA@AEBV01@@Z
101070 - ??0ControllerMonsterStateQuestWalk@GAME@@QEAA@PEAVControllerMonster@1@@Z
AE5F0 - ??0ControllerMonsterStateRepositionForAttack@GAME@@QEAA@AEBV01@@Z
F8960 - ??0ControllerMonsterStateRepositionForAttack@GAME@@QEAA@PEAVControllerMonster@1@@Z
AE790 - ??0ControllerMonsterStateReturn@GAME@@QEAA@AEBV01@@Z
FAE40 - ??0ControllerMonsterStateReturn@GAME@@QEAA@PEAVControllerMonster@1@@Z
AE7C0 - ??0ControllerMonsterStateReturnFast@GAME@@QEAA@AEBV01@@Z
FB510 - ??0ControllerMonsterStateReturnFast@GAME@@QEAA@PEAVControllerMonster@1@@Z
AE6F0 - ??0ControllerMonsterStateRoam@GAME@@QEAA@AEBV01@@Z
FA150 - ??0ControllerMonsterStateRoam@GAME@@QEAA@PEAVControllerMonster@1@@Z
AED30 - ??0ControllerMonsterStateScared@GAME@@QEAA@AEBV01@@Z
FFB90 - ??0ControllerMonsterStateScared@GAME@@QEAA@PEAVControllerMonster@1@@Z
AED00 - ??0ControllerMonsterStateSleep@GAME@@QEAA@AEBV01@@Z
FF9E0 - ??0ControllerMonsterStateSleep@GAME@@QEAA@PEAVControllerMonster@1@@Z
AE150 - ??0ControllerMonsterStateStartup@GAME@@QEAA@AEBV01@@Z
F3F20 - ??0ControllerMonsterStateStartup@GAME@@QEAA@PEAVControllerMonster@1@@Z
AEC30 - ??0ControllerMonsterStateStunned@GAME@@QEAA@AEBV01@@Z
FF4F0 - ??0ControllerMonsterStateStunned@GAME@@QEAA@PEAVControllerMonster@1@@Z
AECD0 - ??0ControllerMonsterStateTakeHit@GAME@@QEAA@AEBV01@@Z
FF930 - ??0ControllerMonsterStateTakeHit@GAME@@QEAA@PEAVControllerMonster@1@@Z
AEBF0 - ??0ControllerMonsterStateTrapped@GAME@@QEAA@AEBV01@@Z
FF2C0 - ??0ControllerMonsterStateTrapped@GAME@@QEAA@PEAVControllerMonster@1@@Z
AED70 - ??0ControllerMonsterStateUseSkillOnAlly@GAME@@QEAA@AEBV01@@Z
1002B0 - ??0ControllerMonsterStateUseSkillOnAlly@GAME@@QEAA@PEAVControllerMonster@1@@Z
AEDA0 - ??0ControllerMonsterStateUseSkillOnPoint@GAME@@QEAA@AEBV01@@Z
100500 - ??0ControllerMonsterStateUseSkillOnPoint@GAME@@QEAA@PEAVControllerMonster@1@@Z
AE7F0 - ??0ControllerMonsterStateWaitToAttack@GAME@@QEAA@AEBV01@@Z
FB530 - ??0ControllerMonsterStateWaitToAttack@GAME@@QEAA@PEAVControllerMonster@1@@Z
AE720 - ??0ControllerMonsterStateWander@GAME@@QEAA@AEBV01@@Z
FA590 - ??0ControllerMonsterStateWander@GAME@@QEAA@PEAVControllerMonster@1@@Z
AE750 - ??0ControllerMonsterStateWanderPause@GAME@@QEAA@AEBV01@@Z
FACF0 - ??0ControllerMonsterStateWanderPause@GAME@@QEAA@PEAVControllerMonster@1@@Z
AEFF0 - ??0ControllerMonsterSynergy@GAME@@QEAA@AEBV01@@Z
1037D0 - ??0ControllerMonsterSynergy@GAME@@QEAA@XZ
1037A0 - ??0ControllerMonsterSynergyStateDying@GAME@@QEAA@AEBV01@@Z
107D60 - ??0ControllerMonsterSynergyStateDying@GAME@@QEAA@PEAVControllerMonsterSynergy@1@@Z
103770 - ??0ControllerMonsterSynergyStateSuperAttack@GAME@@QEAA@AEBV01@@Z
107AF0 - ??0ControllerMonsterSynergyStateSuperAttack@GAME@@QEAA@PEAVControllerMonsterSynergy@1@@Z
AF220 - ??0ControllerNpc2@GAME@@QEAA@AEBV01@@Z
1085A0 - ??0ControllerNpc2@GAME@@QEAA@XZ
1084A0 - ??0ControllerNpcAnimalStateFollowHerd@GAME@@QEAA@AEBV01@@Z
110770 - ??0ControllerNpcAnimalStateFollowHerd@GAME@@QEAA@PEAVControllerNpcHerdAnimal@1@@Z
108510 - ??0ControllerNpcAnimalStateWiggle@GAME@@QEAA@AEBV01@@Z
110790 - ??0ControllerNpcAnimalStateWiggle@GAME@@QEAA@PEAVControllerNpcHerdAnimal@1@@Z
108340 - ??0ControllerNpcStateAlert@GAME@@QEAA@AEBV01@@Z
10F9E0 - ??0ControllerNpcStateAlert@GAME@@QEAA@PEAVControllerNpc2@1@@Z
1080F0 - ??0ControllerNpcStateBase@GAME@@QEAA@AEBV01@@Z
10DA10 - ??0ControllerNpcStateBase@GAME@@QEAA@PEAVControllerNpc2@1@@Z
108210 - ??0ControllerNpcStateChat@GAME@@QEAA@AEBV01@@Z
10E8D0 - ??0ControllerNpcStateChat@GAME@@QEAA@PEAVControllerNpc2@1@@Z
108570 - ??0ControllerNpcStateDirectHerd@GAME@@QEAA@AEBV01@@Z
110850 - ??0ControllerNpcStateDirectHerd@GAME@@QEAA@PEAVControllerNpcHerder@1@@Z
108150 - ??0ControllerNpcStateIdle@GAME@@QEAA@AEBV01@@Z
10E2A0 - ??0ControllerNpcStateIdle@GAME@@QEAA@PEAVControllerNpc2@1@@Z
108190 - ??0ControllerNpcStateLongIdle@GAME@@QEAA@AEBV01@@Z
10E6D0 - ??0ControllerNpcStateLongIdle@GAME@@QEAA@PEAVControllerNpc2@1@@Z
108370 - ??0ControllerNpcStateQuestMove@GAME@@QEAA@AEBV01@@Z
10FB50 - ??0ControllerNpcStateQuestMove@GAME@@QEAA@PEAVControllerNpc2@1@@Z
1083D0 - ??0ControllerNpcStateQuestOrient@GAME@@QEAA@AEBV01@@Z
110870 - ??0ControllerNpcStateQuestOrient@GAME@@QEAA@PEAVControllerNpc2@1@@Z
108410 - ??0ControllerNpcStateQuestPlayAnimation@GAME@@QEAA@AEBV01@@Z
110220 - ??0ControllerNpcStateQuestPlayAnimation@GAME@@QEAA@PEAVControllerNpc2@1@@Z
1083A0 - ??0ControllerNpcStateQuestWalk@GAME@@QEAA@AEBV01@@Z
10FF30 - ??0ControllerNpcStateQuestWalk@GAME@@QEAA@PEAVControllerNpc2@1@@Z
108120 - ??0ControllerNpcStateStartup@GAME@@QEAA@AEBV01@@Z
10DF40 - ??0ControllerNpcStateStartup@GAME@@QEAA@PEAVControllerNpc2@1@@Z
108440 - ??0ControllerNpcStateUseSkillOnAlly@GAME@@QEAA@AEBV01@@Z
110540 - ??0ControllerNpcStateUseSkillOnAlly@GAME@@QEAA@PEAVControllerNpc2@1@@Z
108240 - ??0ControllerNpcStateWander@GAME@@QEAA@AEBV01@@Z
10EA30 - ??0ControllerNpcStateWander@GAME@@QEAA@PEAVControllerNpc2@1@@Z
1082D0 - ??0ControllerNpcStateWatchAttraction@GAME@@QEAA@AEBV01@@Z
10F6C0 - ??0ControllerNpcStateWatchAttraction@GAME@@QEAA@PEAVControllerNpc2@1@@Z
AF3A0 - ??0ControllerOrmenos@GAME@@QEAA@AEBV01@@Z
110F30 - ??0ControllerOrmenos@GAME@@QEAA@XZ
110ED0 - ??0ControllerOrmenosStateAttack@GAME@@QEAA@AEBV01@@Z
110DA0 - ??0ControllerOrmenosStateAttack@GAME@@QEAA@PEAVControllerOrmenos@1@@Z
AF4A0 - ??0ControllerPet@GAME@@QEAA@AEBV01@@Z
1119B0 - ??0ControllerPet@GAME@@QEAA@XZ
41F30 - ??0ControllerPlayer@GAME@@QEAA@AEBV01@@Z
111FA0 - ??0ControllerPlayer@GAME@@QEAA@XZ
111A30 - ??0ControllerPlayerState@GAME@@QEAA@AEBV01@@Z
116260 - ??0ControllerPlayerState@GAME@@QEAA@PEAVControllerPlayer@1@@Z
111D20 - ??0ControllerPlayerStateChargeToUseSkill@GAME@@QEAA@AEBV01@@Z
11B970 - ??0ControllerPlayerStateChargeToUseSkill@GAME@@QEAA@PEAVControllerPlayer@1@@Z
111E10 - ??0ControllerPlayerStateDying@GAME@@QEAA@AEBV01@@Z
11D100 - ??0ControllerPlayerStateDying@GAME@@QEAA@PEAVControllerPlayer@1@@Z
111A90 - ??0ControllerPlayerStateIdle@GAME@@QEAA@AEBV01@@Z
119800 - ??0ControllerPlayerStateIdle@GAME@@QEAA@PEAVControllerPlayer@1@@Z
111E40 - ??0ControllerPlayerStateImmobilized@GAME@@QEAA@AEBV01@@Z
11D120 - ??0ControllerPlayerStateImmobilized@GAME@@QEAA@PEAVControllerPlayer@1@@Z
111D50 - ??0ControllerPlayerStateJumpToUseSkill@GAME@@QEAA@AEBV01@@Z
11BB90 - ??0ControllerPlayerStateJumpToUseSkill@GAME@@QEAA@PEAVControllerPlayer@1@@Z
111EB0 - ??0ControllerPlayerStateKnockedDown@GAME@@QEAA@AEBV01@@Z
11D4B0 - ??0ControllerPlayerStateKnockedDown@GAME@@QEAA@PEAVControllerPlayer@1@@Z
111AD0 - ??0ControllerPlayerStateLongIdle@GAME@@QEAA@AEBV01@@Z
119A60 - ??0ControllerPlayerStateLongIdle@GAME@@QEAA@PEAVControllerPlayer@1@@Z
111DC0 - ??0ControllerPlayerStateMoveAndUseSkill@GAME@@QEAA@AEBV01@@Z
11C060 - ??0ControllerPlayerStateMoveAndUseSkill@GAME@@QEAA@PEAVControllerPlayer@1@@Z
111B00 - ??0ControllerPlayerStateMoveTo@GAME@@QEAA@AEBV01@@Z
119BE0 - ??0ControllerPlayerStateMoveTo@GAME@@QEAA@PEAVControllerPlayer@1@@Z
111BA0 - ??0ControllerPlayerStateMoveToActorBase@GAME@@QEAA@AEBV01@@Z
11A120 - ??0ControllerPlayerStateMoveToActorBase@GAME@@QEAA@PEAVControllerPlayer@1@@Z
111C90 - ??0ControllerPlayerStateMoveToFixedItem@GAME@@QEAA@AEBV01@@Z
11AA80 - ??0ControllerPlayerStateMoveToFixedItem@GAME@@QEAA@PEAVControllerPlayer@1@@Z
111C30 - ??0ControllerPlayerStateMoveToItem@GAME@@QEAA@AEBV01@@Z
11A640 - ??0ControllerPlayerStateMoveToItem@GAME@@QEAA@PEAVControllerPlayer@1@@Z
111BD0 - ??0ControllerPlayerStateMoveToNpc@GAME@@QEAA@AEBV01@@Z
11A1F0 - ??0ControllerPlayerStateMoveToNpc@GAME@@QEAA@PEAVControllerPlayer@1@@Z
111CF0 - ??0ControllerPlayerStateMoveToUseSkill@GAME@@QEAA@AEBV01@@Z
11B070 - ??0ControllerPlayerStateMoveToUseSkill@GAME@@QEAA@PEAVControllerPlayer@1@@Z
111C60 - ??0ControllerPlayerStatePickupItem@GAME@@QEAA@AEBV01@@Z
11A930 - ??0ControllerPlayerStatePickupItem@GAME@@QEAA@PEAVControllerPlayer@1@@Z
111F70 - ??0ControllerPlayerStateRespawning@GAME@@QEAA@AEBV01@@Z
11E790 - ??0ControllerPlayerStateRespawning@GAME@@QEAA@PEAVControllerPlayer@1@@Z
111EE0 - ??0ControllerPlayerStateSleep@GAME@@QEAA@AEBV01@@Z
11D660 - ??0ControllerPlayerStateSleep@GAME@@QEAA@PEAVControllerPlayer@1@@Z
111A60 - ??0ControllerPlayerStateStartup@GAME@@QEAA@AEBV01@@Z
119750 - ??0ControllerPlayerStateStartup@GAME@@QEAA@PEAVControllerPlayer@1@@Z
111E70 - ??0ControllerPlayerStateStunned@GAME@@QEAA@AEBV01@@Z
11D2D0 - ??0ControllerPlayerStateStunned@GAME@@QEAA@PEAVControllerPlayer@1@@Z
111C00 - ??0ControllerPlayerStateTalkToNpc@GAME@@QEAA@AEBV01@@Z
11A4E0 - ??0ControllerPlayerStateTalkToNpc@GAME@@QEAA@PEAVControllerPlayer@1@@Z
111F10 - ??0ControllerPlayerStateTrapped@GAME@@QEAA@AEBV01@@Z
11D810 - ??0ControllerPlayerStateTrapped@GAME@@QEAA@PEAVControllerPlayer@1@@Z
111CC0 - ??0ControllerPlayerStateUseFixedItem@GAME@@QEAA@AEBV01@@Z
11AF20 - ??0ControllerPlayerStateUseFixedItem@GAME@@QEAA@PEAVControllerPlayer@1@@Z
111D80 - ??0ControllerPlayerStateUseSkill@GAME@@QEAA@AEBV01@@Z
11C670 - ??0ControllerPlayerStateUseSkill@GAME@@QEAA@PEAVControllerPlayer@1@@Z
111F40 - ??0ControllerPlayerStateUseSkillWhileTrapped@GAME@@QEAA@AEBV01@@Z
11DE30 - ??0ControllerPlayerStateUseSkillWhileTrapped@GAME@@QEAA@PEAVControllerPlayer@1@@Z
11F340 - ??0ControllerSpiritHostState@GAME@@QEAA@$$QEAV01@@Z
11F340 - ??0ControllerSpiritHostState@GAME@@QEAA@AEBV01@@Z
11F290 - ??0ControllerSpiritHostState@GAME@@QEAA@PEAVControllerSpiritHost@1@@Z
11F8B0 - ??0ControllerSpiritHostStateAnimate@GAME@@QEAA@AEBV01@@Z
11F850 - ??0ControllerSpiritHostStateAnimate@GAME@@QEAA@PEAVControllerSpiritHost@1@@Z
11F820 - ??0ControllerSpiritHostStateStartup@GAME@@QEAA@AEBV01@@Z
11F370 - ??0ControllerSpiritHostStateStartup@GAME@@QEAA@PEAVControllerSpiritHost@1@@Z
E4770 - ??0ControllerSpiritState@GAME@@QEAA@$$QEAV01@@Z
E4770 - ??0ControllerSpiritState@GAME@@QEAA@AEBV01@@Z
122360 - ??0ControllerSpiritState@GAME@@QEAA@PEAVControllerSpirit@1@@Z
E4950 - ??0ControllerSpiritStateAttackToAnimate@GAME@@QEAA@AEBV01@@Z
123630 - ??0ControllerSpiritStateAttackToAnimate@GAME@@QEAA@PEAVControllerSpirit@1@@Z
E4820 - ??0ControllerSpiritStateIdle@GAME@@QEAA@AEBV01@@Z
123430 - ??0ControllerSpiritStateIdle@GAME@@QEAA@PEAVControllerSpirit@1@@Z
E47E0 - ??0ControllerSpiritStatePursueToAnimate@GAME@@QEAA@AEBV01@@Z
122BF0 - ??0ControllerSpiritStatePursueToAnimate@GAME@@QEAA@PEAVControllerSpirit@1@@Z
E47A0 - ??0ControllerSpiritStateStartup@GAME@@QEAA@AEBV01@@Z
122960 - ??0ControllerSpiritStateStartup@GAME@@QEAA@PEAVControllerSpirit@1@@Z
19A20 - ??0ControllerStooge@GAME@@QEAA@AEBV01@@Z
125B20 - ??0ControllerStooge@GAME@@QEAA@XZ
1267A0 - ??0ControllerTerracottaStateAttackMarch@GAME@@QEAA@AEBV01@@Z
126590 - ??0ControllerTerracottaStateAttackMarch@GAME@@QEAA@PEAVControllerTerracotta@1@@Z
126560 - ??0ControllerTerracottaStateStartup@GAME@@QEAA@AEBV01@@Z
126480 - ??0ControllerTerracottaStateStartup@GAME@@QEAA@PEAVControllerTerracotta@1@@Z
44BA50 - ??0Conversation@GAME@@QEAA@AEBV01@@Z
12B6D0 - ??0Conversation@GAME@@QEAA@PEAVActor@1@AEBV?$basic_string@DU?$char_traits@D@std@@V?$allocator@D@2@@std@@@Z
44B930 - ??0ConversationStep@GAME@@QEAA@AEBV01@@Z
12CAB0 - ??0ConversationStep@GAME@@QEAA@PEAVConversation@1@PEAV01@@Z
44AAF0 - ??0ConversionAttributeAccumulator@GAME@@QEAA@AEBV01@@Z
18D90 - ??0ConversionAttributeAccumulator@GAME@@QEAA@XZ
3CE60 - ??0CreateArtifactConfigCmd@GAME@@QEAA@AEBV01@@Z
A53A0 - ??0CreateArtifactConfigCmd@GAME@@QEAA@IAEBUCreateArtifactConfigInfo@1@@Z
44D290 - ??0CreateArtifactConfigCmdPacket@GAME@@QEAA@AEBV01@@Z
2BC1A0 - ??0CreateArtifactConfigCmdPacket@GAME@@QEAA@XZ
1E5760 - ??0CreateEntityPacket@GAME@@QEAA@AEBV01@@Z
2C8850 - ??0CreateEntityPacket@GAME@@QEAA@XZ
1E6C80 - ??0CreateGravestonePacket@GAME@@QEAA@AEBV01@@Z
2CA4E0 - ??0CreateGravestonePacket@GAME@@QEAA@XZ
1E5590 - ??0CreateItemPacket@GAME@@QEAA@AEBV01@@Z
2C7D30 - ??0CreateItemPacket@GAME@@QEAA@XZ
1E6A80 - ??0CreateItemTeleportPacket@GAME@@QEAA@AEBV01@@Z
2CA850 - ??0CreateItemTeleportPacket@GAME@@QEAA@XZ
3C580 - ??0CreateProjectileConfigCmd@GAME@@QEAA@AEBV01@@Z
A4580 - ??0CreateProjectileConfigCmd@GAME@@QEAA@IIIIAEBVWorldCoords@1@IAEBV?$vector@I@mem@@AEBVWorldVec3@1@IIHI@Z
44CB80 - ??0CreateProjectileConfigCmdPacket@GAME@@QEAA@AEBV01@@Z
2B9BC0 - ??0CreateProjectileConfigCmdPacket@GAME@@QEAA@XZ
3E110 - ??0CreateRemoveSkillBuffConfigCmd@GAME@@QEAA@AEBV01@@Z
A7300 - ??0CreateRemoveSkillBuffConfigCmd@GAME@@QEAA@IIAEBV?$basic_string@DU?$char_traits@D@std@@V?$allocator@D@2@@std@@IIAEBV?$vector@USkillBuffModifier@GAME@@@mem@@HI_N0I2_N@Z
44C1F0 - ??0CreateRemoveSkillBuffConfigCmdPacket@GAME@@QEAA@AEBV01@@Z
2B6D90 - ??0CreateRemoveSkillBuffConfigCmdPacket@GAME@@QEAA@XZ
421F0 - ??0CursorHandler@GAME@@QEAA@AEBV01@@Z
131C20 - ??0CursorHandler@GAME@@QEAA@XZ
131DE0 - ??0CursorHandlerAttributeReset@GAME@@QEAA@AEBV01@@Z
131F40 - ??0CursorHandlerAttributeReset@GAME@@QEAA@XZ
1323D0 - ??0CursorHandlerDevotionReset@GAME@@QEAA@AEBV01@@Z
132430 - ??0CursorHandlerDevotionReset@GAME@@QEAA@XZ
132810 - ??0CursorHandlerEnchant@GAME@@QEAA@AEBV01@@Z
1329B0 - ??0CursorHandlerEnchant@GAME@@QEAA@XZ
134490 - ??0CursorHandlerFactionBooster@GAME@@QEAA@AEBV01@@Z
1344F0 - ??0CursorHandlerFactionBooster@GAME@@QEAA@XZ
134A40 - ??0CursorHandlerHotSlotOption@GAME@@QEAA@AEBV01@@Z
134C80 - ??0CursorHandlerHotSlotOption@GAME@@QEAA@XZ
42310 - ??0CursorHandlerItemMove@GAME@@QEAA@AEBV01@@Z
1353F0 - ??0CursorHandlerItemMove@GAME@@QEAA@XZ
138290 - ??0CursorHandlerItemUse@GAME@@QEAA@AEBV01@@Z
1383D0 - ??0CursorHandlerItemUse@GAME@@QEAA@XZ
138420 - ??0CursorHandlerRelicCombine@GAME@@QEAA@AEBV01@@Z
138580 - ??0CursorHandlerRelicCombine@GAME@@QEAA@_N@Z
139AE0 - ??0CursorHandlerTransmute@GAME@@QEAA@AEBV01@@Z
139C30 - ??0CursorHandlerTransmute@GAME@@QEAA@XZ
14E540 - ??0DamageAttribute@GAME@@QEAA@AEBV01@@Z
13AC60 - ??0DamageAttribute@GAME@@QEAA@XZ
14E430 - ??0DamageAttributeAbs@GAME@@QEAA@$$QEAV01@@Z
14E640 - ??0DamageAttributeAbs@GAME@@QEAA@AEBV01@@Z
13D560 - ??0DamageAttributeAbs@GAME@@QEAA@XZ
14DF90 - ??0DamageAttributeAbsBase@GAME@@QEAA@$$QEAV01@@Z
14DFF0 - ??0DamageAttributeAbsBase@GAME@@QEAA@AEBV01@@Z
14E050 - ??0DamageAttributeAbsBase@GAME@@QEAA@XZ
14DFC0 - ??0DamageAttributeAbsBaseElemental@GAME@@QEAA@$$QEAV01@@Z
14E020 - ??0DamageAttributeAbsBaseElemental@GAME@@QEAA@AEBV01@@Z
14E080 - ??0DamageAttributeAbsBaseElemental@GAME@@QEAA@XZ
143990 - ??0DamageAttributeAbsBase_Aether@GAME@@QEAA@$$QEAV01@@Z
143960 - ??0DamageAttributeAbsBase_Aether@GAME@@QEAA@AEBV01@@Z
143930 - ??0DamageAttributeAbsBase_Aether@GAME@@QEAA@XZ
143900 - ??0DamageAttributeAbsBase_Chaos@GAME@@QEAA@$$QEAV01@@Z
1438D0 - ??0DamageAttributeAbsBase_Chaos@GAME@@QEAA@AEBV01@@Z
1438A0 - ??0DamageAttributeAbsBase_Chaos@GAME@@QEAA@XZ
143630 - ??0DamageAttributeAbsBase_Cold@GAME@@QEAA@$$QEAV01@@Z
143600 - ??0DamageAttributeAbsBase_Cold@GAME@@QEAA@AEBV01@@Z
1435D0 - ??0DamageAttributeAbsBase_Cold@GAME@@QEAA@XZ
1436C0 - ??0DamageAttributeAbsBase_Fire@GAME@@QEAA@$$QEAV01@@Z
143690 - ??0DamageAttributeAbsBase_Fire@GAME@@QEAA@AEBV01@@Z
143660 - ??0DamageAttributeAbsBase_Fire@GAME@@QEAA@XZ
143870 - ??0DamageAttributeAbsBase_Life@GAME@@QEAA@$$QEAV01@@Z
143840 - ??0DamageAttributeAbsBase_Life@GAME@@QEAA@AEBV01@@Z
143810 - ??0DamageAttributeAbsBase_Life@GAME@@QEAA@XZ
1437E0 - ??0DamageAttributeAbsBase_Lightning@GAME@@QEAA@$$QEAV01@@Z
1437B0 - ??0DamageAttributeAbsBase_Lightning@GAME@@QEAA@AEBV01@@Z
143780 - ??0DamageAttributeAbsBase_Lightning@GAME@@QEAA@XZ
143750 - ??0DamageAttributeAbsBase_Poison@GAME@@QEAA@$$QEAV01@@Z
143720 - ??0DamageAttributeAbsBase_Poison@GAME@@QEAA@AEBV01@@Z
1436F0 - ??0DamageAttributeAbsBase_Poison@GAME@@QEAA@XZ
14E4E0 - ??0DamageAttributeAbsBonus@GAME@@QEAA@$$QEAV01@@Z
14E6C0 - ??0DamageAttributeAbsBonus@GAME@@QEAA@AEBV01@@Z
142A40 - ??0DamageAttributeAbsBonus@GAME@@QEAA@XZ
14DF00 - ??0DamageAttributeAbsBonusElemental@GAME@@QEAA@$$QEAV01@@Z
14DF30 - ??0DamageAttributeAbsBonusElemental@GAME@@QEAA@AEBV01@@Z
14DF60 - ??0DamageAttributeAbsBonusElemental@GAME@@QEAA@XZ
14D740 - ??0DamageAttributeAbsMod@GAME@@QEAA@$$QEAV01@@Z
14D7D0 - ??0DamageAttributeAbsMod@GAME@@QEAA@AEBV01@@Z
14D830 - ??0DamageAttributeAbsMod@GAME@@QEAA@XZ
14D5E0 - ??0DamageAttributeAbsModBase@GAME@@QEAA@$$QEAV01@@Z
14D610 - ??0DamageAttributeAbsModBase@GAME@@QEAA@AEBV01@@Z
14D670 - ??0DamageAttributeAbsModBase@GAME@@QEAA@XZ
14D5E0 - ??0DamageAttributeAbsModBonus@GAME@@QEAA@$$QEAV01@@Z
14D610 - ??0DamageAttributeAbsModBonus@GAME@@QEAA@AEBV01@@Z
14D670 - ??0DamageAttributeAbsModBonus@GAME@@QEAA@XZ
146850 - ??0DamageAttributeAbsMod_Aether@GAME@@QEAA@$$QEAV01@@Z
1467F0 - ??0DamageAttributeAbsMod_Aether@GAME@@QEAA@AEBV01@@Z
146770 - ??0DamageAttributeAbsMod_Aether@GAME@@QEAA@XZ
1460E0 - ??0DamageAttributeAbsMod_Bleeding@GAME@@QEAA@$$QEAV01@@Z
146080 - ??0DamageAttributeAbsMod_Bleeding@GAME@@QEAA@AEBV01@@Z
146000 - ??0DamageAttributeAbsMod_Bleeding@GAME@@QEAA@XZ
146740 - ??0DamageAttributeAbsMod_Chaos@GAME@@QEAA@$$QEAV01@@Z
1466E0 - ??0DamageAttributeAbsMod_Chaos@GAME@@QEAA@AEBV01@@Z
146660 - ??0DamageAttributeAbsMod_Chaos@GAME@@QEAA@XZ
1461F0 - ??0DamageAttributeAbsMod_Cold@GAME@@QEAA@$$QEAV01@@Z
146190 - ??0DamageAttributeAbsMod_Cold@GAME@@QEAA@AEBV01@@Z
146110 - ??0DamageAttributeAbsMod_Cold@GAME@@QEAA@XZ
1472F0 - ??0DamageAttributeAbsMod_CritDamageModifier@GAME@@QEAA@$$QEAV01@@Z
147290 - ??0DamageAttributeAbsMod_CritDamageModifier@GAME@@QEAA@AEBV01@@Z
147210 - ??0DamageAttributeAbsMod_CritDamageModifier@GAME@@QEAA@XZ
147400 - ??0DamageAttributeAbsMod_DamageMultiplier@GAME@@QEAA@$$QEAV01@@Z
1473A0 - ??0DamageAttributeAbsMod_DamageMultiplier@GAME@@QEAA@AEBV01@@Z
147320 - ??0DamageAttributeAbsMod_DamageMultiplier@GAME@@QEAA@XZ
1470D0 - ??0DamageAttributeAbsMod_Elemental@GAME@@QEAA@$$QEAV01@@Z
147070 - ??0DamageAttributeAbsMod_Elemental@GAME@@QEAA@AEBV01@@Z
146FF0 - ??0DamageAttributeAbsMod_Elemental@GAME@@QEAA@XZ
146300 - ??0DamageAttributeAbsMod_Fire@GAME@@QEAA@$$QEAV01@@Z
1462A0 - ??0DamageAttributeAbsMod_Fire@GAME@@QEAA@AEBV01@@Z
146220 - ??0DamageAttributeAbsMod_Fire@GAME@@QEAA@XZ
146DA0 - ??0DamageAttributeAbsMod_Freeze@GAME@@QEAA@$$QEAV01@@Z
146D40 - ??0DamageAttributeAbsMod_Freeze@GAME@@QEAA@AEBV01@@Z
146CC0 - ??0DamageAttributeAbsMod_Freeze@GAME@@QEAA@XZ
146B80 - ??0DamageAttributeAbsMod_Knockdown@GAME@@QEAA@$$QEAV01@@Z
146B20 - ??0DamageAttributeAbsMod_Knockdown@GAME@@QEAA@AEBV01@@Z
146AA0 - ??0DamageAttributeAbsMod_Knockdown@GAME@@QEAA@XZ
146630 - ??0DamageAttributeAbsMod_Life@GAME@@QEAA@$$QEAV01@@Z
1465D0 - ??0DamageAttributeAbsMod_Life@GAME@@QEAA@AEBV01@@Z
146550 - ??0DamageAttributeAbsMod_Life@GAME@@QEAA@XZ
146520 - ??0DamageAttributeAbsMod_Lightning@GAME@@QEAA@$$QEAV01@@Z
1464C0 - ??0DamageAttributeAbsMod_Lightning@GAME@@QEAA@AEBV01@@Z
146440 - ??0DamageAttributeAbsMod_Lightning@GAME@@QEAA@XZ
146FC0 - ??0DamageAttributeAbsMod_ManaBurn@GAME@@QEAA@$$QEAV01@@Z
146F60 - ??0DamageAttributeAbsMod_ManaBurn@GAME@@QEAA@AEBV01@@Z
146EE0 - ??0DamageAttributeAbsMod_ManaBurn@GAME@@QEAA@XZ
146EB0 - ??0DamageAttributeAbsMod_Petrify@GAME@@QEAA@$$QEAV01@@Z
146E50 - ??0DamageAttributeAbsMod_Petrify@GAME@@QEAA@AEBV01@@Z
146DD0 - ??0DamageAttributeAbsMod_Petrify@GAME@@QEAA@XZ
145C50 - ??0DamageAttributeAbsMod_Physical@GAME@@QEAA@$$QEAV01@@Z
145BF0 - ??0DamageAttributeAbsMod_Physical@GAME@@QEAA@AEBV01@@Z
145B10 - ??0DamageAttributeAbsMod_Physical@GAME@@QEAA@XZ
145FD0 - ??0DamageAttributeAbsMod_Pierce@GAME@@QEAA@$$QEAV01@@Z
145F70 - ??0DamageAttributeAbsMod_Pierce@GAME@@QEAA@AEBV01@@Z
145EF0 - ??0DamageAttributeAbsMod_Pierce@GAME@@QEAA@XZ
145EC0 - ??0DamageAttributeAbsMod_PierceRatio@GAME@@QEAA@$$QEAV01@@Z
145E60 - ??0DamageAttributeAbsMod_PierceRatio@GAME@@QEAA@AEBV01@@Z
145DE0 - ??0DamageAttributeAbsMod_PierceRatio@GAME@@QEAA@XZ
146410 - ??0DamageAttributeAbsMod_Poison@GAME@@QEAA@$$QEAV01@@Z
1463B0 - ??0DamageAttributeAbsMod_Poison@GAME@@QEAA@AEBV01@@Z
146330 - ??0DamageAttributeAbsMod_Poison@GAME@@QEAA@XZ
146960 - ??0DamageAttributeAbsMod_Sleep@GAME@@QEAA@$$QEAV01@@Z
146900 - ??0DamageAttributeAbsMod_Sleep@GAME@@QEAA@AEBV01@@Z
146880 - ??0DamageAttributeAbsMod_Sleep@GAME@@QEAA@XZ
146A70 - ??0DamageAttributeAbsMod_Stun@GAME@@QEAA@$$QEAV01@@Z
146A10 - ??0DamageAttributeAbsMod_Stun@GAME@@QEAA@AEBV01@@Z
146990 - ??0DamageAttributeAbsMod_Stun@GAME@@QEAA@XZ
1471E0 - ??0DamageAttributeAbsMod_TotalDamageModifier@GAME@@QEAA@$$QEAV01@@Z
147180 - ??0DamageAttributeAbsMod_TotalDamageModifier@GAME@@QEAA@AEBV01@@Z
147100 - ??0DamageAttributeAbsMod_TotalDamageModifier@GAME@@QEAA@XZ
146C90 - ??0DamageAttributeAbsMod_Trap@GAME@@QEAA@$$QEAV01@@Z
146C30 - ??0DamageAttributeAbsMod_Trap@GAME@@QEAA@AEBV01@@Z
146BB0 - ??0DamageAttributeAbsMod_Trap@GAME@@QEAA@XZ
143E10 - ??0DamageAttributeAbs_Aether@GAME@@QEAA@$$QEAV01@@Z
143DE0 - ??0DamageAttributeAbs_Aether@GAME@@QEAA@AEBV01@@Z
143DB0 - ??0DamageAttributeAbs_Aether@GAME@@QEAA@XZ
14EC90 - ??0DamageAttributeAbs_BonusPhysical@GAME@@QEAA@$$QEAV01@@Z
14EC60 - ??0DamageAttributeAbs_BonusPhysical@GAME@@QEAA@AEBV01@@Z
14EC30 - ??0DamageAttributeAbs_BonusPhysical@GAME@@QEAA@XZ
143D80 - ??0DamageAttributeAbs_Chaos@GAME@@QEAA@$$QEAV01@@Z
143D50 - ??0DamageAttributeAbs_Chaos@GAME@@QEAA@AEBV01@@Z
143D20 - ??0DamageAttributeAbs_Chaos@GAME@@QEAA@XZ
143AB0 - ??0DamageAttributeAbs_Cold@GAME@@QEAA@$$QEAV01@@Z
143A80 - ??0DamageAttributeAbs_Cold@GAME@@QEAA@AEBV01@@Z
143A50 - ??0DamageAttributeAbs_Cold@GAME@@QEAA@XZ
1433D0 - ??0DamageAttributeAbs_Confusion@GAME@@QEAA@$$QEAV01@@Z
1433A0 - ??0DamageAttributeAbs_Confusion@GAME@@QEAA@AEBV01@@Z
143350 - ??0DamageAttributeAbs_Confusion@GAME@@QEAA@XZ
143270 - ??0DamageAttributeAbs_Convert@GAME@@QEAA@$$QEAV01@@Z
143240 - ??0DamageAttributeAbs_Convert@GAME@@QEAA@AEBV01@@Z
1431F0 - ??0DamageAttributeAbs_Convert@GAME@@QEAA@XZ
143510 - ??0DamageAttributeAbs_Disruption@GAME@@QEAA@$$QEAV01@@Z
1434E0 - ??0DamageAttributeAbs_Disruption@GAME@@QEAA@AEBV01@@Z
143490 - ??0DamageAttributeAbs_Disruption@GAME@@QEAA@XZ
143EA0 - ??0DamageAttributeAbs_ElementalDamage@GAME@@QEAA@$$QEAV01@@Z
143E70 - ??0DamageAttributeAbs_ElementalDamage@GAME@@QEAA@AEBV01@@Z
143E40 - ??0DamageAttributeAbs_ElementalDamage@GAME@@QEAA@XZ
143320 - ??0DamageAttributeAbs_Fear@GAME@@QEAA@$$QEAV01@@Z
1432F0 - ??0DamageAttributeAbs_Fear@GAME@@QEAA@AEBV01@@Z
1432A0 - ??0DamageAttributeAbs_Fear@GAME@@QEAA@XZ
143B40 - ??0DamageAttributeAbs_Fire@GAME@@QEAA@$$QEAV01@@Z
143B10 - ??0DamageAttributeAbs_Fire@GAME@@QEAA@AEBV01@@Z
143AE0 - ??0DamageAttributeAbs_Fire@GAME@@QEAA@XZ
143CF0 - ??0DamageAttributeAbs_Life@GAME@@QEAA@$$QEAV01@@Z
143CC0 - ??0DamageAttributeAbs_Life@GAME@@QEAA@AEBV01@@Z
143C90 - ??0DamageAttributeAbs_Life@GAME@@QEAA@XZ
1435A0 - ??0DamageAttributeAbs_LifeLeech@GAME@@QEAA@$$QEAV01@@Z
143570 - ??0DamageAttributeAbs_LifeLeech@GAME@@QEAA@AEBV01@@Z
143540 - ??0DamageAttributeAbs_LifeLeech@GAME@@QEAA@XZ
143C60 - ??0DamageAttributeAbs_Lightning@GAME@@QEAA@$$QEAV01@@Z
143C30 - ??0DamageAttributeAbs_Lightning@GAME@@QEAA@AEBV01@@Z
143C00 - ??0DamageAttributeAbs_Lightning@GAME@@QEAA@XZ
14EE00 - ??0DamageAttributeAbs_ManaBurn@GAME@@QEAA@$$QEAV01@@Z
14EDA0 - ??0DamageAttributeAbs_ManaBurn@GAME@@QEAA@AEBV01@@Z
14ECC0 - ??0DamageAttributeAbs_ManaBurn@GAME@@QEAA@XZ
143460 - ??0DamageAttributeAbs_PercentCurrentLife@GAME@@QEAA@$$QEAV01@@Z
143430 - ??0DamageAttributeAbs_PercentCurrentLife@GAME@@QEAA@AEBV01@@Z
143400 - ??0DamageAttributeAbs_PercentCurrentLife@GAME@@QEAA@XZ
143A20 - ??0DamageAttributeAbs_Pierce@GAME@@QEAA@$$QEAV01@@Z
1439F0 - ??0DamageAttributeAbs_Pierce@GAME@@QEAA@AEBV01@@Z
1439C0 - ??0DamageAttributeAbs_Pierce@GAME@@QEAA@XZ
143BD0 - ??0DamageAttributeAbs_Poison@GAME@@QEAA@$$QEAV01@@Z
143BA0 - ??0DamageAttributeAbs_Poison@GAME@@QEAA@AEBV01@@Z
143B70 - ??0DamageAttributeAbs_Poison@GAME@@QEAA@XZ
1431C0 - ??0DamageAttributeAbs_Taunt@GAME@@QEAA@$$QEAV01@@Z
143190 - ??0DamageAttributeAbs_Taunt@GAME@@QEAA@AEBV01@@Z
143140 - ??0DamageAttributeAbs_Taunt@GAME@@QEAA@XZ
14DAB0 - ??0DamageAttributeDur@GAME@@QEAA@$$QEAV01@@Z
14DBC0 - ??0DamageAttributeDur@GAME@@QEAA@AEBV01@@Z
14DCF0 - ??0DamageAttributeDur@GAME@@QEAA@XZ
14DB90 - ??0DamageAttributeDurBase@GAME@@QEAA@$$QEAV01@@Z
14DC30 - ??0DamageAttributeDurBase@GAME@@QEAA@AEBV01@@Z
14DE60 - ??0DamageAttributeDurBase@GAME@@QEAA@XZ
14D9B0 - ??0DamageAttributeDurBaseElemental@GAME@@QEAA@$$QEAV01@@Z
14D9E0 - ??0DamageAttributeDurBaseElemental@GAME@@QEAA@AEBV01@@Z
14DA10 - ??0DamageAttributeDurBaseElemental@GAME@@QEAA@XZ
14DB90 - ??0DamageAttributeDurBonus@GAME@@QEAA@$$QEAV01@@Z
14DC30 - ??0DamageAttributeDurBonus@GAME@@QEAA@AEBV01@@Z
14DE60 - ??0DamageAttributeDurBonus@GAME@@QEAA@XZ
14D9B0 - ??0DamageAttributeDurBonusElemental@GAME@@QEAA@$$QEAV01@@Z
14D9E0 - ??0DamageAttributeDurBonusElemental@GAME@@QEAA@AEBV01@@Z
14DA10 - ??0DamageAttributeDurBonusElemental@GAME@@QEAA@XZ
14D8B0 - ??0DamageAttributeDurFixed@GAME@@QEAA@$$QEAV01@@Z
14D8E0 - ??0DamageAttributeDurFixed@GAME@@QEAA@AEBV01@@Z
14D910 - ??0DamageAttributeDurFixed@GAME@@QEAA@XZ
14D260 - ??0DamageAttributeDurMod@GAME@@QEAA@$$QEAV01@@Z
14D340 - ??0DamageAttributeDurMod@GAME@@QEAA@AEBV01@@Z
14D440 - ??0DamageAttributeDurMod@GAME@@QEAA@XZ
14D160 - ??0DamageAttributeDurModBase@GAME@@QEAA@$$QEAV01@@Z
14D190 - ??0DamageAttributeDurModBase@GAME@@QEAA@AEBV01@@Z
14D1C0 - ??0DamageAttributeDurModBase@GAME@@QEAA@XZ
14D160 - ??0DamageAttributeDurModBonus@GAME@@QEAA@$$QEAV01@@Z
14D190 - ??0DamageAttributeDurModBonus@GAME@@QEAA@AEBV01@@Z
14D1C0 - ??0DamageAttributeDurModBonus@GAME@@QEAA@XZ
147E40 - ??0DamageAttributeDurMod_Aether@GAME@@QEAA@$$QEAV01@@Z
147E10 - ??0DamageAttributeDurMod_Aether@GAME@@QEAA@AEBV01@@Z
147D70 - ??0DamageAttributeDurMod_Aether@GAME@@QEAA@XZ
147F40 - ??0DamageAttributeDurMod_AttackSpeed@GAME@@QEAA@$$QEAV01@@Z
147F10 - ??0DamageAttributeDurMod_AttackSpeed@GAME@@QEAA@AEBV01@@Z
147E70 - ??0DamageAttributeDurMod_AttackSpeed@GAME@@QEAA@XZ
147740 - ??0DamageAttributeDurMod_Bleeding@GAME@@QEAA@$$QEAV01@@Z
147710 - ??0DamageAttributeDurMod_Bleeding@GAME@@QEAA@AEBV01@@Z
147670 - ??0DamageAttributeDurMod_Bleeding@GAME@@QEAA@XZ
147D40 - ??0DamageAttributeDurMod_Chaos@GAME@@QEAA@$$QEAV01@@Z
147D10 - ??0DamageAttributeDurMod_Chaos@GAME@@QEAA@AEBV01@@Z
147C70 - ??0DamageAttributeDurMod_Chaos@GAME@@QEAA@XZ
147840 - ??0DamageAttributeDurMod_Cold@GAME@@QEAA@$$QEAV01@@Z
147810 - ??0DamageAttributeDurMod_Cold@GAME@@QEAA@AEBV01@@Z
147770 - ??0DamageAttributeDurMod_Cold@GAME@@QEAA@XZ
148540 - ??0DamageAttributeDurMod_DefensiveAbility@GAME@@QEAA@$$QEAV01@@Z
148510 - ??0DamageAttributeDurMod_DefensiveAbility@GAME@@QEAA@AEBV01@@Z
148470 - ??0DamageAttributeDurMod_DefensiveAbility@GAME@@QEAA@XZ
147940 - ??0DamageAttributeDurMod_Fire@GAME@@QEAA@$$QEAV01@@Z
147910 - ??0DamageAttributeDurMod_Fire@GAME@@QEAA@AEBV01@@Z
147870 - ??0DamageAttributeDurMod_Fire@GAME@@QEAA@XZ
147C40 - ??0DamageAttributeDurMod_Life@GAME@@QEAA@$$QEAV01@@Z
147C10 - ??0DamageAttributeDurMod_Life@GAME@@QEAA@AEBV01@@Z
147B70 - ??0DamageAttributeDurMod_Life@GAME@@QEAA@XZ
148240 - ??0DamageAttributeDurMod_LifeLeach@GAME@@QEAA@$$QEAV01@@Z
148210 - ??0DamageAttributeDurMod_LifeLeach@GAME@@QEAA@AEBV01@@Z
148170 - ??0DamageAttributeDurMod_LifeLeach@GAME@@QEAA@XZ
147B40 - ??0DamageAttributeDurMod_Lightning@GAME@@QEAA@$$QEAV01@@Z
147B10 - ??0DamageAttributeDurMod_Lightning@GAME@@QEAA@AEBV01@@Z
147A70 - ??0DamageAttributeDurMod_Lightning@GAME@@QEAA@XZ
148340 - ??0DamageAttributeDurMod_ManaLeach@GAME@@QEAA@$$QEAV01@@Z
148310 - ??0DamageAttributeDurMod_ManaLeach@GAME@@QEAA@AEBV01@@Z
148270 - ??0DamageAttributeDurMod_ManaLeach@GAME@@QEAA@XZ
148440 - ??0DamageAttributeDurMod_OffensiveAbility@GAME@@QEAA@$$QEAV01@@Z
148410 - ??0DamageAttributeDurMod_OffensiveAbility@GAME@@QEAA@AEBV01@@Z
148370 - ??0DamageAttributeDurMod_OffensiveAbility@GAME@@QEAA@XZ
148640 - ??0DamageAttributeDurMod_OffensiveReduction@GAME@@QEAA@$$QEAV01@@Z
148610 - ??0DamageAttributeDurMod_OffensiveReduction@GAME@@QEAA@AEBV01@@Z
148570 - ??0DamageAttributeDurMod_OffensiveReduction@GAME@@QEAA@XZ
147510 - ??0DamageAttributeDurMod_Physical@GAME@@QEAA@$$QEAV01@@Z
1474E0 - ??0DamageAttributeDurMod_Physical@GAME@@QEAA@AEBV01@@Z
147430 - ??0DamageAttributeDurMod_Physical@GAME@@QEAA@XZ
147A40 - ??0DamageAttributeDurMod_Poison@GAME@@QEAA@$$QEAV01@@Z
147A10 - ??0DamageAttributeDurMod_Poison@GAME@@QEAA@AEBV01@@Z
147970 - ??0DamageAttributeDurMod_Poison@GAME@@QEAA@XZ
148140 - ??0DamageAttributeDurMod_RunSpeed@GAME@@QEAA@$$QEAV01@@Z
148110 - ??0DamageAttributeDurMod_RunSpeed@GAME@@QEAA@AEBV01@@Z
148070 - ??0DamageAttributeDurMod_RunSpeed@GAME@@QEAA@XZ
148040 - ??0DamageAttributeDurMod_SpellCastSpeed@GAME@@QEAA@$$QEAV01@@Z
148010 - ??0DamageAttributeDurMod_SpellCastSpeed@GAME@@QEAA@AEBV01@@Z
147F70 - ??0DamageAttributeDurMod_SpellCastSpeed@GAME@@QEAA@XZ
1448E0 - ??0DamageAttributeDur_Aether@GAME@@QEAA@$$QEAV01@@Z
1448B0 - ??0DamageAttributeDur_Aether@GAME@@QEAA@AEBV01@@Z
144810 - ??0DamageAttributeDur_Aether@GAME@@QEAA@XZ
148840 - ??0DamageAttributeDur_AttackSpeed@GAME@@QEAA@$$QEAV01@@Z
148810 - ??0DamageAttributeDur_AttackSpeed@GAME@@QEAA@AEBV01@@Z
148770 - ??0DamageAttributeDur_AttackSpeed@GAME@@QEAA@XZ
1441E0 - ??0DamageAttributeDur_Bleeding@GAME@@QEAA@$$QEAV01@@Z
1441B0 - ??0DamageAttributeDur_Bleeding@GAME@@QEAA@AEBV01@@Z
144110 - ??0DamageAttributeDur_Bleeding@GAME@@QEAA@XZ
1447E0 - ??0DamageAttributeDur_Chaos@GAME@@QEAA@$$QEAV01@@Z
1447B0 - ??0DamageAttributeDur_Chaos@GAME@@QEAA@AEBV01@@Z
144710 - ??0DamageAttributeDur_Chaos@GAME@@QEAA@XZ
1442E0 - ??0DamageAttributeDur_Cold@GAME@@QEAA@$$QEAV01@@Z
1442B0 - ??0DamageAttributeDur_Cold@GAME@@QEAA@AEBV01@@Z
144210 - ??0DamageAttributeDur_Cold@GAME@@QEAA@XZ
144CE0 - ??0DamageAttributeDur_DefensiveAbility@GAME@@QEAA@$$QEAV01@@Z
144CB0 - ??0DamageAttributeDur_DefensiveAbility@GAME@@QEAA@AEBV01@@Z
144C10 - ??0DamageAttributeDur_DefensiveAbility@GAME@@QEAA@XZ
144EE0 - ??0DamageAttributeDur_DefensiveReduction@GAME@@QEAA@$$QEAV01@@Z
144EB0 - ??0DamageAttributeDur_DefensiveReduction@GAME@@QEAA@AEBV01@@Z
144E10 - ??0DamageAttributeDur_DefensiveReduction@GAME@@QEAA@XZ
1450E0 - ??0DamageAttributeDur_ElementalReductionPercent@GAME@@QEAA@$$QEAV01@@Z
1450B0 - ??0DamageAttributeDur_ElementalReductionPercent@GAME@@QEAA@AEBV01@@Z
145010 - ??0DamageAttributeDur_ElementalReductionPercent@GAME@@QEAA@XZ
1458E0 - ??0DamageAttributeDur_ElementalResistanceReductionAbsolute@GAME@@QEAA@$$QEAV01@@Z
1458B0 - ??0DamageAttributeDur_ElementalResistanceReductionAbsolute@GAME@@QEAA@AEBV01@@Z
145810 - ??0DamageAttributeDur_ElementalResistanceReductionAbsolute@GAME@@QEAA@XZ
1457E0 - ??0DamageAttributeDur_ElementalResistanceReductionPercent@GAME@@QEAA@$$QEAV01@@Z
1457B0 - ??0DamageAttributeDur_ElementalResistanceReductionPercent@GAME@@QEAA@AEBV01@@Z
145710 - ??0DamageAttributeDur_ElementalResistanceReductionPercent@GAME@@QEAA@XZ
1443E0 - ??0DamageAttributeDur_Fire@GAME@@QEAA@$$QEAV01@@Z
1443B0 - ??0DamageAttributeDur_Fire@GAME@@QEAA@AEBV01@@Z
144310 - ??0DamageAttributeDur_Fire@GAME@@QEAA@XZ
1459E0 - ??0DamageAttributeDur_Fumble@GAME@@QEAA@$$QEAV01@@Z
1459B0 - ??0DamageAttributeDur_Fumble@GAME@@QEAA@AEBV01@@Z
145910 - ??0DamageAttributeDur_Fumble@GAME@@QEAA@XZ
1446E0 - ??0DamageAttributeDur_Life@GAME@@QEAA@$$QEAV01@@Z
1446B0 - ??0DamageAttributeDur_Life@GAME@@QEAA@AEBV01@@Z
144610 - ??0DamageAttributeDur_Life@GAME@@QEAA@XZ
1449E0 - ??0DamageAttributeDur_LifeLeach@GAME@@QEAA@$$QEAV01@@Z
1449B0 - ??0DamageAttributeDur_LifeLeach@GAME@@QEAA@AEBV01@@Z
144910 - ??0DamageAttributeDur_LifeLeach@GAME@@QEAA@XZ
1445E0 - ??0DamageAttributeDur_Lightning@GAME@@QEAA@$$QEAV01@@Z
1445B0 - ??0DamageAttributeDur_Lightning@GAME@@QEAA@AEBV01@@Z
144510 - ??0DamageAttributeDur_Lightning@GAME@@QEAA@XZ
144AE0 - ??0DamageAttributeDur_ManaLeach@GAME@@QEAA@$$QEAV01@@Z
144AB0 - ??0DamageAttributeDur_ManaLeach@GAME@@QEAA@AEBV01@@Z
144A10 - ??0DamageAttributeDur_ManaLeach@GAME@@QEAA@XZ
144BE0 - ??0DamageAttributeDur_OffensiveAbility@GAME@@QEAA@$$QEAV01@@Z
144BB0 - ??0DamageAttributeDur_OffensiveAbility@GAME@@QEAA@AEBV01@@Z
144B10 - ??0DamageAttributeDur_OffensiveAbility@GAME@@QEAA@XZ
144DE0 - ??0DamageAttributeDur_OffensiveReduction@GAME@@QEAA@$$QEAV01@@Z
144DB0 - ??0DamageAttributeDur_OffensiveReduction@GAME@@QEAA@AEBV01@@Z
144D10 - ??0DamageAttributeDur_OffensiveReduction@GAME@@QEAA@XZ
143FB0 - ??0DamageAttributeDur_Physical@GAME@@QEAA@$$QEAV01@@Z
143F80 - ??0DamageAttributeDur_Physical@GAME@@QEAA@AEBV01@@Z
143ED0 - ??0DamageAttributeDur_Physical@GAME@@QEAA@XZ
144FE0 - ??0DamageAttributeDur_PhysicalReductionPercent@GAME@@QEAA@$$QEAV01@@Z
144FB0 - ??0DamageAttributeDur_PhysicalReductionPercent@GAME@@QEAA@AEBV01@@Z
144F10 - ??0DamageAttributeDur_PhysicalReductionPercent@GAME@@QEAA@XZ
1456E0 - ??0DamageAttributeDur_PhysicalResistanceReductionAbsolute@GAME@@QEAA@$$QEAV01@@Z
1456B0 - ??0DamageAttributeDur_PhysicalResistanceReductionAbsolute@GAME@@QEAA@AEBV01@@Z
145610 - ??0DamageAttributeDur_PhysicalResistanceReductionAbsolute@GAME@@QEAA@XZ
1455E0 - ??0DamageAttributeDur_PhysicalResistanceReductionPercent@GAME@@QEAA@$$QEAV01@@Z
1455B0 - ??0DamageAttributeDur_PhysicalResistanceReductionPercent@GAME@@QEAA@AEBV01@@Z
145510 - ??0DamageAttributeDur_PhysicalResistanceReductionPercent@GAME@@QEAA@XZ
1444E0 - ??0DamageAttributeDur_Poison@GAME@@QEAA@$$QEAV01@@Z
1444B0 - ??0DamageAttributeDur_Poison@GAME@@QEAA@AEBV01@@Z
144410 - ??0DamageAttributeDur_Poison@GAME@@QEAA@XZ
145AE0 - ??0DamageAttributeDur_ProjectileFumble@GAME@@QEAA@$$QEAV01@@Z
145AB0 - ??0DamageAttributeDur_ProjectileFumble@GAME@@QEAA@AEBV01@@Z
145A10 - ??0DamageAttributeDur_ProjectileFumble@GAME@@QEAA@XZ
148A40 - ??0DamageAttributeDur_RunSpeed@GAME@@QEAA@$$QEAV01@@Z
148A10 - ??0DamageAttributeDur_RunSpeed@GAME@@QEAA@AEBV01@@Z
148970 - ??0DamageAttributeDur_RunSpeed@GAME@@QEAA@XZ
148940 - ??0DamageAttributeDur_SpellCastSpeed@GAME@@QEAA@$$QEAV01@@Z
148910 - ??0DamageAttributeDur_SpellCastSpeed@GAME@@QEAA@AEBV01@@Z
148870 - ??0DamageAttributeDur_SpellCastSpeed@GAME@@QEAA@XZ
1452E0 - ??0DamageAttributeDur_TotalDamageReductionAbsolute@GAME@@QEAA@$$QEAV01@@Z
1452B0 - ??0DamageAttributeDur_TotalDamageReductionAbsolute@GAME@@QEAA@AEBV01@@Z
145210 - ??0DamageAttributeDur_TotalDamageReductionAbsolute@GAME@@QEAA@XZ
1451E0 - ??0DamageAttributeDur_TotalDamageReductionPercent@GAME@@QEAA@$$QEAV01@@Z
1451B0 - ??0DamageAttributeDur_TotalDamageReductionPercent@GAME@@QEAA@AEBV01@@Z
145110 - ??0DamageAttributeDur_TotalDamageReductionPercent@GAME@@QEAA@XZ
1454E0 - ??0DamageAttributeDur_TotalResistanceReductionAbsolute@GAME@@QEAA@$$QEAV01@@Z
1454B0 - ??0DamageAttributeDur_TotalResistanceReductionAbsolute@GAME@@QEAA@AEBV01@@Z
145410 - ??0DamageAttributeDur_TotalResistanceReductionAbsolute@GAME@@QEAA@XZ
1453E0 - ??0DamageAttributeDur_TotalResistanceReductionPercent@GAME@@QEAA@$$QEAV01@@Z
1453B0 - ??0DamageAttributeDur_TotalResistanceReductionPercent@GAME@@QEAA@AEBV01@@Z
145310 - ??0DamageAttributeDur_TotalResistanceReductionPercent@GAME@@QEAA@XZ
148740 - ??0DamageAttributeDur_TotalSpeed@GAME@@QEAA@$$QEAV01@@Z
148710 - ??0DamageAttributeDur_TotalSpeed@GAME@@QEAA@AEBV01@@Z
148670 - ??0DamageAttributeDur_TotalSpeed@GAME@@QEAA@XZ
14E0B0 - ??0DamageAttributeInfluence@GAME@@QEAA@$$QEAV01@@Z
14E0E0 - ??0DamageAttributeInfluence@GAME@@QEAA@AEBV01@@Z
1425B0 - ??0DamageAttributeInfluence@GAME@@QEAA@XZ
447290 - ??0DamageAttributeInfluenceHidden@GAME@@QEAA@$$QEAV01@@Z
447260 - ??0DamageAttributeInfluenceHidden@GAME@@QEAA@AEBV01@@Z
447210 - ??0DamageAttributeInfluenceHidden@GAME@@QEAA@XZ
14E510 - ??0DamageAttributeReflex@GAME@@QEAA@$$QEAV01@@Z
14E6F0 - ??0DamageAttributeReflex@GAME@@QEAA@AEBV01@@Z
142350 - ??0DamageAttributeReflex@GAME@@QEAA@XZ
142FB0 - ??0DamageAttributeReflex_Freeze@GAME@@QEAA@$$QEAV01@@Z
142F80 - ??0DamageAttributeReflex_Freeze@GAME@@QEAA@AEBV01@@Z
142F30 - ??0DamageAttributeReflex_Freeze@GAME@@QEAA@XZ
142F00 - ??0DamageAttributeReflex_Knockdown@GAME@@QEAA@$$QEAV01@@Z
142ED0 - ??0DamageAttributeReflex_Knockdown@GAME@@QEAA@AEBV01@@Z
142E80 - ??0DamageAttributeReflex_Knockdown@GAME@@QEAA@XZ
143060 - ??0DamageAttributeReflex_Petrify@GAME@@QEAA@$$QEAV01@@Z
143030 - ??0DamageAttributeReflex_Petrify@GAME@@QEAA@AEBV01@@Z
142FE0 - ??0DamageAttributeReflex_Petrify@GAME@@QEAA@XZ
142D20 - ??0DamageAttributeReflex_Sleep@GAME@@QEAA@$$QEAV01@@Z
142CF0 - ??0DamageAttributeReflex_Sleep@GAME@@QEAA@AEBV01@@Z
142CA0 - ??0DamageAttributeReflex_Sleep@GAME@@QEAA@XZ
142E50 - ??0DamageAttributeReflex_Stun@GAME@@QEAA@$$QEAV01@@Z
142E20 - ??0DamageAttributeReflex_Stun@GAME@@QEAA@AEBV01@@Z
142DD0 - ??0DamageAttributeReflex_Stun@GAME@@QEAA@XZ
143110 - ??0DamageAttributeReflex_Trap@GAME@@QEAA@$$QEAV01@@Z
1430E0 - ??0DamageAttributeReflex_Trap@GAME@@QEAA@AEBV01@@Z
143090 - ??0DamageAttributeReflex_Trap@GAME@@QEAA@XZ
321E0 - ??0DamageAttributeStore@GAME@@QEAA@AEBV01@@Z
1523A0 - ??0DamageAttributeStore@GAME@@QEAA@XZ
4472C0 - ??0DamageAttributeStore_Equipment@GAME@@QEAA@$$QEAV01@@Z
4472C0 - ??0DamageAttributeStore_Equipment@GAME@@QEAA@AEBV01@@Z
27CFA0 - ??0DamageAttributeStore_Equipment@GAME@@QEAA@XZ
34E90 - ??0DamageAttributeStore_Max@GAME@@QEAA@$$QEAV01@@Z
34E90 - ??0DamageAttributeStore_Max@GAME@@QEAA@AEBV01@@Z
35030 - ??0DamageAttributeStore_Max@GAME@@QEAA@XZ
34EC0 - ??0DamageAttributeStore_Min@GAME@@QEAA@$$QEAV01@@Z
34EC0 - ??0DamageAttributeStore_Min@GAME@@QEAA@AEBV01@@Z
35080 - ??0DamageAttributeStore_Min@GAME@@QEAA@XZ
32110 - ??0DamageAttributeStore_Skill@GAME@@QEAA@$$QEAV01@@Z
32110 - ??0DamageAttributeStore_Skill@GAME@@QEAA@AEBV01@@Z
34260 - ??0DamageAttributeStore_Skill@GAME@@QEAA@XZ
14E720 - ??0DamageAttribute_BasePhysical@GAME@@QEAA@AEBV01@@Z
14EFE0 - ??0DamageAttribute_BasePhysical@GAME@@QEAA@XZ
14EA20 - ??0DamageAttribute_Physical@GAME@@QEAA@$$QEAV01@@Z
14E9B0 - ??0DamageAttribute_Physical@GAME@@QEAA@AEBV01@@Z
14E870 - ??0DamageAttribute_Physical@GAME@@QEAA@XZ
3FE00 - ??0DeathHandler@GAME@@QEAA@AEBV01@@Z
184280 - ??0DeathHandler@GAME@@QEAA@PEAVCharacter@1@@Z
44C770 - ??0DecBaseDexterityConfigCmdPacket@GAME@@QEAA@AEBV01@@Z
2B8B60 - ??0DecBaseDexterityConfigCmdPacket@GAME@@QEAA@XZ
44C810 - ??0DecBaseIntelligenceConfigCmdPacket@GAME@@QEAA@AEBV01@@Z
2B8DC0 - ??0DecBaseIntelligenceConfigCmdPacket@GAME@@QEAA@XZ
44C8B0 - ??0DecBaseLifeConfigCmdPacket@GAME@@QEAA@AEBV01@@Z
2B9070 - ??0DecBaseLifeConfigCmdPacket@GAME@@QEAA@XZ
44C950 - ??0DecBaseManaConfigCmdPacket@GAME@@QEAA@AEBV01@@Z
2B9370 - ??0DecBaseManaConfigCmdPacket@GAME@@QEAA@XZ
44C6D0 - ??0DecBaseStrengthConfigCmdPacket@GAME@@QEAA@AEBV01@@Z
2B8900 - ??0DecBaseStrengthConfigCmdPacket@GAME@@QEAA@XZ
188960 - ??0Decoration@GAME@@QEAA@XZ
3BAC0 - ??0DecrementBaseDexterityConfigCmd@GAME@@QEAA@AEBV01@@Z
A3480 - ??0DecrementBaseDexterityConfigCmd@GAME@@QEAA@I@Z
3BC60 - ??0DecrementBaseIntelligenceConfigCmd@GAME@@QEAA@AEBV01@@Z
A36E0 - ??0DecrementBaseIntelligenceConfigCmd@GAME@@QEAA@I@Z
3BE10 - ??0DecrementBaseLifeConfigCmd@GAME@@QEAA@AEBV01@@Z
A39A0 - ??0DecrementBaseLifeConfigCmd@GAME@@QEAA@IH@Z
3BFD0 - ??0DecrementBaseManaConfigCmd@GAME@@QEAA@AEBV01@@Z
A3CA0 - ??0DecrementBaseManaConfigCmd@GAME@@QEAA@I@Z
3B920 - ??0DecrementBaseStrengthConfigCmd@GAME@@QEAA@AEBV01@@Z
A3220 - ??0DecrementBaseStrengthConfigCmd@GAME@@QEAA@I@Z
3FED0 - ??0DefaultDeathHandler@GAME@@QEAA@AEBV01@@Z
184600 - ??0DefaultDeathHandler@GAME@@QEAA@PEAVCharacter@1@@Z
191460 - ??0DefenseAttribute@GAME@@QEAA@AEBV01@@Z
189B90 - ??0DefenseAttribute@GAME@@QEAA@XZ
1913E0 - ??0DefenseAttributeAbs@GAME@@QEAA@$$QEAV01@@Z
191530 - ??0DefenseAttributeAbs@GAME@@QEAA@AEBV01@@Z
190F10 - ??0DefenseAttributeAbs@GAME@@QEAA@XZ
191100 - ??0DefenseAttributeAbsMod@GAME@@QEAA@$$QEAV01@@Z
191130 - ??0DefenseAttributeAbsMod@GAME@@QEAA@AEBV01@@Z
190E70 - ??0DefenseAttributeAbsMod@GAME@@QEAA@XZ
18CCA0 - ??0DefenseAttributeAbsMod_Absorption@GAME@@QEAA@$$QEAV01@@Z
18CC70 - ??0DefenseAttributeAbsMod_Absorption@GAME@@QEAA@AEBV01@@Z
18F810 - ??0DefenseAttributeAbsMod_Absorption@GAME@@QEAA@XZ
18D180 - ??0DefenseAttributeAbsMod_Aether@GAME@@QEAA@$$QEAV01@@Z
18D150 - ??0DefenseAttributeAbsMod_Aether@GAME@@QEAA@AEBV01@@Z
18FD00 - ??0DefenseAttributeAbsMod_Aether@GAME@@QEAA@XZ
18CEE0 - ??0DefenseAttributeAbsMod_Bleeding@GAME@@QEAA@$$QEAV01@@Z
18CEB0 - ??0DefenseAttributeAbsMod_Bleeding@GAME@@QEAA@AEBV01@@Z
18FA60 - ??0DefenseAttributeAbsMod_Bleeding@GAME@@QEAA@XZ
18D120 - ??0DefenseAttributeAbsMod_Chaos@GAME@@QEAA@$$QEAV01@@Z
18D0F0 - ??0DefenseAttributeAbsMod_Chaos@GAME@@QEAA@AEBV01@@Z
18FCA0 - ??0DefenseAttributeAbsMod_Chaos@GAME@@QEAA@XZ
18CF40 - ??0DefenseAttributeAbsMod_Cold@GAME@@QEAA@$$QEAV01@@Z
18CF10 - ??0DefenseAttributeAbsMod_Cold@GAME@@QEAA@AEBV01@@Z
18FAC0 - ??0DefenseAttributeAbsMod_Cold@GAME@@QEAA@XZ
18D2A0 - ??0DefenseAttributeAbsMod_Elemental@GAME@@QEAA@$$QEAV01@@Z
18D270 - ??0DefenseAttributeAbsMod_Elemental@GAME@@QEAA@AEBV01@@Z
18FE20 - ??0DefenseAttributeAbsMod_Elemental@GAME@@QEAA@XZ
18CFA0 - ??0DefenseAttributeAbsMod_Fire@GAME@@QEAA@$$QEAV01@@Z
18CF70 - ??0DefenseAttributeAbsMod_Fire@GAME@@QEAA@AEBV01@@Z
18FB20 - ??0DefenseAttributeAbsMod_Fire@GAME@@QEAA@XZ
18CDC0 - ??0DefenseAttributeAbsMod_Knockdown@GAME@@QEAA@$$QEAV01@@Z
18CD90 - ??0DefenseAttributeAbsMod_Knockdown@GAME@@QEAA@AEBV01@@Z
18F940 - ??0DefenseAttributeAbsMod_Knockdown@GAME@@QEAA@XZ
18D0C0 - ??0DefenseAttributeAbsMod_Life@GAME@@QEAA@$$QEAV01@@Z
18D090 - ??0DefenseAttributeAbsMod_Life@GAME@@QEAA@AEBV01@@Z
18FC40 - ??0DefenseAttributeAbsMod_Life@GAME@@QEAA@XZ
18D1E0 - ??0DefenseAttributeAbsMod_LifeLeach@GAME@@QEAA@$$QEAV01@@Z
18D1B0 - ??0DefenseAttributeAbsMod_LifeLeach@GAME@@QEAA@AEBV01@@Z
18FD60 - ??0DefenseAttributeAbsMod_LifeLeach@GAME@@QEAA@XZ
18D060 - ??0DefenseAttributeAbsMod_Lightning@GAME@@QEAA@$$QEAV01@@Z
18D030 - ??0DefenseAttributeAbsMod_Lightning@GAME@@QEAA@AEBV01@@Z
18FBE0 - ??0DefenseAttributeAbsMod_Lightning@GAME@@QEAA@XZ
18D240 - ??0DefenseAttributeAbsMod_ManaLeach@GAME@@QEAA@$$QEAV01@@Z
18D210 - ??0DefenseAttributeAbsMod_ManaLeach@GAME@@QEAA@AEBV01@@Z
18FDC0 - ??0DefenseAttributeAbsMod_ManaLeach@GAME@@QEAA@XZ
18CE20 - ??0DefenseAttributeAbsMod_Physical@GAME@@QEAA@$$QEAV01@@Z
18CDF0 - ??0DefenseAttributeAbsMod_Physical@GAME@@QEAA@AEBV01@@Z
18F9A0 - ??0DefenseAttributeAbsMod_Physical@GAME@@QEAA@XZ
18CE80 - ??0DefenseAttributeAbsMod_Pierce@GAME@@QEAA@$$QEAV01@@Z
18CE50 - ??0DefenseAttributeAbsMod_Pierce@GAME@@QEAA@AEBV01@@Z
18FA00 - ??0DefenseAttributeAbsMod_Pierce@GAME@@QEAA@XZ
18D000 - ??0DefenseAttributeAbsMod_Poison@GAME@@QEAA@$$QEAV01@@Z
18CFD0 - ??0DefenseAttributeAbsMod_Poison@GAME@@QEAA@AEBV01@@Z
18FB80 - ??0DefenseAttributeAbsMod_Poison@GAME@@QEAA@XZ
18CC40 - ??0DefenseAttributeAbsMod_Protection@GAME@@QEAA@$$QEAV01@@Z
18CC10 - ??0DefenseAttributeAbsMod_Protection@GAME@@QEAA@AEBV01@@Z
18F7A0 - ??0DefenseAttributeAbsMod_Protection@GAME@@QEAA@XZ
18CD00 - ??0DefenseAttributeAbsMod_Sleep@GAME@@QEAA@$$QEAV01@@Z
18CCD0 - ??0DefenseAttributeAbsMod_Sleep@GAME@@QEAA@AEBV01@@Z
18F880 - ??0DefenseAttributeAbsMod_Sleep@GAME@@QEAA@XZ
18CD60 - ??0DefenseAttributeAbsMod_Stun@GAME@@QEAA@$$QEAV01@@Z
18CD30 - ??0DefenseAttributeAbsMod_Stun@GAME@@QEAA@AEBV01@@Z
18F8E0 - ??0DefenseAttributeAbsMod_Stun@GAME@@QEAA@XZ
191410 - ??0DefenseAttributeAbsRestricted@GAME@@QEAA@$$QEAV01@@Z
191630 - ??0DefenseAttributeAbsRestricted@GAME@@QEAA@AEBV01@@Z
190F60 - ??0DefenseAttributeAbsRestricted@GAME@@QEAA@XZ
18C100 - ??0DefenseAttributeAbs_Aether@GAME@@QEAA@$$QEAV01@@Z
18C0D0 - ??0DefenseAttributeAbs_Aether@GAME@@QEAA@AEBV01@@Z
18E7A0 - ??0DefenseAttributeAbs_Aether@GAME@@QEAA@XZ
18C430 - ??0DefenseAttributeAbs_Bleeding@GAME@@QEAA@$$QEAV01@@Z
18C400 - ??0DefenseAttributeAbs_Bleeding@GAME@@QEAA@AEBV01@@Z
18EA90 - ??0DefenseAttributeAbs_Bleeding@GAME@@QEAA@XZ
18C0A0 - ??0DefenseAttributeAbs_Chaos@GAME@@QEAA@$$QEAV01@@Z
18C070 - ??0DefenseAttributeAbs_Chaos@GAME@@QEAA@AEBV01@@Z
18E740 - ??0DefenseAttributeAbs_Chaos@GAME@@QEAA@XZ
18BEC0 - ??0DefenseAttributeAbs_Cold@GAME@@QEAA@$$QEAV01@@Z
18BE90 - ??0DefenseAttributeAbs_Cold@GAME@@QEAA@AEBV01@@Z
18E560 - ??0DefenseAttributeAbs_Cold@GAME@@QEAA@XZ
18BD30 - ??0DefenseAttributeAbs_Confusion@GAME@@QEAA@$$QEAV01@@Z
18BD00 - ??0DefenseAttributeAbs_Confusion@GAME@@QEAA@AEBV01@@Z
18E420 - ??0DefenseAttributeAbs_Confusion@GAME@@QEAA@XZ
18BC10 - ??0DefenseAttributeAbs_Convert@GAME@@QEAA@$$QEAV01@@Z
18BBE0 - ??0DefenseAttributeAbs_Convert@GAME@@QEAA@AEBV01@@Z
18E320 - ??0DefenseAttributeAbs_Convert@GAME@@QEAA@XZ
18C490 - ??0DefenseAttributeAbs_Disruption@GAME@@QEAA@$$QEAV01@@Z
18C460 - ??0DefenseAttributeAbs_Disruption@GAME@@QEAA@AEBV01@@Z
18EAF0 - ??0DefenseAttributeAbs_Disruption@GAME@@QEAA@XZ
18C520 - ??0DefenseAttributeAbs_ElementalResistance@GAME@@QEAA@$$QEAV01@@Z
18C4F0 - ??0DefenseAttributeAbs_ElementalResistance@GAME@@QEAA@AEBV01@@Z
18EB70 - ??0DefenseAttributeAbs_ElementalResistance@GAME@@QEAA@XZ
18BCA0 - ??0DefenseAttributeAbs_Fear@GAME@@QEAA@$$QEAV01@@Z
18BC70 - ??0DefenseAttributeAbs_Fear@GAME@@QEAA@AEBV01@@Z
18E3A0 - ??0DefenseAttributeAbs_Fear@GAME@@QEAA@XZ
18BF20 - ??0DefenseAttributeAbs_Fire@GAME@@QEAA@$$QEAV01@@Z
18BEF0 - ??0DefenseAttributeAbs_Fire@GAME@@QEAA@AEBV01@@Z
18E5C0 - ??0DefenseAttributeAbs_Fire@GAME@@QEAA@XZ
18B9D0 - ??0DefenseAttributeAbs_Freeze@GAME@@QEAA@$$QEAV01@@Z
18B9A0 - ??0DefenseAttributeAbs_Freeze@GAME@@QEAA@AEBV01@@Z
18E030 - ??0DefenseAttributeAbs_Freeze@GAME@@QEAA@XZ
18B940 - ??0DefenseAttributeAbs_Knockdown@GAME@@QEAA@$$QEAV01@@Z
18B910 - ??0DefenseAttributeAbs_Knockdown@GAME@@QEAA@AEBV01@@Z
18DF60 - ??0DefenseAttributeAbs_Knockdown@GAME@@QEAA@XZ
18C040 - ??0DefenseAttributeAbs_Life@GAME@@QEAA@$$QEAV01@@Z
18C010 - ??0DefenseAttributeAbs_Life@GAME@@QEAA@AEBV01@@Z
18E6E0 - ??0DefenseAttributeAbs_Life@GAME@@QEAA@XZ
18C160 - ??0DefenseAttributeAbs_LifeLeach@GAME@@QEAA@$$QEAV01@@Z
18C130 - ??0DefenseAttributeAbs_LifeLeach@GAME@@QEAA@AEBV01@@Z
18E800 - ??0DefenseAttributeAbs_LifeLeach@GAME@@QEAA@XZ
18BFE0 - ??0DefenseAttributeAbs_Lightning@GAME@@QEAA@$$QEAV01@@Z
18BFB0 - ??0DefenseAttributeAbs_Lightning@GAME@@QEAA@AEBV01@@Z
18E680 - ??0DefenseAttributeAbs_Lightning@GAME@@QEAA@XZ
18C280 - ??0DefenseAttributeAbs_ManaBurn@GAME@@QEAA@$$QEAV01@@Z
18C250 - ??0DefenseAttributeAbs_ManaBurn@GAME@@QEAA@AEBV01@@Z
18E900 - ??0DefenseAttributeAbs_ManaBurn@GAME@@QEAA@XZ
18C310 - ??0DefenseAttributeAbs_ManaBurnRatio@GAME@@QEAA@$$QEAV01@@Z
18C2E0 - ??0DefenseAttributeAbs_ManaBurnRatio@GAME@@QEAA@AEBV01@@Z
18E980 - ??0DefenseAttributeAbs_ManaBurnRatio@GAME@@QEAA@XZ
18C1F0 - ??0DefenseAttributeAbs_ManaLeach@GAME@@QEAA@$$QEAV01@@Z
18C1C0 - ??0DefenseAttributeAbs_ManaLeach@GAME@@QEAA@AEBV01@@Z
18E880 - ??0DefenseAttributeAbs_ManaLeach@GAME@@QEAA@XZ
18C3A0 - ??0DefenseAttributeAbs_PercentCurrentLife@GAME@@QEAA@$$QEAV01@@Z
18C370 - ??0DefenseAttributeAbs_PercentCurrentLife@GAME@@QEAA@AEBV01@@Z
18EA10 - ??0DefenseAttributeAbs_PercentCurrentLife@GAME@@QEAA@XZ
18C610 - ??0DefenseAttributeAbs_PercentReflectionResistance@GAME@@QEAA@$$QEAV01@@Z
18C5E0 - ??0DefenseAttributeAbs_PercentReflectionResistance@GAME@@QEAA@AEBV01@@Z
18EF50 - ??0DefenseAttributeAbs_PercentReflectionResistance@GAME@@QEAA@XZ
18BA60 - ??0DefenseAttributeAbs_Petrify@GAME@@QEAA@$$QEAV01@@Z
18BA30 - ??0DefenseAttributeAbs_Petrify@GAME@@QEAA@AEBV01@@Z
18E100 - ??0DefenseAttributeAbs_Petrify@GAME@@QEAA@XZ
18BDC0 - ??0DefenseAttributeAbs_Physical@GAME@@QEAA@$$QEAV01@@Z
18BD90 - ??0DefenseAttributeAbs_Physical@GAME@@QEAA@AEBV01@@Z
18E4A0 - ??0DefenseAttributeAbs_Physical@GAME@@QEAA@XZ
18BE60 - ??0DefenseAttributeAbs_Pierce@GAME@@QEAA@$$QEAV01@@Z
18BE30 - ??0DefenseAttributeAbs_Pierce@GAME@@QEAA@AEBV01@@Z
18E500 - ??0DefenseAttributeAbs_Pierce@GAME@@QEAA@XZ
18BF80 - ??0DefenseAttributeAbs_Poison@GAME@@QEAA@$$QEAV01@@Z
18BF50 - ??0DefenseAttributeAbs_Poison@GAME@@QEAA@AEBV01@@Z
18E620 - ??0DefenseAttributeAbs_Poison@GAME@@QEAA@XZ
18B720 - ??0DefenseAttributeAbs_Sleep@GAME@@QEAA@$$QEAV01@@Z
18B6F0 - ??0DefenseAttributeAbs_Sleep@GAME@@QEAA@AEBV01@@Z
18DE10 - ??0DefenseAttributeAbs_Sleep@GAME@@QEAA@XZ
18B8B0 - ??0DefenseAttributeAbs_Stun@GAME@@QEAA@$$QEAV01@@Z
18B880 - ??0DefenseAttributeAbs_Stun@GAME@@QEAA@AEBV01@@Z
18DE90 - ??0DefenseAttributeAbs_Stun@GAME@@QEAA@XZ
18BB80 - ??0DefenseAttributeAbs_Taunt@GAME@@QEAA@$$QEAV01@@Z
18BB50 - ??0DefenseAttributeAbs_Taunt@GAME@@QEAA@AEBV01@@Z
18E2A0 - ??0DefenseAttributeAbs_Taunt@GAME@@QEAA@XZ
18C580 - ??0DefenseAttributeAbs_TotalSpeed@GAME@@QEAA@$$QEAV01@@Z
18C550 - ??0DefenseAttributeAbs_TotalSpeed@GAME@@QEAA@AEBV01@@Z
18ED30 - ??0DefenseAttributeAbs_TotalSpeed@GAME@@QEAA@XZ
18BAF0 - ??0DefenseAttributeAbs_Trap@GAME@@QEAA@$$QEAV01@@Z
18BAC0 - ??0DefenseAttributeAbs_Trap@GAME@@QEAA@AEBV01@@Z
18E1D0 - ??0DefenseAttributeAbs_Trap@GAME@@QEAA@XZ
190FC0 - ??0DefenseAttributeDefenseCap@GAME@@QEAA@$$QEAV01@@Z
190FF0 - ??0DefenseAttributeDefenseCap@GAME@@QEAA@AEBV01@@Z
190DD0 - ??0DefenseAttributeDefenseCap@GAME@@QEAA@XZ
18D840 - ??0DefenseAttributeDefenseCap_Aether@GAME@@QEAA@$$QEAV01@@Z
18D810 - ??0DefenseAttributeDefenseCap_Aether@GAME@@QEAA@AEBV01@@Z
190520 - ??0DefenseAttributeDefenseCap_Aether@GAME@@QEAA@XZ
18DDE0 - ??0DefenseAttributeDefenseCap_All@GAME@@QEAA@$$QEAV01@@Z
18DDB0 - ??0DefenseAttributeDefenseCap_All@GAME@@QEAA@AEBV01@@Z
190AC0 - ??0DefenseAttributeDefenseCap_All@GAME@@QEAA@XZ
18DA80 - ??0DefenseAttributeDefenseCap_Bleeding@GAME@@QEAA@$$QEAV01@@Z
18DA50 - ??0DefenseAttributeDefenseCap_Bleeding@GAME@@QEAA@AEBV01@@Z
190760 - ??0DefenseAttributeDefenseCap_Bleeding@GAME@@QEAA@XZ
18D8A0 - ??0DefenseAttributeDefenseCap_Chaos@GAME@@QEAA@$$QEAV01@@Z
18D870 - ??0DefenseAttributeDefenseCap_Chaos@GAME@@QEAA@AEBV01@@Z
190580 - ??0DefenseAttributeDefenseCap_Chaos@GAME@@QEAA@XZ
18D900 - ??0DefenseAttributeDefenseCap_Cold@GAME@@QEAA@$$QEAV01@@Z
18D8D0 - ??0DefenseAttributeDefenseCap_Cold@GAME@@QEAA@AEBV01@@Z
1905E0 - ??0DefenseAttributeDefenseCap_Cold@GAME@@QEAA@XZ
18DAE0 - ??0DefenseAttributeDefenseCap_Disruption@GAME@@QEAA@$$QEAV01@@Z
18DAB0 - ??0DefenseAttributeDefenseCap_Disruption@GAME@@QEAA@AEBV01@@Z
1907C0 - ??0DefenseAttributeDefenseCap_Disruption@GAME@@QEAA@XZ
18D7E0 - ??0DefenseAttributeDefenseCap_Fire@GAME@@QEAA@$$QEAV01@@Z
18D7B0 - ??0DefenseAttributeDefenseCap_Fire@GAME@@QEAA@AEBV01@@Z
1904C0 - ??0DefenseAttributeDefenseCap_Fire@GAME@@QEAA@XZ
18DCC0 - ??0DefenseAttributeDefenseCap_Freeze@GAME@@QEAA@$$QEAV01@@Z
18DC90 - ??0DefenseAttributeDefenseCap_Freeze@GAME@@QEAA@AEBV01@@Z
1909A0 - ??0DefenseAttributeDefenseCap_Freeze@GAME@@QEAA@XZ
18DA20 - ??0DefenseAttributeDefenseCap_Life@GAME@@QEAA@$$QEAV01@@Z
18D9F0 - ??0DefenseAttributeDefenseCap_Life@GAME@@QEAA@AEBV01@@Z
190700 - ??0DefenseAttributeDefenseCap_Life@GAME@@QEAA@XZ
18DB40 - ??0DefenseAttributeDefenseCap_LifeLeach@GAME@@QEAA@$$QEAV01@@Z
18DB10 - ??0DefenseAttributeDefenseCap_LifeLeach@GAME@@QEAA@AEBV01@@Z
190820 - ??0DefenseAttributeDefenseCap_LifeLeach@GAME@@QEAA@XZ
18D960 - ??0DefenseAttributeDefenseCap_Lightning@GAME@@QEAA@$$QEAV01@@Z
18D930 - ??0DefenseAttributeDefenseCap_Lightning@GAME@@QEAA@AEBV01@@Z
190640 - ??0DefenseAttributeDefenseCap_Lightning@GAME@@QEAA@XZ
18DBA0 - ??0DefenseAttributeDefenseCap_ManaLeach@GAME@@QEAA@$$QEAV01@@Z
18DB70 - ??0DefenseAttributeDefenseCap_ManaLeach@GAME@@QEAA@AEBV01@@Z
190880 - ??0DefenseAttributeDefenseCap_ManaLeach@GAME@@QEAA@XZ
18DC60 - ??0DefenseAttributeDefenseCap_Petrify@GAME@@QEAA@$$QEAV01@@Z
18DC30 - ??0DefenseAttributeDefenseCap_Petrify@GAME@@QEAA@AEBV01@@Z
190940 - ??0DefenseAttributeDefenseCap_Petrify@GAME@@QEAA@XZ
18D720 - ??0DefenseAttributeDefenseCap_Physical@GAME@@QEAA@$$QEAV01@@Z
18D6F0 - ??0DefenseAttributeDefenseCap_Physical@GAME@@QEAA@AEBV01@@Z
190400 - ??0DefenseAttributeDefenseCap_Physical@GAME@@QEAA@XZ
18D780 - ??0DefenseAttributeDefenseCap_Pierce@GAME@@QEAA@$$QEAV01@@Z
18D750 - ??0DefenseAttributeDefenseCap_Pierce@GAME@@QEAA@AEBV01@@Z
190460 - ??0DefenseAttributeDefenseCap_Pierce@GAME@@QEAA@XZ
18D9C0 - ??0DefenseAttributeDefenseCap_Poison@GAME@@QEAA@$$QEAV01@@Z
18D990 - ??0DefenseAttributeDefenseCap_Poison@GAME@@QEAA@AEBV01@@Z
1906A0 - ??0DefenseAttributeDefenseCap_Poison@GAME@@QEAA@XZ
18DD80 - ??0DefenseAttributeDefenseCap_Sleep@GAME@@QEAA@$$QEAV01@@Z
18DD50 - ??0DefenseAttributeDefenseCap_Sleep@GAME@@QEAA@AEBV01@@Z
190A60 - ??0DefenseAttributeDefenseCap_Sleep@GAME@@QEAA@XZ
18DD20 - ??0DefenseAttributeDefenseCap_Stun@GAME@@QEAA@$$QEAV01@@Z
18DCF0 - ??0DefenseAttributeDefenseCap_Stun@GAME@@QEAA@AEBV01@@Z
190A00 - ??0DefenseAttributeDefenseCap_Stun@GAME@@QEAA@XZ
18DC00 - ??0DefenseAttributeDefenseCap_Trap@GAME@@QEAA@$$QEAV01@@Z
18DBD0 - ??0DefenseAttributeDefenseCap_Trap@GAME@@QEAA@AEBV01@@Z
1908E0 - ??0DefenseAttributeDefenseCap_Trap@GAME@@QEAA@XZ
1911A0 - ??0DefenseAttributeDur@GAME@@QEAA@$$QEAV01@@Z
1911D0 - ??0DefenseAttributeDur@GAME@@QEAA@AEBV01@@Z
190EC0 - ??0DefenseAttributeDur@GAME@@QEAA@XZ
191060 - ??0DefenseAttributeDurMod@GAME@@QEAA@$$QEAV01@@Z
191090 - ??0DefenseAttributeDurMod@GAME@@QEAA@AEBV01@@Z
190E20 - ??0DefenseAttributeDurMod@GAME@@QEAA@XZ
18D600 - ??0DefenseAttributeDurMod_Aether@GAME@@QEAA@$$QEAV01@@Z
18D5D0 - ??0DefenseAttributeDurMod_Aether@GAME@@QEAA@AEBV01@@Z
1902E0 - ??0DefenseAttributeDurMod_Aether@GAME@@QEAA@XZ
18D360 - ??0DefenseAttributeDurMod_Bleeding@GAME@@QEAA@$$QEAV01@@Z
18D330 - ??0DefenseAttributeDurMod_Bleeding@GAME@@QEAA@AEBV01@@Z
190040 - ??0DefenseAttributeDurMod_Bleeding@GAME@@QEAA@XZ
18D5A0 - ??0DefenseAttributeDurMod_Chaos@GAME@@QEAA@$$QEAV01@@Z
18D570 - ??0DefenseAttributeDurMod_Chaos@GAME@@QEAA@AEBV01@@Z
190280 - ??0DefenseAttributeDurMod_Chaos@GAME@@QEAA@XZ
18D3C0 - ??0DefenseAttributeDurMod_Cold@GAME@@QEAA@$$QEAV01@@Z
18D390 - ??0DefenseAttributeDurMod_Cold@GAME@@QEAA@AEBV01@@Z
1900A0 - ??0DefenseAttributeDurMod_Cold@GAME@@QEAA@XZ
18D420 - ??0DefenseAttributeDurMod_Fire@GAME@@QEAA@$$QEAV01@@Z
18D3F0 - ??0DefenseAttributeDurMod_Fire@GAME@@QEAA@AEBV01@@Z
190100 - ??0DefenseAttributeDurMod_Fire@GAME@@QEAA@XZ
18D540 - ??0DefenseAttributeDurMod_Life@GAME@@QEAA@$$QEAV01@@Z
18D510 - ??0DefenseAttributeDurMod_Life@GAME@@QEAA@AEBV01@@Z
190220 - ??0DefenseAttributeDurMod_Life@GAME@@QEAA@XZ
18D660 - ??0DefenseAttributeDurMod_LifeLeach@GAME@@QEAA@$$QEAV01@@Z
18D630 - ??0DefenseAttributeDurMod_LifeLeach@GAME@@QEAA@AEBV01@@Z
190340 - ??0DefenseAttributeDurMod_LifeLeach@GAME@@QEAA@XZ
18D4E0 - ??0DefenseAttributeDurMod_Lightning@GAME@@QEAA@$$QEAV01@@Z
18D4B0 - ??0DefenseAttributeDurMod_Lightning@GAME@@QEAA@AEBV01@@Z
1901C0 - ??0DefenseAttributeDurMod_Lightning@GAME@@QEAA@XZ
18D6C0 - ??0DefenseAttributeDurMod_ManaLeach@GAME@@QEAA@$$QEAV01@@Z
18D690 - ??0DefenseAttributeDurMod_ManaLeach@GAME@@QEAA@AEBV01@@Z
1903A0 - ??0DefenseAttributeDurMod_ManaLeach@GAME@@QEAA@XZ
18D300 - ??0DefenseAttributeDurMod_Physical@GAME@@QEAA@$$QEAV01@@Z
18D2D0 - ??0DefenseAttributeDurMod_Physical@GAME@@QEAA@AEBV01@@Z
18FFE0 - ??0DefenseAttributeDurMod_Physical@GAME@@QEAA@XZ
18D480 - ??0DefenseAttributeDurMod_Poison@GAME@@QEAA@$$QEAV01@@Z
18D450 - ??0DefenseAttributeDurMod_Poison@GAME@@QEAA@AEBV01@@Z
190160 - ??0DefenseAttributeDurMod_Poison@GAME@@QEAA@XZ
18C9A0 - ??0DefenseAttributeDur_Aether@GAME@@QEAA@$$QEAV01@@Z
18C970 - ??0DefenseAttributeDur_Aether@GAME@@QEAA@AEBV01@@Z
18F2F0 - ??0DefenseAttributeDur_Aether@GAME@@QEAA@XZ
18C700 - ??0DefenseAttributeDur_Bleeding@GAME@@QEAA@$$QEAV01@@Z
18C6D0 - ??0DefenseAttributeDur_Bleeding@GAME@@QEAA@AEBV01@@Z
18F050 - ??0DefenseAttributeDur_Bleeding@GAME@@QEAA@XZ
18C940 - ??0DefenseAttributeDur_Chaos@GAME@@QEAA@$$QEAV01@@Z
18C910 - ??0DefenseAttributeDur_Chaos@GAME@@QEAA@AEBV01@@Z
18F290 - ??0DefenseAttributeDur_Chaos@GAME@@QEAA@XZ
18C760 - ??0DefenseAttributeDur_Cold@GAME@@QEAA@$$QEAV01@@Z
18C730 - ??0DefenseAttributeDur_Cold@GAME@@QEAA@AEBV01@@Z
18F0B0 - ??0DefenseAttributeDur_Cold@GAME@@QEAA@XZ
18C7C0 - ??0DefenseAttributeDur_Fire@GAME@@QEAA@$$QEAV01@@Z
18C790 - ??0DefenseAttributeDur_Fire@GAME@@QEAA@AEBV01@@Z
18F110 - ??0DefenseAttributeDur_Fire@GAME@@QEAA@XZ
18C8E0 - ??0DefenseAttributeDur_Life@GAME@@QEAA@$$QEAV01@@Z
18C8B0 - ??0DefenseAttributeDur_Life@GAME@@QEAA@AEBV01@@Z
18F230 - ??0DefenseAttributeDur_Life@GAME@@QEAA@XZ
18CA00 - ??0DefenseAttributeDur_LifeLeach@GAME@@QEAA@$$QEAV01@@Z
18C9D0 - ??0DefenseAttributeDur_LifeLeach@GAME@@QEAA@AEBV01@@Z
18F350 - ??0DefenseAttributeDur_LifeLeach@GAME@@QEAA@XZ
18C880 - ??0DefenseAttributeDur_Lightning@GAME@@QEAA@$$QEAV01@@Z
18C850 - ??0DefenseAttributeDur_Lightning@GAME@@QEAA@AEBV01@@Z
18F1D0 - ??0DefenseAttributeDur_Lightning@GAME@@QEAA@XZ
18CA60 - ??0DefenseAttributeDur_ManaLeach@GAME@@QEAA@$$QEAV01@@Z
18CA30 - ??0DefenseAttributeDur_ManaLeach@GAME@@QEAA@AEBV01@@Z
18F3B0 - ??0DefenseAttributeDur_ManaLeach@GAME@@QEAA@XZ
18C6A0 - ??0DefenseAttributeDur_Physical@GAME@@QEAA@$$QEAV01@@Z
18C670 - ??0DefenseAttributeDur_Physical@GAME@@QEAA@AEBV01@@Z
18EFF0 - ??0DefenseAttributeDur_Physical@GAME@@QEAA@XZ
18C820 - ??0DefenseAttributeDur_Poison@GAME@@QEAA@$$QEAV01@@Z
18C7F0 - ??0DefenseAttributeDur_Poison@GAME@@QEAA@AEBV01@@Z
18F170 - ??0DefenseAttributeDur_Poison@GAME@@QEAA@XZ
18CB20 - ??0DefenseAttributeMisc_BlockAmountModifier@GAME@@QEAA@$$QEAV01@@Z
18CAF0 - ??0DefenseAttributeMisc_BlockAmountModifier@GAME@@QEAA@AEBV01@@Z
18F550 - ??0DefenseAttributeMisc_BlockAmountModifier@GAME@@QEAA@XZ
18CAC0 - ??0DefenseAttributeMisc_BlockModifier@GAME@@QEAA@$$QEAV01@@Z
18CA90 - ??0DefenseAttributeMisc_BlockModifier@GAME@@QEAA@AEBV01@@Z
18F410 - ??0DefenseAttributeMisc_BlockModifier@GAME@@QEAA@XZ
18CB80 - ??0DefenseAttributeMisc_Reflect@GAME@@QEAA@$$QEAV01@@Z
18CB50 - ??0DefenseAttributeMisc_Reflect@GAME@@QEAA@AEBV01@@Z
18F640 - ??0DefenseAttributeMisc_Reflect@GAME@@QEAA@XZ
18CBE0 - ??0DefenseAttributeMisc_ReflectModifier@GAME@@QEAA@$$QEAV01@@Z
18CBB0 - ??0DefenseAttributeMisc_ReflectModifier@GAME@@QEAA@AEBV01@@Z
18F6B0 - ??0DefenseAttributeMisc_ReflectModifier@GAME@@QEAA@XZ
32380 - ??0DefenseAttributeStore@GAME@@QEAA@AEBV01@@Z
1932D0 - ??0DefenseAttributeStore@GAME@@QEAA@XZ
447370 - ??0DefenseAttributeStore_Character@GAME@@QEAA@$$QEAV01@@Z
447370 - ??0DefenseAttributeStore_Character@GAME@@QEAA@AEBV01@@Z
7A240 - ??0DefenseAttributeStore_Character@GAME@@QEAA@XZ
447320 - ??0DefenseAttributeStore_Equipment@GAME@@QEAA@$$QEAV01@@Z
447320 - ??0DefenseAttributeStore_Equipment@GAME@@QEAA@AEBV01@@Z
27CF30 - ??0DefenseAttributeStore_Equipment@GAME@@QEAA@XZ
34DF0 - ??0DefenseAttributeStore_Max@GAME@@QEAA@$$QEAV01@@Z
34DF0 - ??0DefenseAttributeStore_Max@GAME@@QEAA@AEBV01@@Z
34FF0 - ??0DefenseAttributeStore_Max@GAME@@QEAA@XZ
34E40 - ??0DefenseAttributeStore_Min@GAME@@QEAA@$$QEAV01@@Z
34E40 - ??0DefenseAttributeStore_Min@GAME@@QEAA@AEBV01@@Z
35010 - ??0DefenseAttributeStore_Min@GAME@@QEAA@XZ
32460 - ??0DefenseAttributeStore_Skill@GAME@@QEAA@$$QEAV01@@Z
32460 - ??0DefenseAttributeStore_Skill@GAME@@QEAA@AEBV01@@Z
341A0 - ??0DefenseAttributeStore_Skill@GAME@@QEAA@XZ
191880 - ??0DefenseAttribute_BaseProtectionAbsorption@GAME@@QEAA@$$QEAV01@@Z
1917C0 - ??0DefenseAttribute_BaseProtectionAbsorption@GAME@@QEAA@AEBV01@@Z
191E50 - ??0DefenseAttribute_BaseProtectionAbsorption@GAME@@QEAA@XZ
191C30 - ??0DefenseAttribute_SkillProtectionAbsorption@GAME@@QEAA@$$QEAV01@@Z
191C00 - ??0DefenseAttribute_SkillProtectionAbsorption@GAME@@QEAA@AEBV01@@Z
191B80 - ??0DefenseAttribute_SkillProtectionAbsorption@GAME@@QEAA@XZ
191370 - ??0DefenseAttribute_Typical@GAME@@QEAA@$$QEAV01@@Z
1914D0 - ??0DefenseAttribute_Typical@GAME@@QEAA@AEBV01@@Z
189CB0 - ??0DefenseAttribute_Typical@GAME@@QEAA@XZ
1E6E20 - ??0DestroyGravestonePacket@GAME@@QEAA@AEBV01@@Z
2CA2C0 - ??0DestroyGravestonePacket@GAME@@QEAA@XZ
1E6F30 - ??0DestroyItemTeleportPacket@GAME@@QEAA@AEBV01@@Z
2CACA0 - ??0DestroyItemTeleportPacket@GAME@@QEAA@XZ
1BBA40 - ??0Destructible@GAME@@QEAA@XZ
41A40 - ??0DestructibleHookPack@GAME@@QEAA@AEBV01@@Z
1BFC90 - ??0DestructibleHookPack@GAME@@QEAA@XZ
3B3E0 - ??0DetachItemConfigCmd@GAME@@QEAA@AEBV01@@Z
A2A90 - ??0DetachItemConfigCmd@GAME@@QEAA@II@Z
44BD70 - ??0DetachItemConfigCmdPacket@GAME@@QEAA@AEBV01@@Z
2B55E0 - ??0DetachItemConfigCmdPacket@GAME@@QEAA@XZ
4538B0 - ??0DialogManager@GAME@@QEAA@AEBV01@@Z
1BFCE0 - ??0DialogManager@GAME@@QEAA@XZ
44F2C0 - ??0DieAction@GAME@@QEAA@AEBV01@@Z
734F0 - ??0DieAction@GAME@@QEAA@IAEBV?$vector@I@mem@@_N@Z
452F50 - ??0DiePacket@GAME@@QEAA@AEBV01@@Z
2D8C00 - ??0DiePacket@GAME@@QEAA@XZ
1E7A30 - ??0DifficultyRampUpdatePacket@GAME@@QEAA@AEBV01@@Z
2CC690 - ??0DifficultyRampUpdatePacket@GAME@@QEAA@XZ
1E8250 - ??0DisengageContainerPacket@GAME@@QEAA@AEBV01@@Z
2CD3D0 - ??0DisengageContainerPacket@GAME@@QEAA@XZ
1F1890 - ??0DisengageEndlessShrinePacket@GAME@@QEAA@AEBV01@@Z
2E2670 - ??0DisengageEndlessShrinePacket@GAME@@QEAA@XZ
1E7F80 - ??0DisengageNpcPacket@GAME@@QEAA@AEBV01@@Z
2CCFE0 - ??0DisengageNpcPacket@GAME@@QEAA@XZ
1E5CB0 - ??0DisengageShrinePacket@GAME@@QEAA@AEBV01@@Z
2CD7F0 - ??0DisengageShrinePacket@GAME@@QEAA@XZ
400D0 - ??0DissolveActorDeathHandler@GAME@@QEAA@AEBV01@@Z
1850E0 - ??0DissolveActorDeathHandler@GAME@@QEAA@PEAVCharacter@1@@Z
1F1F90 - ??0DungeonProgressToClientPacket@GAME@@QEAA@AEBV01@@Z
2E0D60 - ??0DungeonProgressToClientPacket@GAME@@QEAA@XZ
1F2100 - ??0DungeonProgressToServerPacket@GAME@@QEAA@AEBV01@@Z
2E0AF0 - ??0DungeonProgressToServerPacket@GAME@@QEAA@XZ
1F1C80 - ??0DungeonSoundPacket@GAME@@QEAA@AEBV01@@Z
2E1E30 - ??0DungeonSoundPacket@GAME@@QEAA@XZ
44A020 - ??0DurationDamageManager@GAME@@QEAA@AEBV01@@Z
1CE870 - ??0DurationDamageManager@GAME@@QEAA@XZ
1D7670 - ??0DynamicTeleporter@GAME@@QEAA@XZ
3D920 - ??0EnchanterDismantleConfigCmd@GAME@@QEAA@AEBV01@@Z
A6190 - ??0EnchanterDismantleConfigCmd@GAME@@QEAA@IIIII@Z
44D9A0 - ??0EnchanterDismantleConfigCmdPacket@GAME@@QEAA@AEBV01@@Z
2BD980 - ??0EnchanterDismantleConfigCmdPacket@GAME@@QEAA@XZ
3D800 - ??0EnchanterRecoveryConfigCmd@GAME@@QEAA@AEBV01@@Z
A5D70 - ??0EnchanterRecoveryConfigCmd@GAME@@QEAA@III_N0@Z
44D8B0 - ??0EnchanterRecoveryConfigCmdPacket@GAME@@QEAA@AEBV01@@Z
2BD480 - ??0EnchanterRecoveryConfigCmdPacket@GAME@@QEAA@XZ
3DA40 - ??0EnchanterTinkerConfigCmd@GAME@@QEAA@AEBV01@@Z
A6550 - ??0EnchanterTinkerConfigCmd@GAME@@QEAA@IIV?$basic_string@DU?$char_traits@D@std@@V?$allocator@D@2@@std@@I@Z
44DA20 - ??0EnchanterTinkerConfigCmdPacket@GAME@@QEAA@AEBV01@@Z
2BDBA0 - ??0EnchanterTinkerConfigCmdPacket@GAME@@QEAA@XZ
1C1EB0 - ??0EndlessBuffShrine@GAME@@QEAA@XZ
451520 - ??0EndlessDungeon_Generator@GAME@@QEAA@AEBV01@@Z
1C31C0 - ??0EndlessDungeon_Generator@GAME@@QEAA@XZ
1E8070 - ??0EngageContainerRequestPacket@GAME@@QEAA@AEBV01@@Z
2CD130 - ??0EngageContainerRequestPacket@GAME@@QEAA@XZ
1E8160 - ??0EngageContainerResponsePacket@GAME@@QEAA@AEBV01@@Z
2CD280 - ??0EngageContainerResponsePacket@GAME@@QEAA@XZ
1F1A80 - ??0EngageEndlessShrineRequestPacket@GAME@@QEAA@AEBV01@@Z
2E23A0 - ??0EngageEndlessShrineRequestPacket@GAME@@QEAA@XZ
1F1980 - ??0EngageEndlessShrineResponsePacket@GAME@@QEAA@AEBV01@@Z
2E24F0 - ??0EngageEndlessShrineResponsePacket@GAME@@QEAA@XZ
44F320 - ??0EngageNpcAction@GAME@@QEAA@AEBV01@@Z
74590 - ??0EngageNpcAction@GAME@@QEAA@II_N0@Z
453270 - ??0EngageNpcPacket@GAME@@QEAA@AEBV01@@Z
2D96D0 - ??0EngageNpcPacket@GAME@@QEAA@XZ
1E7D20 - ??0EngageNpcRequestPacket@GAME@@QEAA@AEBV01@@Z
2CCB30 - ??0EngageNpcRequestPacket@GAME@@QEAA@XZ
1E7E80 - ??0EngageNpcResponsePacket@GAME@@QEAA@AEBV01@@Z
2CCE90 - ??0EngageNpcResponsePacket@GAME@@QEAA@XZ
1E5A70 - ??0EngageShrineRequestPacket@GAME@@QEAA@AEBV01@@Z
2CD520 - ??0EngageShrineRequestPacket@GAME@@QEAA@XZ
1E5B60 - ??0EngageShrineResponsePacket@GAME@@QEAA@AEBV01@@Z
2CD670 - ??0EngageShrineResponsePacket@GAME@@QEAA@XZ
1D8D10 - ??0EquipManager@GAME@@QEAA@XZ
1DD490 - ??0EquipManagerContainer@GAME@@QEAA@PEAVItem@1@W4EquipLocations@1@@Z
1B910 - ??0EquipmentCtrl@GAME@@QEAA@AEBV01@@Z
1DD8B0 - ??0EquipmentCtrl@GAME@@QEAA@XZ
1E5940 - ??0ExperienceNotificationPacket@GAME@@QEAA@AEBV01@@Z
2C8BC0 - ??0ExperienceNotificationPacket@GAME@@QEAA@XZ
1E4130 - ??0FactionManager@GAME@@QEAA@XZ
C9EF0 - ??0FactionPack@GAME@@QEAA@AEBV01@@Z
1F56C0 - ??0FactionPack@GAME@@QEAA@W4FactionType@1@@Z
1F5520 - ??0FactionPack@GAME@@QEAA@XZ
1F3100 - ??0FactionToClientPacket@GAME@@QEAA@AEBV01@@Z
2C0B30 - ??0FactionToClientPacket@GAME@@QEAA@XZ
401F0 - ??0FadeActorDeathHandler@GAME@@QEAA@AEBV01@@Z
185900 - ??0FadeActorDeathHandler@GAME@@QEAA@PEAVCharacter@1@@Z
1F8C80 - ??0FilterCharacterAction@GAME@@QEAA@$$QEAV01@@Z
1F8C80 - ??0FilterCharacterAction@GAME@@QEAA@AEBV01@@Z
1F8C80 - ??0FilterCharacterAction@GAME@@QEAA@XZ
1F8C90 - ??0FilterGetAllPlayers@GAME@@QEAA@$$QEAV01@@Z
1F8C90 - ??0FilterGetAllPlayers@GAME@@QEAA@AEBV01@@Z
1F8C90 - ??0FilterGetAllPlayers@GAME@@QEAA@XZ
1F8CE0 - ??0FilterGetPlayerSpawnPoint@GAME@@QEAA@$$QEAV01@@Z
1F8CE0 - ??0FilterGetPlayerSpawnPoint@GAME@@QEAA@AEBV01@@Z
1F8CE0 - ??0FilterGetPlayerSpawnPoint@GAME@@QEAA@XZ
1F8C80 - ??0FilterMountAction@GAME@@QEAA@$$QEAV01@@Z
1F8C80 - ??0FilterMountAction@GAME@@QEAA@AEBV01@@Z
1F8C80 - ??0FilterMountAction@GAME@@QEAA@XZ
1F8C80 - ??0FilterMountedCharacterAction@GAME@@QEAA@$$QEAV01@@Z
1F8C80 - ??0FilterMountedCharacterAction@GAME@@QEAA@AEBV01@@Z
1F8C80 - ??0FilterMountedCharacterAction@GAME@@QEAA@XZ
1F8DB0 - ??0FixedActor@GAME@@QEAA@XZ
1F9330 - ??0FixedDoor@GAME@@QEAA@XZ
1FAEA0 - ??0FixedItem@GAME@@QEAA@XZ
1FD420 - ??0FixedItemBlastContainer@GAME@@QEAA@XZ
1FE5C0 - ??0FixedItemContainer@GAME@@QEAA@XZ
1FE4A0 - ??0FixedItemContainerController@GAME@@QEAA@AEBV01@@Z
1FFEC0 - ??0FixedItemContainerController@GAME@@QEAA@XZ
1FFE00 - ??0FixedItemController@GAME@@QEAA@AEBV01@@Z
2001D0 - ??0FixedItemController@GAME@@QEAA@XZ
201BC0 - ??0FixedItemDoor@GAME@@QEAA@XZ
200A30 - ??0FixedItemDoorBase@GAME@@QEAA@XZ
2008D0 - ??0FixedItemDoorController@GAME@@QEAA@AEBV01@@Z
202600 - ??0FixedItemDoorController@GAME@@QEAA@XZ
202260 - ??0FixedItemDoorSwapping@GAME@@QEAA@XZ
202B40 - ??0FixedItemGravestone@GAME@@QEAA@XZ
203AC0 - ??0FixedItemQuestObject@GAME@@QEAA@XZ
204690 - ??0FixedItemShrine@GAME@@QEAA@XZ
2044B0 - ??0FixedItemShrineController@GAME@@QEAA@AEBV01@@Z
206630 - ??0FixedItemShrineController@GAME@@QEAA@XZ
AF830 - ??0FixedItemSkill@GAME@@QEAA@AEBV01@@Z
206BC0 - ??0FixedItemSkill@GAME@@QEAA@XZ
1FD2F0 - ??0FixedItemSkillTargetConfigCmd@GAME@@QEAA@AEBV01@@Z
1FE250 - ??0FixedItemSkillTargetConfigCmd@GAME@@QEAA@IIAEBV?$vector@I@mem@@@Z
44E060 - ??0FixedItemSkillTargetConfigCmdPacket@GAME@@QEAA@AEBV01@@Z
2BF9E0 - ??0FixedItemSkillTargetConfigCmdPacket@GAME@@QEAA@XZ
AFA20 - ??0FixedItemSkill_Buff@GAME@@QEAA@AEBV01@@Z
206FA0 - ??0FixedItemSkill_Buff@GAME@@QEAA@XZ
AFBB0 - ??0FixedItemSkill_SpawnMonster@GAME@@QEAA@AEBV01@@Z
2076E0 - ??0FixedItemSkill_SpawnMonster@GAME@@QEAA@XZ
1FD090 - ??0FixedItemStateChangeConfigCmd@GAME@@QEAA@AEBV01@@Z
1FDEE0 - ??0FixedItemStateChangeConfigCmd@GAME@@QEAA@IW4FixedItem_State@1@I_N@Z
44DEA0 - ??0FixedItemStateChangeConfigCmdPacket@GAME@@QEAA@AEBV01@@Z
2BF0A0 - ??0FixedItemStateChangeConfigCmdPacket@GAME@@QEAA@XZ
1FD180 - ??0FixedItemTargetConfigCmd@GAME@@QEAA@AEBV01@@Z
1FE090 - ??0FixedItemTargetConfigCmd@GAME@@QEAA@IIAEBV?$vector@I@mem@@@Z
44DF80 - ??0FixedItemTargetConfigCmdPacket@GAME@@QEAA@AEBV01@@Z
2BF450 - ??0FixedItemTargetConfigCmdPacket@GAME@@QEAA@XZ
207AD0 - ??0FixedItemTeleport@GAME@@QEAA@XZ
208DF0 - ??0FixedItemTyphonPortal@GAME@@QEAA@XZ
209A20 - ??0FixedItemWell@GAME@@QEAA@XZ
209B90 - ??0FixedLever@GAME@@QEAA@XZ
20AB70 - ??0FlameBeam@GAME@@IEAA@XZ
1F1E50 - ??0FloorProgressToClientPacket@GAME@@QEAA@AEBV01@@Z
2E1BE0 - ??0FloorProgressToClientPacket@GAME@@QEAA@XZ
452120 - ??0FrustumUpdatePacket@GAME@@QEAA@AEBV01@@Z
2D6020 - ??0FrustumUpdatePacket@GAME@@QEAA@XZ
20C1B0 - ??0Fx@GAME@@QEAA@XZ
20C590 - ??0FxMesh@GAME@@QEAA@XZ
20DDE0 - ??0FxPak@GAME@@QEAA@XZ
255D60 - ??0GMIActor@GAME@@QEAA@XZ
2561A0 - ??0GMIActor_Icy@GAME@@QEAA@XZ
19480 - ??0GameActivity@GAME@@QEAA@XZ
1E7950 - ??0GameBalanceUpdatePacket@GAME@@QEAA@AEBV01@@Z
2CC590 - ??0GameBalanceUpdatePacket@GAME@@QEAA@XZ
20F0B0 - ??0GameCamera@GAME@@QEAA@XZ
1CC850 - ??0GameController@GAME@@QEAA@XZ
211550 - ??0GameEngine@GAME@@QEAA@XZ
1ECC00 - ??0GameEngineInboundInterface@GAME@@QEAA@AEBV01@@Z
24DAA0 - ??0GameEngineInboundInterface@GAME@@QEAA@XZ
1EA950 - ??0GameEngineNetworkInterface@GAME@@QEAA@AEBV01@@Z
249B50 - ??0GameEngineNetworkInterface@GAME@@QEAA@XZ
1ECB10 - ??0GameEngineOutboundInterface@GAME@@QEAA@AEBV01@@Z
24B290 - ??0GameEngineOutboundInterface@GAME@@QEAA@XZ
250D20 - ??0GameTextLine@GAME@@QEAA@W4GameTextClass@1@AEBV?$basic_string@DU?$char_traits@D@std@@V?$allocator@D@2@@std@@PEBVGraphicsTexture@1@@Z
250CC0 - ??0GameTextLine@GAME@@QEAA@W4GameTextClass@1@AEBV?$basic_string@GU?$char_traits@G@std@@V?$allocator@G@2@@std@@_NPEBVGraphicsTexture@1@@Z
254610 - ??0GameTextString@GAME@@QEAA@AEBV?$basic_string@DU?$char_traits@D@std@@V?$allocator@D@2@@std@@AEBV?$basic_string@GU?$char_traits@G@std@@V?$allocator@G@2@@3@_NHPEBVGraphicsTexture@1@@Z
1E7B10 - ??0GameWonPacket@GAME@@QEAA@AEBV01@@Z
2CC790 - ??0GameWonPacket@GAME@@QEAA@XZ
44A220 - ??0GarmentManager@GAME@@QEAA@AEBV01@@Z
2553B0 - ??0GarmentManager@GAME@@QEAA@XZ
2A4740 - ??0GibEffectEntity@GAME@@QEAA@XZ
1F2E40 - ??0GiveGoldPacket@GAME@@QEAA@AEBV01@@Z
2B4F60 - ??0GiveGoldPacket@GAME@@QEAA@XZ
2CB40 - ??0GoldGenerator@GAME@@QEAA@AEBV01@@Z
256890 - ??0GoldGenerator@GAME@@QEAA@XZ
257610 - ??0Guard@GAME@@QEAA@XZ
257750 - ??0HallOfFameCamera@GAME@@QEAA@XZ
2578D0 - ??0HallOfFameStand@GAME@@QEAA@XZ
2579D0 - ??0Hireling@GAME@@QEAA@XZ
41BB0 - ??0HotSlotOption@GAME@@QEAA@AEBV01@@Z
257B90 - ??0HotSlotOption@GAME@@QEAA@PEBV01@@Z
257B60 - ??0HotSlotOption@GAME@@QEAA@XZ
257C90 - ??0HotSlotOptionPotion@GAME@@AEAA@XZ
41C90 - ??0HotSlotOptionPotion@GAME@@QEAA@AEBV01@@Z
257CD0 - ??0HotSlotOptionPotion@GAME@@QEAA@PEBVHotSlotOption@1@@Z
257CB0 - ??0HotSlotOptionPotion@GAME@@QEAA@W4SLOT_TYPE@HotSlotOption@1@@Z
258530 - ??0HotSlotOptionScroll@GAME@@AEAA@XZ
2582D0 - ??0HotSlotOptionScroll@GAME@@QEAA@AEBV01@@Z
258590 - ??0HotSlotOptionScroll@GAME@@QEAA@AEBV?$basic_string@DU?$char_traits@D@std@@V?$allocator@D@2@@std@@@Z
258780 - ??0HotSlotOptionScroll@GAME@@QEAA@PEBVHotSlotOption@1@@Z
259090 - ??0HotSlotOptionSkill@GAME@@AEAA@XZ
134B80 - ??0HotSlotOptionSkill@GAME@@QEAA@AEBV01@@Z
2590B0 - ??0HotSlotOptionSkill@GAME@@QEAA@I@Z
2590F0 - ??0HotSlotOptionSkill@GAME@@QEAA@PEBVHotSlotOption@1@@Z
44EE40 - ??0IdleAction@GAME@@QEAA@AEBV01@@Z
6F190 - ??0IdleAction@GAME@@QEAA@I@Z
452400 - ??0IdleActionPacket@GAME@@QEAA@AEBV01@@Z
2D6BC0 - ??0IdleActionPacket@GAME@@QEAA@XZ
44F260 - ??0ImmobilizeAction@GAME@@QEAA@AEBV01@@Z
731D0 - ??0ImmobilizeAction@GAME@@QEAA@I@Z
452EB0 - ??0ImmobilizePacket@GAME@@QEAA@AEBV01@@Z
2D89A0 - ??0ImmobilizePacket@GAME@@QEAA@XZ
44C720 - ??0IncBaseDexterityConfigCmdPacket@GAME@@QEAA@AEBV01@@Z
2B8A30 - ??0IncBaseDexterityConfigCmdPacket@GAME@@QEAA@XZ
44C7C0 - ??0IncBaseIntelligenceConfigCmdPacket@GAME@@QEAA@AEBV01@@Z
2B8C90 - ??0IncBaseIntelligenceConfigCmdPacket@GAME@@QEAA@XZ
44C860 - ??0IncBaseLifeConfigCmdPacket@GAME@@QEAA@AEBV01@@Z
2B8EF0 - ??0IncBaseLifeConfigCmdPacket@GAME@@QEAA@XZ
44C900 - ??0IncBaseManaConfigCmdPacket@GAME@@QEAA@AEBV01@@Z
2B91F0 - ??0IncBaseManaConfigCmdPacket@GAME@@QEAA@XZ
44C640 - ??0IncBaseStrengthConfigCmdPacket@GAME@@QEAA@AEBV01@@Z
2B8730 - ??0IncBaseStrengthConfigCmdPacket@GAME@@QEAA@XZ
3B9F0 - ??0IncrementBaseDexterityConfigCmd@GAME@@QEAA@AEBV01@@Z
A3350 - ??0IncrementBaseDexterityConfigCmd@GAME@@QEAA@I@Z
3BB90 - ??0IncrementBaseIntelligenceConfigCmd@GAME@@QEAA@AEBV01@@Z
A35B0 - ??0IncrementBaseIntelligenceConfigCmd@GAME@@QEAA@I@Z
3BD30 - ??0IncrementBaseLifeConfigCmd@GAME@@QEAA@AEBV01@@Z
A3810 - ??0IncrementBaseLifeConfigCmd@GAME@@QEAA@I@Z
A3840 - ??0IncrementBaseLifeConfigCmd@GAME@@QEAA@IH@Z
3BEF0 - ??0IncrementBaseManaConfigCmd@GAME@@QEAA@AEBV01@@Z
A3B00 - ??0IncrementBaseManaConfigCmd@GAME@@QEAA@I@Z
A3B30 - ??0IncrementBaseManaConfigCmd@GAME@@QEAA@IH@Z
3B830 - ??0IncrementBaseStrengthConfigCmd@GAME@@QEAA@AEBV01@@Z
A30F0 - ??0IncrementBaseStrengthConfigCmd@GAME@@QEAA@I@Z
210F20 - ??0InspectHelperPacket@GAME@@QEAA@AEBV01@@Z
25A810 - ??0InspectHelperPacket@GAME@@QEAA@XZ
1E6330 - ??0InspectRequestPacket@GAME@@QEAA@AEBV01@@Z
2C9200 - ??0InspectRequestPacket@GAME@@QEAA@XZ
AF570 - ??0InteractableHookPack@GAME@@QEAA@AEBV01@@Z
1CC950 - ??0InteractableHookPack@GAME@@QEAA@XZ
448340 - ??0Inventory@GAME@@QEAA@AEBV01@@Z
25BC30 - ??0Inventory@GAME@@QEAA@XZ
138220 - ??0InventorySack@GAME@@QEAA@AEBV01@@Z
25CFF0 - ??0InventorySack@GAME@@QEAA@XZ
1F3420 - ??0InvitePartyConfigCmdPacket@GAME@@QEAA@AEBV01@@Z
2BFFE0 - ??0InvitePartyConfigCmdPacket@GAME@@QEAA@XZ
260500 - ??0Item@GAME@@QEAA@XZ
265710 - ??0ItemArtifact@GAME@@QEAA@XZ
2686A0 - ??0ItemArtifactFormula@GAME@@QEAA@XZ
26F570 - ??0ItemAttributeReset@GAME@@QEAA@XZ
26FE20 - ??0ItemCharm@GAME@@QEAA@XZ
26FF80 - ??0ItemDevotionReset@GAME@@QEAA@XZ
270850 - ??0ItemDifficultyUnlock@GAME@@QEAA@XZ
272790 - ??0ItemEnchantment@GAME@@QEAA@XZ
2747A0 - ??0ItemEquipment@GAME@@QEAA@XZ
27D1A0 - ??0ItemFactionBooster@GAME@@QEAA@XZ
27DA90 - ??0ItemFactionWarrant@GAME@@QEAA@XZ
447000 - ??0ItemHookPack@GAME@@QEAA@AEBV01@@Z
27E110 - ??0ItemHookPack@GAME@@QEAA@XZ
27E290 - ??0ItemNote@GAME@@QEAA@XZ
26EFD0 - ??0ItemRandomSetFormula@GAME@@QEAA@XZ
27F1D0 - ??0ItemRelic@GAME@@QEAA@XZ
40540 - ??0ItemSet@GAME@@QEAA@AEBV01@@Z
282D40 - ??0ItemSet@GAME@@QEAA@XZ
26EA90 - ??0ItemSetFormula@GAME@@QEAA@XZ
288B10 - ??0ItemTransmuter@GAME@@QEAA@XZ
289B20 - ??0ItemTransmuterSet@GAME@@QEAA@XZ
1F3020 - ??0JoinPartyConfigCmdPacket@GAME@@QEAA@AEBV01@@Z
2BFE90 - ??0JoinPartyConfigCmdPacket@GAME@@QEAA@XZ
44F0D0 - ??0JumpAttackAction@GAME@@QEAA@AEBV01@@Z
71A20 - ??0JumpAttackAction@GAME@@QEAA@IAEBVWorldVec3@1@0IIMW4AnimationSet_Type@1@AEBVName@1@I_NAEBUTargetLeadingData@1@@Z
452A30 - ??0JumpToAttackPacket@GAME@@QEAA@AEBV01@@Z
2D7C60 - ??0JumpToAttackPacket@GAME@@QEAA@XZ
3B1170 - ??0LightOfRaMarker@GAME@@QEAA@XZ
28B4D0 - ??0Lightning@GAME@@QEAA@XZ
44EE70 - ??0LongIdleAction@GAME@@QEAA@AEBV01@@Z
6F650 - ??0LongIdleAction@GAME@@QEAA@I_N@Z
4524C0 - ??0LongIdleActionPacket@GAME@@QEAA@AEBV01@@Z
2D6D80 - ??0LongIdleActionPacket@GAME@@QEAA@XZ
44F3E0 - ??0LookAtAction@GAME@@QEAA@AEBV01@@Z
74010 - ??0LookAtAction@GAME@@QEAA@II@Z
4530D0 - ??0LookAtActionPacket@GAME@@QEAA@AEBV01@@Z
2D90F0 - ??0LookAtActionPacket@GAME@@QEAA@XZ
AFF70 - ??0LootBase@GAME@@QEAA@AEBV01@@Z
28D090 - ??0LootBase@GAME@@QEAA@XZ
28FCD0 - ??0LootItemTableRandomizer@GAME@@QEAA@AEBV01@@Z
290A80 - ??0LootItemTableRandomizer@GAME@@QEAA@XZ
28E770 - ??0LootItemTableRandomizer_Dyn@GAME@@QEAA@AEBV01@@Z
291A90 - ??0LootItemTableRandomizer_Dyn@GAME@@QEAA@XZ
B00D0 - ??0LootItemTable_DynWeight@GAME@@QEAA@AEBV01@@Z
28EA80 - ??0LootItemTable_DynWeight@GAME@@QEAA@XZ
B03F0 - ??0LootItemTable_FixedWeight@GAME@@QEAA@AEBV01@@Z
290000 - ??0LootItemTable_FixedWeight@GAME@@QEAA@XZ
44B790 - ??0LootLoader@GAME@@QEAA@AEBV01@@Z
2965C0 - ??0LootLoader@GAME@@QEAA@XZ
B05B0 - ??0LootMasterTable@GAME@@QEAA@AEBV01@@Z
296F10 - ??0LootMasterTable@GAME@@QEAA@XZ
A1FA0 - ??0LootRandomizerTable@GAME@@QEAA@AEBV01@@Z
2975E0 - ??0LootRandomizerTable@GAME@@QEAA@XZ
BC640 - ??0LootRandomizerTable_Dynamic@GAME@@QEAA@AEBV01@@Z
297A50 - ??0LootRandomizerTable_Dynamic@GAME@@QEAA@XZ
B0770 - ??0LootTable@GAME@@QEAA@AEBV01@@Z
29CD00 - ??0LootTable@GAME@@QEAA@XZ
1E5110 - ??0MarketArmor@GAME@@QEAA@AEBV01@@Z
29DC80 - ??0MarketArmor@GAME@@QEAA@XZ
1E5190 - ??0MarketArmor_Chest@GAME@@QEAA@AEBV01@@Z
29DDE0 - ??0MarketArmor_Chest@GAME@@QEAA@XZ
1E51D0 - ??0MarketArmor_Feet@GAME@@QEAA@AEBV01@@Z
29DE80 - ??0MarketArmor_Feet@GAME@@QEAA@XZ
1E5150 - ??0MarketArmor_Hands@GAME@@QEAA@AEBV01@@Z
29DD40 - ??0MarketArmor_Hands@GAME@@QEAA@XZ
1E5210 - ??0MarketArmor_Head@GAME@@QEAA@AEBV01@@Z
29DF20 - ??0MarketArmor_Head@GAME@@QEAA@XZ
1E5250 - ??0MarketArmor_Legs@GAME@@QEAA@AEBV01@@Z
29DFC0 - ??0MarketArmor_Legs@GAME@@QEAA@XZ
1E5310 - ??0MarketArmor_Shield@GAME@@QEAA@AEBV01@@Z
29E1A0 - ??0MarketArmor_Shield@GAME@@QEAA@XZ
1E52D0 - ??0MarketArmor_Shoulders@GAME@@QEAA@AEBV01@@Z
29E100 - ??0MarketArmor_Shoulders@GAME@@QEAA@XZ
1E5350 - ??0MarketArmor_Used@GAME@@QEAA@AEBV01@@Z
29E240 - ??0MarketArmor_Used@GAME@@QEAA@XZ
1E5290 - ??0MarketArmor_Waist@GAME@@QEAA@AEBV01@@Z
29E060 - ??0MarketArmor_Waist@GAME@@QEAA@XZ
1E7310 - ??0MarketC2SPurchaseRequestPacket@GAME@@QEAA@AEBV01@@Z
2CB3F0 - ??0MarketC2SPurchaseRequestPacket@GAME@@QEAA@XZ
1E71A0 - ??0MarketC2SSellBackPacket@GAME@@QEAA@AEBV01@@Z
2CAEC0 - ??0MarketC2SSellBackPacket@GAME@@QEAA@XZ
1E70C0 - ??0MarketC2SUpdateRequestPacket@GAME@@QEAA@AEBV01@@Z
2CADC0 - ??0MarketC2SUpdateRequestPacket@GAME@@QEAA@XZ
1E4D00 - ??0MarketMiniMart@GAME@@QEAA@AEBV01@@Z
2A2480 - ??0MarketMiniMart@GAME@@QEAA@XZ
1E5410 - ??0MarketMisc_Amulet@GAME@@QEAA@AEBV01@@Z
2A32C0 - ??0MarketMisc_Amulet@GAME@@QEAA@XZ
1E5510 - ??0MarketMisc_List@GAME@@QEAA@AEBV01@@Z
2A3710 - ??0MarketMisc_List@GAME@@QEAA@XZ
1E5450 - ??0MarketMisc_Medal@GAME@@QEAA@AEBV01@@Z
2A3360 - ??0MarketMisc_Medal@GAME@@QEAA@XZ
1E5390 - ??0MarketMisc_Potion@GAME@@QEAA@AEBV01@@Z
2A3090 - ??0MarketMisc_Potion@GAME@@QEAA@XZ
1E53D0 - ??0MarketMisc_Ring@GAME@@QEAA@AEBV01@@Z
2A3220 - ??0MarketMisc_Ring@GAME@@QEAA@XZ
1E5550 - ??0MarketMisc_Scroll@GAME@@QEAA@AEBV01@@Z
2A3650 - ??0MarketMisc_Scroll@GAME@@QEAA@XZ
1E54D0 - ??0MarketMisc_Static@GAME@@QEAA@AEBV01@@Z
2A3420 - ??0MarketMisc_Static@GAME@@QEAA@XZ
1E5490 - ??0MarketMisc_Used@GAME@@QEAA@AEBV01@@Z
2A3400 - ??0MarketMisc_Used@GAME@@QEAA@XZ
1E7680 - ??0MarketS2CPurchaseConfirmationPacket@GAME@@QEAA@AEBV01@@Z
2CBBD0 - ??0MarketS2CPurchaseConfirmationPacket@GAME@@QEAA@XZ
1E7520 - ??0MarketS2CPurchaseDeniedPacket@GAME@@QEAA@AEBV01@@Z
2CB760 - ??0MarketS2CPurchaseDeniedPacket@GAME@@QEAA@XZ
1E7420 - ??0MarketS2CStatusUpdatePacket@GAME@@QEAA@AEBV01@@Z
2CB5E0 - ??0MarketS2CStatusUpdatePacket@GAME@@QEAA@XZ
1E7780 - ??0MarketS2CUpdatePacket@GAME@@QEAA@AEBV01@@Z
2CBD50 - ??0MarketS2CUpdatePacket@GAME@@QEAA@XZ
1E4E10 - ??0MarketWeapon@GAME@@QEAA@AEBV01@@Z
2A4030 - ??0MarketWeapon@GAME@@QEAA@XZ
1E4E50 - ??0MarketWeapon_Axe@GAME@@QEAA@AEBV01@@Z
2A40D0 - ??0MarketWeapon_Axe@GAME@@QEAA@XZ
1E5010 - ??0MarketWeapon_Dagger@GAME@@QEAA@AEBV01@@Z
2A4530 - ??0MarketWeapon_Dagger@GAME@@QEAA@XZ
1E4F10 - ??0MarketWeapon_Mace@GAME@@QEAA@AEBV01@@Z
2A42B0 - ??0MarketWeapon_Mace@GAME@@QEAA@XZ
1E4E90 - ??0MarketWeapon_Ranged1h@GAME@@QEAA@AEBV01@@Z
2A4170 - ??0MarketWeapon_Ranged1h@GAME@@QEAA@XZ
1E4ED0 - ??0MarketWeapon_Ranged2h@GAME@@QEAA@AEBV01@@Z
2A4210 - ??0MarketWeapon_Ranged2h@GAME@@QEAA@XZ
1E5050 - ??0MarketWeapon_Scepter@GAME@@QEAA@AEBV01@@Z
2A45D0 - ??0MarketWeapon_Scepter@GAME@@QEAA@XZ
1E4F50 - ??0MarketWeapon_Spear@GAME@@QEAA@AEBV01@@Z
2A4350 - ??0MarketWeapon_Spear@GAME@@QEAA@XZ
1E4F90 - ??0MarketWeapon_Staff@GAME@@QEAA@AEBV01@@Z
2A43F0 - ??0MarketWeapon_Staff@GAME@@QEAA@XZ
1E4FD0 - ??0MarketWeapon_Sword@GAME@@QEAA@AEBV01@@Z
2A4490 - ??0MarketWeapon_Sword@GAME@@QEAA@XZ
1E5090 - ??0MarketWeapon_Used1@GAME@@QEAA@AEBV01@@Z
2A4670 - ??0MarketWeapon_Used1@GAME@@QEAA@XZ
1E50D0 - ??0MarketWeapon_Used2@GAME@@QEAA@AEBV01@@Z
2A4690 - ??0MarketWeapon_Used2@GAME@@QEAA@XZ
2A54B0 - ??0Monster@GAME@@QEAA@XZ
4445E0 - ??0MonsterShrine@GAME@@QEAA@XZ
1E9CA0 - ??0MonsterUseControllerPacket@GAME@@QEAA@AEBV01@@Z
2D1770 - ??0MonsterUseControllerPacket@GAME@@QEAA@XZ
44F150 - ??0MoveAttackAction@GAME@@QEAA@AEBV01@@Z
72340 - ??0MoveAttackAction@GAME@@QEAA@IIAEBVWorldVec3@1@0IIAEBUTargetLeadingData@1@@Z
452BE0 - ??0MoveAttackPacket@GAME@@QEAA@AEBV01@@Z
2D8120 - ??0MoveAttackPacket@GAME@@QEAA@XZ
44EEF0 - ??0MoveToAction@GAME@@QEAA@AEBV01@@Z
6FC60 - ??0MoveToAction@GAME@@QEAA@IAEBVWorldVec3@1@0IIMW4AnimationSet_Type@1@@Z
452520 - ??0MoveToPacket@GAME@@QEAA@AEBV01@@Z
2D6EC0 - ??0MoveToPacket@GAME@@QEAA@XZ
453B90 - ??0Mutator@GAME@@QEAA@AEBV01@@Z
2B46F0 - ??0Mutator@GAME@@QEAA@XZ
1EA750 - ??0MutatorRequestPacket@GAME@@QEAA@AEBV01@@Z
2D3D60 - ??0MutatorRequestPacket@GAME@@QEAA@XZ
4536D0 - ??0NRLoaderStatePacket@GAME@@QEAA@AEBV01@@Z
2DEB50 - ??0NRLoaderStatePacket@GAME@@QEAA@XZ
452020 - ??0NackEntityPacket@GAME@@QEAA@AEBV01@@Z
2D5B40 - ??0NackEntityPacket@GAME@@QEAA@XZ
2B4D50 - ??0NavBlocker@GAME@@QEAA@XZ
2E6E30 - ??0Npc@GAME@@QEAA@XZ
2E9F20 - ??0NpcCaravan@GAME@@QEAA@XZ
2EA2C0 - ??0NpcCrafter@GAME@@QEAA@XZ
2EA8B0 - ??0NpcEnchanter@GAME@@QEAA@XZ
2EB400 - ??0NpcMerchant@GAME@@QEAA@XZ
2EBB20 - ??0NpcSkillReallocator@GAME@@QEAA@XZ
1F2530 - ??0NpcTalkPacket@GAME@@QEAA@AEBV01@@Z
2E01C0 - ??0NpcTalkPacket@GAME@@QEAA@XZ
2EBEA0 - ??0NpcTransmuter@GAME@@QEAA@XZ
2EC230 - ??0NpcWanderPoint@GAME@@QEAA@XZ
2EC3E0 - ??0OneShot@GAME@@QEAA@XZ
2EF1D0 - ??0OneShot_Dye@GAME@@QEAA@XZ
2EF6A0 - ??0OneShot_EndlessDungeon@GAME@@QEAA@XZ
2EECB0 - ??0OneShot_Food@GAME@@QEAA@XZ
2EE740 - ??0OneShot_Gold@GAME@@QEAA@XZ
2EF610 - ??0OneShot_InstantReward@GAME@@QEAA@XZ
2ECCB0 - ??0OneShot_Potion@GAME@@QEAA@XZ
2EDD40 - ??0OneShot_PotionHealth@GAME@@QEAA@XZ
2EDF70 - ??0OneShot_PotionMana@GAME@@QEAA@XZ
2EF100 - ??0OneShot_Sack@GAME@@QEAA@XZ
2EE1A0 - ??0OneShot_Scroll@GAME@@QEAA@XZ
111240 - ??0Ormenos@GAME@@QEAA@XZ
111040 - ??0OrmenosDropZone@GAME@@QEAA@XZ
44B6A0 - ??0PFxManager@GAME@@QEAA@AEBV01@@Z
2F5DC0 - ??0PFxManager@GAME@@QEAA@XZ
2F0B50 - ??0Paperdoll@GAME@@QEAA@XZ
3F550 - ??0ParametersCombat@GAME@@QEAA@$$QEAV01@@Z
2F12D0 - ??0ParametersCombat@GAME@@QEAA@AEAVRandomUniform@1@@Z
3F3C0 - ??0ParametersCombat@GAME@@QEAA@AEBV01@@Z
3FAC0 - ??0ParametersCombatDisplay@GAME@@QEAA@$$QEAV01@@Z
2F1520 - ??0ParametersCombatDisplay@GAME@@QEAA@AEAVRandomUniform@1@@Z
3F9C0 - ??0ParametersCombatDisplay@GAME@@QEAA@AEBV01@@Z
44BB40 - ??0PartyManager@GAME@@QEAA@AEBV01@@Z
2F1710 - ??0PartyManager@GAME@@QEAA@XZ
453620 - ??0PartyRequestResponsePacket@GAME@@QEAA@AEBV01@@Z
2DE7F0 - ??0PartyRequestResponsePacket@GAME@@QEAA@XZ
2F3060 - ??0PatrolPoint@GAME@@QEAA@XZ
2F3400 - ??0Pet@GAME@@QEAA@XZ
2F4350 - ??0PetNonScaling@GAME@@QEAA@XZ
2F43D0 - ??0PetPlayerScaling@GAME@@QEAA@XZ
2F72A0 - ??0PhysicsDecoration@GAME@@QEAA@XZ
44EFD0 - ??0PickUpAction@GAME@@QEAA@AEBV01@@Z
70530 - ??0PickUpAction@GAME@@QEAA@II@Z
452790 - ??0PickUpItemPacket@GAME@@QEAA@AEBV01@@Z
2D7560 - ??0PickUpItemPacket@GAME@@QEAA@XZ
44C140 - ??0PickupItemConfigCmdPacket@GAME@@QEAA@AEBV01@@Z
2B6B30 - ??0PickupItemConfigCmdPacket@GAME@@QEAA@XZ
44F420 - ??0PlayAnimationAction@GAME@@QEAA@AEBV01@@Z
74320 - ??0PlayAnimationAction@GAME@@QEAA@IW4AnimationSet_Type@1@AEBVName@1@M_NI@Z
453120 - ??0PlayAnimationActionPacket@GAME@@QEAA@AEBV01@@Z
2D9270 - ??0PlayAnimationActionPacket@GAME@@QEAA@XZ
403C0 - ??0PlayEffectDeathHandler@GAME@@QEAA@AEBV01@@Z
185EC0 - ??0PlayEffectDeathHandler@GAME@@QEAA@PEAVCharacter@1@@Z
3E430 - ??0PlaySoundConfigCmd@GAME@@QEAA@AEBV01@@Z
A7A10 - ??0PlaySoundConfigCmd@GAME@@QEAA@II@Z
44E0E0 - ??0PlaySoundConfigCmdPacket@GAME@@QEAA@AEBV01@@Z
2C2060 - ??0PlaySoundConfigCmdPacket@GAME@@QEAA@XZ
404A0 - ??0PlaySoundDeathHandler@GAME@@QEAA@AEBV01@@Z
186030 - ??0PlaySoundDeathHandler@GAME@@QEAA@PEAVCharacter@1@@Z
4473C0 - ??0PlayStats@GAME@@QEAA@AEBV01@@Z
325190 - ??0PlayStats@GAME@@QEAA@XZ
1F22D0 - ??0PlayVideoCommandPacket@GAME@@QEAA@AEBV01@@Z
2E0540 - ??0PlayVideoCommandPacket@GAME@@QEAA@XZ
1F2400 - ??0PlayVideoRequestPacket@GAME@@QEAA@AEBV01@@Z
2E02C0 - ??0PlayVideoRequestPacket@GAME@@QEAA@XZ
2F7FB0 - ??0Player@GAME@@QEAA@XZ
15460 - ??0PlayerHotSlotCtrl@GAME@@QEAA@AEBV01@@Z
3147B0 - ??0PlayerHotSlotCtrl@GAME@@QEAA@XZ
460880 - ??0PlayerInfo@GAME@@QEAA@XZ
41CC0 - ??0PlayerInventoryCtrl@GAME@@QEAA@AEBV01@@Z
316F80 - ??0PlayerInventoryCtrl@GAME@@QEAA@XZ
31E1A0 - ??0PlayerManagerClient@GAME@@QEAA@XZ
453780 - ??0PlayerManagerServer@GAME@@QEAA@AEBV01@@Z
320660 - ??0PlayerManagerServer@GAME@@QEAA@XZ
1F3C80 - ??0PlayerNetBasicInfo@GAME@@QEAA@AEBU01@@Z
2E4600 - ??0PlayerNetBasicInfo@GAME@@QEAA@XZ
2E41E0 - ??0PlayerNetHeartbeatInfo@GAME@@QEAA@$$QEAU01@@Z
1F4070 - ??0PlayerNetHeartbeatInfo@GAME@@QEAA@AEBU01@@Z
2E46F0 - ??0PlayerNetHeartbeatInfo@GAME@@QEAA@XZ
452240 - ??0PlayerPositionUpdatePacket@GAME@@QEAA@AEBV01@@Z
2D64E0 - ??0PlayerPositionUpdatePacket@GAME@@QEAA@XZ
324E40 - ??0PlayerSpawnPoint@GAME@@QEAA@XZ
1E9D90 - ??0PostPetSpawnPacket@GAME@@QEAA@AEBV01@@Z
2D1A70 - ??0PostPetSpawnPacket@GAME@@QEAA@XZ
32C160 - ??0ProjectileAreaEffect@GAME@@QEAA@XZ
32CAA0 - ??0ProjectileArrowLike@GAME@@QEAA@XZ
32D240 - ??0ProjectileBase@GAME@@QEAA@XZ
333E60 - ??0ProjectileExploding@GAME@@QEAA@XZ
334260 - ??0ProjectileFireballLike@GAME@@QEAA@XZ
334D00 - ??0ProjectileGrenade@GAME@@QEAA@XZ
338720 - ??0ProjectileTelekinesis@GAME@@QEAA@XZ
339980 - ??0ProjectileTerrainFollowing@GAME@@QEAA@XZ
339DA0 - ??0Prop@GAME@@QEAA@XZ
33A4D0 - ??0Proxy@GAME@@QEAA@XZ
33A320 - ??0ProxyAccessoryPool@GAME@@QEAA@AEBV01@@Z
33D560 - ??0ProxyAccessoryPool@GAME@@QEAA@XZ
33DF10 - ??0ProxyAmbush@GAME@@QEAA@XZ
33F540 - ??0ProxyEndless@GAME@@QEAA@XZ
340D90 - ??0ProxyMenu@GAME@@QEAA@XZ
BC7C0 - ??0Punctuation@GAME@@QEAA@XZ
345CB0 - ??0Puppet@GAME@@QEAA@XZ
24F40 - ??0Quest2@GAME@@QEAA@AEBV01@@Z
3463E0 - ??0Quest2@GAME@@QEAA@AEBV?$basic_string@DU?$char_traits@D@std@@V?$allocator@D@2@@std@@@Z
24CA0 - ??0Quest2Event@GAME@@QEAA@AEBV01@@Z
347E10 - ??0Quest2Event@GAME@@QEAA@PEBVQuest2@1@@Z
24B80 - ??0Quest2Objective@GAME@@QEAA@AEBV01@@Z
348210 - ??0Quest2Objective@GAME@@QEAA@PEBVQuest2@1@@Z
348FC0 - ??0Quest2Repository@GAME@@AEAA@XZ
24DA0 - ??0Quest2Task@GAME@@QEAA@AEBV01@@Z
34B550 - ??0Quest2Task@GAME@@QEAA@PEBVQuest2@1@I@Z
3EBF0 - ??0QuestAnimationCompletedConfigCmd@GAME@@QEAA@AEBV01@@Z
A8550 - ??0QuestAnimationCompletedConfigCmd@GAME@@QEAA@AEBV?$basic_string@DU?$char_traits@D@std@@V?$allocator@D@2@@std@@I@Z
44E730 - ??0QuestAnimationCompletedConfigCmdPacket@GAME@@QEAA@AEBV01@@Z
2C3450 - ??0QuestAnimationCompletedConfigCmdPacket@GAME@@QEAA@XZ
1E8FD0 - ??0QuestCommandBeginQuestTaskPacket@GAME@@QEAA@AEBV01@@Z
2D0130 - ??0QuestCommandBeginQuestTaskPacket@GAME@@QEAA@XZ
1E9260 - ??0QuestCommandCompleteQuestPacket@GAME@@QEAA@AEBV01@@Z
2D0550 - ??0QuestCommandCompleteQuestPacket@GAME@@QEAA@XZ
1E9140 - ??0QuestCommandCompleteQuestTaskPacket@GAME@@QEAA@AEBV01@@Z
2D03E0 - ??0QuestCommandCompleteQuestTaskPacket@GAME@@QEAA@XZ
1E8340 - ??0QuestCommandDeclareTokensPacket@GAME@@QEAA@AEBV01@@Z
2CE630 - ??0QuestCommandDeclareTokensPacket@GAME@@QEAA@XZ
1E9980 - ??0QuestCommandDestroyDestructiblePacket@GAME@@QEAA@AEBV01@@Z
2D1080 - ??0QuestCommandDestroyDestructiblePacket@GAME@@QEAA@XZ
1E8EE0 - ??0QuestCommandEnableMonsterSkillsPacket@GAME@@QEAA@AEBV01@@Z
2CFFE0 - ??0QuestCommandEnableMonsterSkillsPacket@GAME@@QEAA@XZ
1E9650 - ??0QuestCommandEventPacket@GAME@@QEAA@AEBV01@@Z
2D0C30 - ??0QuestCommandEventPacket@GAME@@QEAA@XZ
1E93C0 - ??0QuestCommandGiveTokenPacket@GAME@@QEAA@AEBV01@@Z
2D0760 - ??0QuestCommandGiveTokenPacket@GAME@@QEAA@XZ
1E9760 - ??0QuestCommandGlobalEventPacket@GAME@@QEAA@AEBV01@@Z
2D0DA0 - ??0QuestCommandGlobalEventPacket@GAME@@QEAA@XZ
1E8D00 - ??0QuestCommandLockChestPacket@GAME@@QEAA@AEBV01@@Z
2CFD40 - ??0QuestCommandLockChestPacket@GAME@@QEAA@XZ
1E8B20 - ??0QuestCommandLockDoorPacket@GAME@@QEAA@AEBV01@@Z
2CFAA0 - ??0QuestCommandLockDoorPacket@GAME@@QEAA@XZ
1E84B0 - ??0QuestCommandMovePacket@GAME@@QEAA@AEBV01@@Z
2CEB10 - ??0QuestCommandMovePacket@GAME@@QEAA@XZ
1E8C10 - ??0QuestCommandOpenDoorPacket@GAME@@QEAA@AEBV01@@Z
2CFBF0 - ??0QuestCommandOpenDoorPacket@GAME@@QEAA@XZ
1E8DF0 - ??0QuestCommandOpenDynGridEntrancePacket@GAME@@QEAA@AEBV01@@Z
2CFE90 - ??0QuestCommandOpenDynGridEntrancePacket@GAME@@QEAA@XZ
1E8820 - ??0QuestCommandPlayAnimationPacket@GAME@@QEAA@AEBV01@@Z
2CF3B0 - ??0QuestCommandPlayAnimationPacket@GAME@@QEAA@XZ
1E9530 - ??0QuestCommandRemoveTokenPacket@GAME@@QEAA@AEBV01@@Z
2D0A70 - ??0QuestCommandRemoveTokenPacket@GAME@@QEAA@XZ
1E9B00 - ??0QuestCommandTakeItemPacket@GAME@@QEAA@AEBV01@@Z
2D13F0 - ??0QuestCommandTakeItemPacket@GAME@@QEAA@XZ
1E9870 - ??0QuestCommandUiNotifyPacket@GAME@@QEAA@AEBV01@@Z
2D0F10 - ??0QuestCommandUiNotifyPacket@GAME@@QEAA@XZ
1E89E0 - ??0QuestCommandUseSkillPacket@GAME@@QEAA@AEBV01@@Z
2CF840 - ??0QuestCommandUseSkillPacket@GAME@@QEAA@XZ
1E8690 - ??0QuestCommandWalkPacket@GAME@@QEAA@AEBV01@@Z
2CEFC0 - ??0QuestCommandWalkPacket@GAME@@QEAA@XZ
34D2D0 - ??0QuestItem@GAME@@QEAA@XZ
1F44E0 - ??0QuestMessagePacket@GAME@@QEAA@AEBV01@@Z
2DB150 - ??0QuestMessagePacket@GAME@@QEAA@XZ
3EAA0 - ??0QuestMoveCompletedConfigCmd@GAME@@QEAA@AEBV01@@Z
A8380 - ??0QuestMoveCompletedConfigCmd@GAME@@QEAA@AEBV?$basic_string@DU?$char_traits@D@std@@V?$allocator@D@2@@std@@I@Z
44E5C0 - ??0QuestMoveCompletedConfigCmdPacket@GAME@@QEAA@AEBV01@@Z
2C31A0 - ??0QuestMoveCompletedConfigCmdPacket@GAME@@QEAA@XZ
350140 - ??0RadiusMagic@GAME@@QEAA@XZ
3E030 - ??0ReclaimDevotionPointConfigCmd@GAME@@QEAA@AEBV01@@Z
A7120 - ??0ReclaimDevotionPointConfigCmd@GAME@@QEAA@IHH@Z
44DDF0 - ??0ReclaimDevotionPointConfigCmdPacket@GAME@@QEAA@AEBV01@@Z
2BED70 - ??0ReclaimDevotionPointConfigCmdPacket@GAME@@QEAA@XZ
3C4B0 - ??0ReleaseImmobilizeConfigCmd@GAME@@QEAA@AEBV01@@Z
A4440 - ??0ReleaseImmobilizeConfigCmd@GAME@@QEAA@I@Z
44CB30 - ??0ReleaseImmobilizeConfigCmdPacket@GAME@@QEAA@AEBV01@@Z
2B9A90 - ??0ReleaseImmobilizeConfigCmdPacket@GAME@@QEAA@XZ
3C310 - ??0ReleaseKnockdownConfigCmd@GAME@@QEAA@AEBV01@@Z
A41C0 - ??0ReleaseKnockdownConfigCmd@GAME@@QEAA@I@Z
44CA90 - ??0ReleaseKnockdownConfigCmdPacket@GAME@@QEAA@AEBV01@@Z
2B9830 - ??0ReleaseKnockdownConfigCmdPacket@GAME@@QEAA@XZ
3B4E0 - ??0ReleasePetConfigCmd@GAME@@QEAA@AEBV01@@Z
A2BF0 - ??0ReleasePetConfigCmd@GAME@@QEAA@II@Z
44BE10 - ??0ReleasePetConfigCmdPacket@GAME@@QEAA@AEBV01@@Z
2B58A0 - ??0ReleasePetConfigCmdPacket@GAME@@QEAA@XZ
3C3E0 - ??0ReleaseSleepConfigCmd@GAME@@QEAA@AEBV01@@Z
A4300 - ??0ReleaseSleepConfigCmd@GAME@@QEAA@I@Z
44CAE0 - ??0ReleaseSleepConfigCmdPacket@GAME@@QEAA@AEBV01@@Z
2B9960 - ??0ReleaseSleepConfigCmdPacket@GAME@@QEAA@XZ
3C240 - ??0ReleaseStunConfigCmd@GAME@@QEAA@AEBV01@@Z
A4080 - ??0ReleaseStunConfigCmd@GAME@@QEAA@I@Z
44CA40 - ??0ReleaseStunConfigCmdPacket@GAME@@QEAA@AEBV01@@Z
2B9700 - ??0ReleaseStunConfigCmdPacket@GAME@@QEAA@XZ
3C170 - ??0ReleaseTrapConfigCmd@GAME@@QEAA@AEBV01@@Z
A3F40 - ??0ReleaseTrapConfigCmd@GAME@@QEAA@I@Z
44C9F0 - ??0ReleaseTrapConfigCmdPacket@GAME@@QEAA@AEBV01@@Z
2B95D0 - ??0ReleaseTrapConfigCmdPacket@GAME@@QEAA@XZ
1F2D00 - ??0RemoteMessagePacket@GAME@@QEAA@AEBV01@@Z
2DD530 - ??0RemoteMessagePacket@GAME@@QEAA@XZ
1F2BE0 - ??0RemoteWMessagePacket@GAME@@QEAA@AEBV01@@Z
2DD970 - ??0RemoteWMessagePacket@GAME@@QEAA@XZ
3CCA0 - ??0RemoveInventoryItemConfigCmd@GAME@@QEAA@AEBV01@@Z
A5030 - ??0RemoveInventoryItemConfigCmd@GAME@@QEAA@II@Z
44D180 - ??0RemoveInventoryItemConfigCmdPacket@GAME@@QEAA@AEBV01@@Z
2BBAC0 - ??0RemoveInventoryItemConfigCmdPacket@GAME@@QEAA@XZ
1EA420 - ??0RemovePetBonusFxPakPacket@GAME@@QEAA@AEBV01@@Z
2D3190 - ??0RemovePetBonusFxPakPacket@GAME@@QEAA@XZ
1EA110 - ??0RemovePetBonusPacket@GAME@@QEAA@AEBV01@@Z
2D25F0 - ??0RemovePetBonusPacket@GAME@@QEAA@XZ
3E510 - ??0RequestAllyAttackConfigCmd@GAME@@QEAA@AEBV01@@Z
A7B70 - ??0RequestAllyAttackConfigCmd@GAME@@QEAA@III@Z
44E130 - ??0RequestAllyAttackConfigCmdPacket@GAME@@QEAA@AEBV01@@Z
2C21E0 - ??0RequestAllyAttackConfigCmdPacket@GAME@@QEAA@XZ
3E5F0 - ??0RequestAllyMoveConfigCmd@GAME@@QEAA@AEBV01@@Z
A7CC0 - ??0RequestAllyMoveConfigCmd@GAME@@QEAA@IIAEBVWorldVec3@1@@Z
44E200 - ??0RequestAllyMoveConfigCmdPacket@GAME@@QEAA@AEBV01@@Z
2C2510 - ??0RequestAllyMoveConfigCmdPacket@GAME@@QEAA@XZ
1F1D70 - ??0RequestDungeonDataPacket@GAME@@QEAA@AEBV01@@Z
2E1D30 - ??0RequestDungeonDataPacket@GAME@@QEAA@XZ
1F2B10 - ??0RequestSurvivalModeDataPacket@GAME@@QEAA@AEBV01@@Z
2DECA0 - ??0RequestSurvivalModeDataPacket@GAME@@QEAA@XZ
3C0A0 - ??0ResetAttributePointsConfigCmd@GAME@@QEAA@AEBV01@@Z
A3DE0 - ??0ResetAttributePointsConfigCmd@GAME@@QEAA@I@Z
44C9A0 - ??0ResetAttributesConfigCmdPacket@GAME@@QEAA@AEBV01@@Z
2B94A0 - ??0ResetAttributesConfigCmdPacket@GAME@@QEAA@XZ
44F4A0 - ??0RespawnAction@GAME@@QEAA@AEBV01@@Z
74AB0 - ??0RespawnAction@GAME@@QEAA@IAEBVWorldCoords@1@@Z
453310 - ??0RespawnPacket@GAME@@QEAA@AEBV01@@Z
2D9980 - ??0RespawnPacket@GAME@@QEAA@XZ
3537C0 - ??0RetaliationAttributeAbsMod_Aether@GAME@@QEAA@$$QEAV01@@Z
353760 - ??0RetaliationAttributeAbsMod_Aether@GAME@@QEAA@AEBV01@@Z
3536E0 - ??0RetaliationAttributeAbsMod_Aether@GAME@@QEAA@XZ
3536B0 - ??0RetaliationAttributeAbsMod_Chaos@GAME@@QEAA@$$QEAV01@@Z
353650 - ??0RetaliationAttributeAbsMod_Chaos@GAME@@QEAA@AEBV01@@Z
3535D0 - ??0RetaliationAttributeAbsMod_Chaos@GAME@@QEAA@XZ
353160 - ??0RetaliationAttributeAbsMod_Cold@GAME@@QEAA@$$QEAV01@@Z
353100 - ??0RetaliationAttributeAbsMod_Cold@GAME@@QEAA@AEBV01@@Z
353080 - ??0RetaliationAttributeAbsMod_Cold@GAME@@QEAA@XZ
353E20 - ??0RetaliationAttributeAbsMod_DamageMultiplier@GAME@@QEAA@$$QEAV01@@Z
353DC0 - ??0RetaliationAttributeAbsMod_DamageMultiplier@GAME@@QEAA@AEBV01@@Z
353D40 - ??0RetaliationAttributeAbsMod_DamageMultiplier@GAME@@QEAA@XZ
3538D0 - ??0RetaliationAttributeAbsMod_Elemental@GAME@@QEAA@$$QEAV01@@Z
353870 - ??0RetaliationAttributeAbsMod_Elemental@GAME@@QEAA@AEBV01@@Z
3537F0 - ??0RetaliationAttributeAbsMod_Elemental@GAME@@QEAA@XZ
353270 - ??0RetaliationAttributeAbsMod_Fire@GAME@@QEAA@$$QEAV01@@Z
353210 - ??0RetaliationAttributeAbsMod_Fire@GAME@@QEAA@AEBV01@@Z
353190 - ??0RetaliationAttributeAbsMod_Fire@GAME@@QEAA@XZ
353AF0 - ??0RetaliationAttributeAbsMod_Knockdown@GAME@@QEAA@$$QEAV01@@Z
353A90 - ??0RetaliationAttributeAbsMod_Knockdown@GAME@@QEAA@AEBV01@@Z
353A10 - ??0RetaliationAttributeAbsMod_Knockdown@GAME@@QEAA@XZ
3535A0 - ??0RetaliationAttributeAbsMod_Life@GAME@@QEAA@$$QEAV01@@Z
353540 - ??0RetaliationAttributeAbsMod_Life@GAME@@QEAA@AEBV01@@Z
3534C0 - ??0RetaliationAttributeAbsMod_Life@GAME@@QEAA@XZ
353490 - ??0RetaliationAttributeAbsMod_Lightning@GAME@@QEAA@$$QEAV01@@Z
353430 - ??0RetaliationAttributeAbsMod_Lightning@GAME@@QEAA@AEBV01@@Z
3533B0 - ??0RetaliationAttributeAbsMod_Lightning@GAME@@QEAA@XZ
352E30 - ??0RetaliationAttributeAbsMod_Physical@GAME@@QEAA@$$QEAV01@@Z
352DD0 - ??0RetaliationAttributeAbsMod_Physical@GAME@@QEAA@AEBV01@@Z
352D50 - ??0RetaliationAttributeAbsMod_Physical@GAME@@QEAA@XZ
353050 - ??0RetaliationAttributeAbsMod_Pierce@GAME@@QEAA@$$QEAV01@@Z
352FF0 - ??0RetaliationAttributeAbsMod_Pierce@GAME@@QEAA@AEBV01@@Z
352F70 - ??0RetaliationAttributeAbsMod_Pierce@GAME@@QEAA@XZ
352F40 - ??0RetaliationAttributeAbsMod_PierceRatio@GAME@@QEAA@$$QEAV01@@Z
352EE0 - ??0RetaliationAttributeAbsMod_PierceRatio@GAME@@QEAA@AEBV01@@Z
352E60 - ??0RetaliationAttributeAbsMod_PierceRatio@GAME@@QEAA@XZ
353380 - ??0RetaliationAttributeAbsMod_Poison@GAME@@QEAA@$$QEAV01@@Z
353320 - ??0RetaliationAttributeAbsMod_Poison@GAME@@QEAA@AEBV01@@Z
3532A0 - ??0RetaliationAttributeAbsMod_Poison@GAME@@QEAA@XZ
353C00 - ??0RetaliationAttributeAbsMod_Sleep@GAME@@QEAA@$$QEAV01@@Z
353BA0 - ??0RetaliationAttributeAbsMod_Sleep@GAME@@QEAA@AEBV01@@Z
353B20 - ??0RetaliationAttributeAbsMod_Sleep@GAME@@QEAA@XZ
3539E0 - ??0RetaliationAttributeAbsMod_Stun@GAME@@QEAA@$$QEAV01@@Z
353980 - ??0RetaliationAttributeAbsMod_Stun@GAME@@QEAA@AEBV01@@Z
353900 - ??0RetaliationAttributeAbsMod_Stun@GAME@@QEAA@XZ
353D10 - ??0RetaliationAttributeAbsMod_TotalDamageModifier@GAME@@QEAA@$$QEAV01@@Z
353CB0 - ??0RetaliationAttributeAbsMod_TotalDamageModifier@GAME@@QEAA@AEBV01@@Z
353C30 - ??0RetaliationAttributeAbsMod_TotalDamageModifier@GAME@@QEAA@XZ
351A90 - ??0RetaliationAttributeAbs_Aether@GAME@@QEAA@$$QEAV01@@Z
351A60 - ??0RetaliationAttributeAbs_Aether@GAME@@QEAA@AEBV01@@Z
351A30 - ??0RetaliationAttributeAbs_Aether@GAME@@QEAA@XZ
351A00 - ??0RetaliationAttributeAbs_Chaos@GAME@@QEAA@$$QEAV01@@Z
3519D0 - ??0RetaliationAttributeAbs_Chaos@GAME@@QEAA@AEBV01@@Z
3519A0 - ??0RetaliationAttributeAbs_Chaos@GAME@@QEAA@XZ
351730 - ??0RetaliationAttributeAbs_Cold@GAME@@QEAA@$$QEAV01@@Z
351700 - ??0RetaliationAttributeAbs_Cold@GAME@@QEAA@AEBV01@@Z
3516D0 - ??0RetaliationAttributeAbs_Cold@GAME@@QEAA@XZ
3514F0 - ??0RetaliationAttributeAbs_Confusion@GAME@@QEAA@$$QEAV01@@Z
3514C0 - ??0RetaliationAttributeAbs_Confusion@GAME@@QEAA@AEBV01@@Z
351470 - ??0RetaliationAttributeAbs_Confusion@GAME@@QEAA@XZ
351390 - ??0RetaliationAttributeAbs_Convert@GAME@@QEAA@$$QEAV01@@Z
351360 - ??0RetaliationAttributeAbs_Convert@GAME@@QEAA@AEBV01@@Z
351310 - ??0RetaliationAttributeAbs_Convert@GAME@@QEAA@XZ
351B20 - ??0RetaliationAttributeAbs_ElementalDamage@GAME@@QEAA@$$QEAV01@@Z
351AF0 - ??0RetaliationAttributeAbs_ElementalDamage@GAME@@QEAA@AEBV01@@Z
351AC0 - ??0RetaliationAttributeAbs_ElementalDamage@GAME@@QEAA@XZ
351440 - ??0RetaliationAttributeAbs_Fear@GAME@@QEAA@$$QEAV01@@Z
351410 - ??0RetaliationAttributeAbs_Fear@GAME@@QEAA@AEBV01@@Z
3513C0 - ??0RetaliationAttributeAbs_Fear@GAME@@QEAA@XZ
3517C0 - ??0RetaliationAttributeAbs_Fire@GAME@@QEAA@$$QEAV01@@Z
351790 - ??0RetaliationAttributeAbs_Fire@GAME@@QEAA@AEBV01@@Z
351760 - ??0RetaliationAttributeAbs_Fire@GAME@@QEAA@XZ
351970 - ??0RetaliationAttributeAbs_Life@GAME@@QEAA@$$QEAV01@@Z
351940 - ??0RetaliationAttributeAbs_Life@GAME@@QEAA@AEBV01@@Z
351910 - ??0RetaliationAttributeAbs_Life@GAME@@QEAA@XZ
3518E0 - ??0RetaliationAttributeAbs_Lightning@GAME@@QEAA@$$QEAV01@@Z
3518B0 - ??0RetaliationAttributeAbs_Lightning@GAME@@QEAA@AEBV01@@Z
351880 - ??0RetaliationAttributeAbs_Lightning@GAME@@QEAA@XZ
351580 - ??0RetaliationAttributeAbs_PercentCurrentLife@GAME@@QEAA@$$QEAV01@@Z
351550 - ??0RetaliationAttributeAbs_PercentCurrentLife@GAME@@QEAA@AEBV01@@Z
351520 - ??0RetaliationAttributeAbs_PercentCurrentLife@GAME@@QEAA@XZ
351610 - ??0RetaliationAttributeAbs_Physical@GAME@@QEAA@$$QEAV01@@Z
3515E0 - ??0RetaliationAttributeAbs_Physical@GAME@@QEAA@AEBV01@@Z
3515B0 - ??0RetaliationAttributeAbs_Physical@GAME@@QEAA@XZ
3516A0 - ??0RetaliationAttributeAbs_Pierce@GAME@@QEAA@$$QEAV01@@Z
351670 - ??0RetaliationAttributeAbs_Pierce@GAME@@QEAA@AEBV01@@Z
351640 - ??0RetaliationAttributeAbs_Pierce@GAME@@QEAA@XZ
351850 - ??0RetaliationAttributeAbs_Poison@GAME@@QEAA@$$QEAV01@@Z
351820 - ??0RetaliationAttributeAbs_Poison@GAME@@QEAA@AEBV01@@Z
3517F0 - ??0RetaliationAttributeAbs_Poison@GAME@@QEAA@XZ
351C20 - ??0RetaliationAttributeDurBonus@GAME@@QEAA@$$QEAV01@@Z
351BF0 - ??0RetaliationAttributeDurBonus@GAME@@QEAA@AEBV01@@Z
351B50 - ??0RetaliationAttributeDurBonus@GAME@@QEAA@XZ
354720 - ??0RetaliationAttributeDurMod_Aether@GAME@@QEAA@$$QEAV01@@Z
3546F0 - ??0RetaliationAttributeDurMod_Aether@GAME@@QEAA@AEBV01@@Z
354650 - ??0RetaliationAttributeDurMod_Aether@GAME@@QEAA@XZ
354820 - ??0RetaliationAttributeDurMod_AttackSpeed@GAME@@QEAA@$$QEAV01@@Z
3547F0 - ??0RetaliationAttributeDurMod_AttackSpeed@GAME@@QEAA@AEBV01@@Z
354750 - ??0RetaliationAttributeDurMod_AttackSpeed@GAME@@QEAA@XZ
354020 - ??0RetaliationAttributeDurMod_Bleeding@GAME@@QEAA@$$QEAV01@@Z
353FF0 - ??0RetaliationAttributeDurMod_Bleeding@GAME@@QEAA@AEBV01@@Z
353F50 - ??0RetaliationAttributeDurMod_Bleeding@GAME@@QEAA@XZ
354620 - ??0RetaliationAttributeDurMod_Chaos@GAME@@QEAA@$$QEAV01@@Z
3545F0 - ??0RetaliationAttributeDurMod_Chaos@GAME@@QEAA@AEBV01@@Z
354550 - ??0RetaliationAttributeDurMod_Chaos@GAME@@QEAA@XZ
354120 - ??0RetaliationAttributeDurMod_Cold@GAME@@QEAA@$$QEAV01@@Z
3540F0 - ??0RetaliationAttributeDurMod_Cold@GAME@@QEAA@AEBV01@@Z
354050 - ??0RetaliationAttributeDurMod_Cold@GAME@@QEAA@XZ
354E20 - ??0RetaliationAttributeDurMod_DefensiveAbility@GAME@@QEAA@$$QEAV01@@Z
354DF0 - ??0RetaliationAttributeDurMod_DefensiveAbility@GAME@@QEAA@AEBV01@@Z
354D50 - ??0RetaliationAttributeDurMod_DefensiveAbility@GAME@@QEAA@XZ
354220 - ??0RetaliationAttributeDurMod_Fire@GAME@@QEAA@$$QEAV01@@Z
3541F0 - ??0RetaliationAttributeDurMod_Fire@GAME@@QEAA@AEBV01@@Z
354150 - ??0RetaliationAttributeDurMod_Fire@GAME@@QEAA@XZ
354520 - ??0RetaliationAttributeDurMod_Life@GAME@@QEAA@$$QEAV01@@Z
3544F0 - ??0RetaliationAttributeDurMod_Life@GAME@@QEAA@AEBV01@@Z
354450 - ??0RetaliationAttributeDurMod_Life@GAME@@QEAA@XZ
354B20 - ??0RetaliationAttributeDurMod_LifeLeach@GAME@@QEAA@$$QEAV01@@Z
354AF0 - ??0RetaliationAttributeDurMod_LifeLeach@GAME@@QEAA@AEBV01@@Z
354A50 - ??0RetaliationAttributeDurMod_LifeLeach@GAME@@QEAA@XZ
354420 - ??0RetaliationAttributeDurMod_Lightning@GAME@@QEAA@$$QEAV01@@Z
3543F0 - ??0RetaliationAttributeDurMod_Lightning@GAME@@QEAA@AEBV01@@Z
354350 - ??0RetaliationAttributeDurMod_Lightning@GAME@@QEAA@XZ
354C20 - ??0RetaliationAttributeDurMod_ManaLeach@GAME@@QEAA@$$QEAV01@@Z
354BF0 - ??0RetaliationAttributeDurMod_ManaLeach@GAME@@QEAA@AEBV01@@Z
354B50 - ??0RetaliationAttributeDurMod_ManaLeach@GAME@@QEAA@XZ
354D20 - ??0RetaliationAttributeDurMod_OffensiveAbility@GAME@@QEAA@$$QEAV01@@Z
354CF0 - ??0RetaliationAttributeDurMod_OffensiveAbility@GAME@@QEAA@AEBV01@@Z
354C50 - ??0RetaliationAttributeDurMod_OffensiveAbility@GAME@@QEAA@XZ
354F20 - ??0RetaliationAttributeDurMod_OffensiveReduction@GAME@@QEAA@$$QEAV01@@Z
354EF0 - ??0RetaliationAttributeDurMod_OffensiveReduction@GAME@@QEAA@AEBV01@@Z
354E50 - ??0RetaliationAttributeDurMod_OffensiveReduction@GAME@@QEAA@XZ
353F20 - ??0RetaliationAttributeDurMod_Physical@GAME@@QEAA@$$QEAV01@@Z
353EF0 - ??0RetaliationAttributeDurMod_Physical@GAME@@QEAA@AEBV01@@Z
353E50 - ??0RetaliationAttributeDurMod_Physical@GAME@@QEAA@XZ
354320 - ??0RetaliationAttributeDurMod_Poison@GAME@@QEAA@$$QEAV01@@Z
3542F0 - ??0RetaliationAttributeDurMod_Poison@GAME@@QEAA@AEBV01@@Z
354250 - ??0RetaliationAttributeDurMod_Poison@GAME@@QEAA@XZ
354A20 - ??0RetaliationAttributeDurMod_RunSpeed@GAME@@QEAA@$$QEAV01@@Z
3549F0 - ??0RetaliationAttributeDurMod_RunSpeed@GAME@@QEAA@AEBV01@@Z
354950 - ??0RetaliationAttributeDurMod_RunSpeed@GAME@@QEAA@XZ
354920 - ??0RetaliationAttributeDurMod_SpellCastSpeed@GAME@@QEAA@$$QEAV01@@Z
3548F0 - ??0RetaliationAttributeDurMod_SpellCastSpeed@GAME@@QEAA@AEBV01@@Z
354850 - ??0RetaliationAttributeDurMod_SpellCastSpeed@GAME@@QEAA@XZ
352520 - ??0RetaliationAttributeDur_Aether@GAME@@QEAA@$$QEAV01@@Z
3524F0 - ??0RetaliationAttributeDur_Aether@GAME@@QEAA@AEBV01@@Z
352450 - ??0RetaliationAttributeDur_Aether@GAME@@QEAA@XZ
352620 - ??0RetaliationAttributeDur_AttackSpeed@GAME@@QEAA@$$QEAV01@@Z
3525F0 - ??0RetaliationAttributeDur_AttackSpeed@GAME@@QEAA@AEBV01@@Z
352550 - ??0RetaliationAttributeDur_AttackSpeed@GAME@@QEAA@XZ
351E20 - ??0RetaliationAttributeDur_Bleeding@GAME@@QEAA@$$QEAV01@@Z
351DF0 - ??0RetaliationAttributeDur_Bleeding@GAME@@QEAA@AEBV01@@Z
351D50 - ??0RetaliationAttributeDur_Bleeding@GAME@@QEAA@XZ
352420 - ??0RetaliationAttributeDur_Chaos@GAME@@QEAA@$$QEAV01@@Z
3523F0 - ??0RetaliationAttributeDur_Chaos@GAME@@QEAA@AEBV01@@Z
352350 - ??0RetaliationAttributeDur_Chaos@GAME@@QEAA@XZ
351F20 - ??0RetaliationAttributeDur_Cold@GAME@@QEAA@$$QEAV01@@Z
351EF0 - ??0RetaliationAttributeDur_Cold@GAME@@QEAA@AEBV01@@Z
351E50 - ??0RetaliationAttributeDur_Cold@GAME@@QEAA@XZ
352C20 - ??0RetaliationAttributeDur_DefensiveAbility@GAME@@QEAA@$$QEAV01@@Z
352BF0 - ??0RetaliationAttributeDur_DefensiveAbility@GAME@@QEAA@AEBV01@@Z
352B50 - ??0RetaliationAttributeDur_DefensiveAbility@GAME@@QEAA@XZ
352020 - ??0RetaliationAttributeDur_Fire@GAME@@QEAA@$$QEAV01@@Z
351FF0 - ??0RetaliationAttributeDur_Fire@GAME@@QEAA@AEBV01@@Z
351F50 - ??0RetaliationAttributeDur_Fire@GAME@@QEAA@XZ
352320 - ??0RetaliationAttributeDur_Life@GAME@@QEAA@$$QEAV01@@Z
3522F0 - ??0RetaliationAttributeDur_Life@GAME@@QEAA@AEBV01@@Z
352250 - ??0RetaliationAttributeDur_Life@GAME@@QEAA@XZ
352920 - ??0RetaliationAttributeDur_LifeLeach@GAME@@QEAA@$$QEAV01@@Z
3528F0 - ??0RetaliationAttributeDur_LifeLeach@GAME@@QEAA@AEBV01@@Z
352850 - ??0RetaliationAttributeDur_LifeLeach@GAME@@QEAA@XZ
352220 - ??0RetaliationAttributeDur_Lightning@GAME@@QEAA@$$QEAV01@@Z
3521F0 - ??0RetaliationAttributeDur_Lightning@GAME@@QEAA@AEBV01@@Z
352150 - ??0RetaliationAttributeDur_Lightning@GAME@@QEAA@XZ
352A20 - ??0RetaliationAttributeDur_ManaLeach@GAME@@QEAA@$$QEAV01@@Z
3529F0 - ??0RetaliationAttributeDur_ManaLeach@GAME@@QEAA@AEBV01@@Z
352950 - ??0RetaliationAttributeDur_ManaLeach@GAME@@QEAA@XZ
352B20 - ??0RetaliationAttributeDur_OffensiveAbility@GAME@@QEAA@$$QEAV01@@Z
352AF0 - ??0RetaliationAttributeDur_OffensiveAbility@GAME@@QEAA@AEBV01@@Z
352A50 - ??0RetaliationAttributeDur_OffensiveAbility@GAME@@QEAA@XZ
352D20 - ??0RetaliationAttributeDur_OffensiveReduction@GAME@@QEAA@$$QEAV01@@Z
352CF0 - ??0RetaliationAttributeDur_OffensiveReduction@GAME@@QEAA@AEBV01@@Z
352C50 - ??0RetaliationAttributeDur_OffensiveReduction@GAME@@QEAA@XZ
351D20 - ??0RetaliationAttributeDur_Physical@GAME@@QEAA@$$QEAV01@@Z
351CF0 - ??0RetaliationAttributeDur_Physical@GAME@@QEAA@AEBV01@@Z
351C50 - ??0RetaliationAttributeDur_Physical@GAME@@QEAA@XZ
352120 - ??0RetaliationAttributeDur_Poison@GAME@@QEAA@$$QEAV01@@Z
3520F0 - ??0RetaliationAttributeDur_Poison@GAME@@QEAA@AEBV01@@Z
352050 - ??0RetaliationAttributeDur_Poison@GAME@@QEAA@XZ
352820 - ??0RetaliationAttributeDur_RunSpeed@GAME@@QEAA@$$QEAV01@@Z
3527F0 - ??0RetaliationAttributeDur_RunSpeed@GAME@@QEAA@AEBV01@@Z
352750 - ??0RetaliationAttributeDur_RunSpeed@GAME@@QEAA@XZ
352720 - ??0RetaliationAttributeDur_SpellCastSpeed@GAME@@QEAA@$$QEAV01@@Z
3526F0 - ??0RetaliationAttributeDur_SpellCastSpeed@GAME@@QEAA@AEBV01@@Z
352650 - ??0RetaliationAttributeDur_SpellCastSpeed@GAME@@QEAA@XZ
14E0B0 - ??0RetaliationAttributeInfluence@GAME@@QEAA@$$QEAV01@@Z
14E0E0 - ??0RetaliationAttributeInfluence@GAME@@QEAA@AEBV01@@Z
142650 - ??0RetaliationAttributeInfluence@GAME@@QEAA@XZ
14E510 - ??0RetaliationAttributeReflex@GAME@@QEAA@$$QEAV01@@Z
14E6F0 - ??0RetaliationAttributeReflex@GAME@@QEAA@AEBV01@@Z
142600 - ??0RetaliationAttributeReflex@GAME@@QEAA@XZ
351180 - ??0RetaliationAttributeReflex_Freeze@GAME@@QEAA@$$QEAV01@@Z
351150 - ??0RetaliationAttributeReflex_Freeze@GAME@@QEAA@AEBV01@@Z
351100 - ??0RetaliationAttributeReflex_Freeze@GAME@@QEAA@XZ
351020 - ??0RetaliationAttributeReflex_Knockdown@GAME@@QEAA@$$QEAV01@@Z
350FF0 - ??0RetaliationAttributeReflex_Knockdown@GAME@@QEAA@AEBV01@@Z
350FA0 - ??0RetaliationAttributeReflex_Knockdown@GAME@@QEAA@XZ
351230 - ??0RetaliationAttributeReflex_Petrify@GAME@@QEAA@$$QEAV01@@Z
351200 - ??0RetaliationAttributeReflex_Petrify@GAME@@QEAA@AEBV01@@Z
3511B0 - ??0RetaliationAttributeReflex_Petrify@GAME@@QEAA@XZ
3510D0 - ??0RetaliationAttributeReflex_Sleep@GAME@@QEAA@$$QEAV01@@Z
3510A0 - ??0RetaliationAttributeReflex_Sleep@GAME@@QEAA@AEBV01@@Z
351050 - ??0RetaliationAttributeReflex_Sleep@GAME@@QEAA@XZ
350F70 - ??0RetaliationAttributeReflex_Stun@GAME@@QEAA@$$QEAV01@@Z
350F40 - ??0RetaliationAttributeReflex_Stun@GAME@@QEAA@AEBV01@@Z
350EF0 - ??0RetaliationAttributeReflex_Stun@GAME@@QEAA@XZ
3512E0 - ??0RetaliationAttributeReflex_Trap@GAME@@QEAA@$$QEAV01@@Z
3512B0 - ??0RetaliationAttributeReflex_Trap@GAME@@QEAA@AEBV01@@Z
351260 - ??0RetaliationAttributeReflex_Trap@GAME@@QEAA@XZ
32290 - ??0RetaliationAttributeStore@GAME@@QEAA@$$QEAV01@@Z
32290 - ??0RetaliationAttributeStore@GAME@@QEAA@AEBV01@@Z
341C0 - ??0RetaliationAttributeStore@GAME@@QEAA@XZ
4472F0 - ??0RetaliationAttributeStore_Equipment@GAME@@QEAA@$$QEAV01@@Z
4472F0 - ??0RetaliationAttributeStore_Equipment@GAME@@QEAA@AEBV01@@Z
27CF50 - ??0RetaliationAttributeStore_Equipment@GAME@@QEAA@XZ
34D90 - ??0RetaliationAttributeStore_Max@GAME@@QEAA@$$QEAV01@@Z
34D90 - ??0RetaliationAttributeStore_Max@GAME@@QEAA@AEBV01@@Z
34F50 - ??0RetaliationAttributeStore_Max@GAME@@QEAA@XZ
34DC0 - ??0RetaliationAttributeStore_Min@GAME@@QEAA@$$QEAV01@@Z
34DC0 - ??0RetaliationAttributeStore_Min@GAME@@QEAA@AEBV01@@Z
34FA0 - ??0RetaliationAttributeStore_Min@GAME@@QEAA@XZ
322C0 - ??0RetaliationAttributeStore_Skill@GAME@@QEAA@$$QEAV01@@Z
322C0 - ??0RetaliationAttributeStore_Skill@GAME@@QEAA@AEBV01@@Z
34210 - ??0RetaliationAttributeStore_Skill@GAME@@QEAA@XZ
44F520 - ??0RotateAction@GAME@@QEAA@AEBV01@@Z
751D0 - ??0RotateAction@GAME@@QEAA@IAEBVWorldVec3@1@@Z
453720 - ??0RotateActionPacket@GAME@@QEAA@AEBV01@@Z
2E09B0 - ??0RotateActionPacket@GAME@@QEAA@XZ
378FE0 - ??0Rubble@GAME@@QEAA@XZ
384F30 - ??0ScriptEntity@GAME@@QEAA@XZ
3798B0 - ??0ScriptableAction@GAME@@IEAA@W4Type@01@@Z
12CA90 - ??0ScriptableAction@GAME@@QEAA@AEBV01@@Z
44AAF0 - ??0ScriptableActionCollection@GAME@@QEAA@AEBV01@@Z
18D90 - ??0ScriptableActionCollection@GAME@@QEAA@XZ
12B170 - ??0ScriptableAction_BeginQuestTask@GAME@@QEAA@$$QEAV01@@Z
12B0E0 - ??0ScriptableAction_BeginQuestTask@GAME@@QEAA@AEBV01@@Z
37A3E0 - ??0ScriptableAction_BeginQuestTask@GAME@@QEAA@XZ
379530 - ??0ScriptableAction_CastSkill@GAME@@QEAA@$$QEAV01@@Z
3794B0 - ??0ScriptableAction_CastSkill@GAME@@QEAA@AEBV01@@Z
43A3D0 - ??0ScriptableAction_CastSkill@GAME@@QEAA@XZ
348840 - ??0ScriptableAction_GenerateRandomValue@GAME@@QEAA@AEBV01@@Z
37A750 - ??0ScriptableAction_GenerateRandomValue@GAME@@QEAA@XZ
270820 - ??0ScriptableAction_GiveAttribPoint@GAME@@QEAA@$$QEAV01@@Z
270820 - ??0ScriptableAction_GiveAttribPoint@GAME@@QEAA@AEBV01@@Z
37BCB0 - ??0ScriptableAction_GiveAttribPoint@GAME@@QEAA@XZ
379690 - ??0ScriptableAction_GiveDevotion@GAME@@QEAA@$$QEAV01@@Z
379690 - ??0ScriptableAction_GiveDevotion@GAME@@QEAA@AEBV01@@Z
37BEB0 - ??0ScriptableAction_GiveDevotion@GAME@@QEAA@XZ
379480 - ??0ScriptableAction_GiveExperience@GAME@@QEAA@$$QEAV01@@Z
379480 - ??0ScriptableAction_GiveExperience@GAME@@QEAA@AEBV01@@Z
37C1F0 - ??0ScriptableAction_GiveExperience@GAME@@QEAA@XZ
379170 - ??0ScriptableAction_GiveItem@GAME@@QEAA@AEBV01@@Z
37C7A0 - ??0ScriptableAction_GiveItem@GAME@@QEAA@W4Type@ScriptableAction@1@@Z
379450 - ??0ScriptableAction_GiveLevel@GAME@@QEAA@$$QEAV01@@Z
379450 - ??0ScriptableAction_GiveLevel@GAME@@QEAA@AEBV01@@Z
37D400 - ??0ScriptableAction_GiveLevel@GAME@@QEAA@XZ
379140 - ??0ScriptableAction_GiveMoney@GAME@@QEAA@$$QEAV01@@Z
379140 - ??0ScriptableAction_GiveMoney@GAME@@QEAA@AEBV01@@Z
37D5D0 - ??0ScriptableAction_GiveMoney@GAME@@QEAA@XZ
379370 - ??0ScriptableAction_GiveRandomItem@GAME@@QEAA@AEBV01@@Z
37D7D0 - ??0ScriptableAction_GiveRandomItem@GAME@@QEAA@XZ
270740 - ??0ScriptableAction_GiveSkillPoint@GAME@@QEAA@$$QEAV01@@Z
270740 - ??0ScriptableAction_GiveSkillPoint@GAME@@QEAA@AEBV01@@Z
37E060 - ??0ScriptableAction_GiveSkillPoint@GAME@@QEAA@XZ
3796C0 - ??0ScriptableAction_GiveTribute@GAME@@QEAA@$$QEAV01@@Z
3796C0 - ??0ScriptableAction_GiveTribute@GAME@@QEAA@AEBV01@@Z
37E300 - ??0ScriptableAction_GiveTribute@GAME@@QEAA@XZ
3797B0 - ??0ScriptableAction_PlayVideo@GAME@@QEAA@$$QEAV01@@Z
379720 - ??0ScriptableAction_PlayVideo@GAME@@QEAA@AEBV01@@Z
37F180 - ??0ScriptableAction_PlayVideo@GAME@@QEAA@XZ
3796F0 - ??0ScriptableAction_UnlockTutorial@GAME@@QEAA@$$QEAV01@@Z
3796F0 - ??0ScriptableAction_UnlockTutorial@GAME@@QEAA@AEBV01@@Z
37F920 - ??0ScriptableAction_UnlockTutorial@GAME@@QEAA@XZ
37FC50 - ??0ScriptableCondition@GAME@@IEAA@W4Type@01@H@Z
380530 - ??0ScriptableCondition@GAME@@QEAA@AEBV01@@Z
44B8D0 - ??0ScriptableConditionCollection@GAME@@QEAA@AEBV01@@Z
18D90 - ??0ScriptableConditionCollection@GAME@@QEAA@XZ
37FA70 - ??0ScriptableCondition_HasFaction@GAME@@QEAA@$$QEAV01@@Z
37F9C0 - ??0ScriptableCondition_HasFaction@GAME@@QEAA@AEBV01@@Z
380B50 - ??0ScriptableCondition_HasFaction@GAME@@QEAA@XZ
451F30 - ??0ServerSpawnCompletePacket@GAME@@QEAA@AEBV01@@Z
2D57D0 - ??0ServerSpawnCompletePacket@GAME@@QEAA@XZ
3ED00 - ??0SetCausesAngerConfigCmd@GAME@@QEAA@AEBV01@@Z
A8720 - ??0SetCausesAngerConfigCmd@GAME@@QEAA@I_N@Z
44E7C0 - ??0SetCausesAngerConfigCmdPacket@GAME@@QEAA@AEBV01@@Z
2C3700 - ??0SetCausesAngerConfigCmdPacket@GAME@@QEAA@XZ
1F1B70 - ??0SetDungeonTimerPacket@GAME@@QEAA@AEBV01@@Z
2E1F80 - ??0SetDungeonTimerPacket@GAME@@QEAA@XZ
3EEC0 - ??0SetFactionConfigCmd@GAME@@QEAA@AEBV01@@Z
A89E0 - ??0SetFactionConfigCmd@GAME@@QEAA@IW4FactionType@1@@Z
44E860 - ??0SetFactionConfigCmdPacket@GAME@@QEAA@AEBV01@@Z
2C3A00 - ??0SetFactionConfigCmdPacket@GAME@@QEAA@XZ
3EDE0 - ??0SetInvincibleConfigCmd@GAME@@QEAA@AEBV01@@Z
A8880 - ??0SetInvincibleConfigCmd@GAME@@QEAA@I_N@Z
44E810 - ??0SetInvincibleConfigCmdPacket@GAME@@QEAA@AEBV01@@Z
2C3880 - ??0SetInvincibleConfigCmdPacket@GAME@@QEAA@XZ
1EA510 - ??0SetMutatorPacket@GAME@@QEAA@AEBV01@@Z
2D32E0 - ??0SetMutatorPacket@GAME@@QEAA@XZ
1E9F40 - ??0SetPetBonusPacket@GAME@@QEAA@AEBV01@@Z
2D1FE0 - ??0SetPetBonusPacket@GAME@@QEAA@XZ
38B3D0 - ??0SetPiece@GAME@@QEAA@XZ
1F2710 - ??0SetSurvivalRestartsPacket@GAME@@QEAA@AEBV01@@Z
2DFB00 - ??0SetSurvivalRestartsPacket@GAME@@QEAA@XZ
1F28D0 - ??0SetSurvivalTimerPacket@GAME@@QEAA@AEBV01@@Z
2DF700 - ??0SetSurvivalTimerPacket@GAME@@QEAA@XZ
1F27F0 - ??0SetSurvivalWaveTierPacket@GAME@@QEAA@AEBV01@@Z
2DFA00 - ??0SetSurvivalWaveTierPacket@GAME@@QEAA@XZ
3E710 - ??0ShowCharacterConfigCmd@GAME@@QEAA@AEBV01@@Z
A7E30 - ??0ShowCharacterConfigCmd@GAME@@QEAA@I_N@Z
44E3B0 - ??0ShowCharacterConfigCmdPacket@GAME@@QEAA@AEBV01@@Z
2C27D0 - ??0ShowCharacterConfigCmdPacket@GAME@@QEAA@XZ
1F2F30 - ??0ShowEntityPacket@GAME@@QEAA@AEBV01@@Z
2D5ED0 - ??0ShowEntityPacket@GAME@@QEAA@XZ
A2110 - ??0ShrineHookPack@GAME@@QEAA@AEBV01@@Z
38D390 - ??0ShrineHookPack@GAME@@QEAA@XZ
1E5F80 - ??0ShrineRewardPacket@GAME@@QEAA@AEBV01@@Z
2CDBE0 - ??0ShrineRewardPacket@GAME@@QEAA@XZ
1F3DE0 - ??0SinglePlayerBasicInfoPacket@GAME@@QEAA@AEBV01@@Z
2DCBF0 - ??0SinglePlayerBasicInfoPacket@GAME@@QEAA@XZ
1F3EF0 - ??0SinglePlayerHeartbeatPacket@GAME@@QEAA@AEBV01@@Z
2D9B90 - ??0SinglePlayerHeartbeatPacket@GAME@@QEAA@XZ
6C7F0 - ??0Skill@GAME@@QEAA@AEBV01@@Z
390310 - ??0Skill@GAME@@QEAA@XZ
40B30 - ??0SkillActivated@GAME@@QEAA@AEBV01@@Z
4033C0 - ??0SkillActivated@GAME@@QEAA@XZ
410B0 - ??0SkillActivatedBuffOther@GAME@@QEAA@$$QEAV01@@Z
410B0 - ??0SkillActivatedBuffOther@GAME@@QEAA@AEBV01@@Z
407350 - ??0SkillActivatedBuffOther@GAME@@QEAA@XZ
40FB0 - ??0SkillActivatedBuffSelf@GAME@@QEAA@$$QEAV01@@Z
40FB0 - ??0SkillActivatedBuffSelf@GAME@@QEAA@AEBV01@@Z
406FD0 - ??0SkillActivatedBuffSelf@GAME@@QEAA@XZ
40E60 - ??0SkillActivatedSpell@GAME@@QEAA@AEBV01@@Z
406C10 - ??0SkillActivatedSpell@GAME@@QEAA@XZ
40D10 - ??0SkillActivatedWeapon@GAME@@QEAA@$$QEAV01@@Z
40D10 - ??0SkillActivatedWeapon@GAME@@QEAA@AEBV01@@Z
405D70 - ??0SkillActivatedWeapon@GAME@@QEAA@XZ
411A0 - ??0SkillActivatedWeaponPool@GAME@@QEAA@$$QEAV01@@Z
411A0 - ??0SkillActivatedWeaponPool@GAME@@QEAA@AEBV01@@Z
4074D0 - ??0SkillActivatedWeaponPool@GAME@@QEAA@XZ
B8A60 - ??0SkillActivated_Suicide@GAME@@QEAA@AEBV01@@Z
3A97B0 - ??0SkillActivated_Suicide@GAME@@QEAA@XZ
437510 - ??0SkillActiveState@GAME@@QEAA@H_N0@Z
437500 - ??0SkillActiveState@GAME@@QEAA@XZ
3CAC0 - ??0SkillActiveStateUpdateConfigCmd@GAME@@QEAA@AEBV01@@Z
A4D10 - ??0SkillActiveStateUpdateConfigCmd@GAME@@QEAA@IIAEBVSkillActiveState@1@@Z
44D060 - ??0SkillActiveStateUpdateConfigCmdPacket@GAME@@QEAA@AEBV01@@Z
2BB510 - ??0SkillActiveStateUpdateConfigCmdPacket@GAME@@QEAA@XZ
40A170 - ??0SkillAttribute@GAME@@QEAA@AEBV01@@Z
407D40 - ??0SkillAttribute@GAME@@QEAA@XZ
446F20 - ??0SkillAttributeAccumulator@GAME@@QEAA@AEBV01@@Z
40A210 - ??0SkillAttributeAccumulator@GAME@@QEAA@XZ
40A090 - ??0SkillAttributeMod@GAME@@QEAA@$$QEAV01@@Z
40A090 - ??0SkillAttributeMod@GAME@@QEAA@AEBV01@@Z
409FF0 - ??0SkillAttributeMod@GAME@@QEAA@XZ
409DB0 - ??0SkillAttributeMod_CooldownReduction@GAME@@QEAA@$$QEAV01@@Z
409DB0 - ??0SkillAttributeMod_CooldownReduction@GAME@@QEAA@AEBV01@@Z
409F30 - ??0SkillAttributeMod_CooldownReduction@GAME@@QEAA@XZ
409DE0 - ??0SkillAttributeMod_ManaCostReduction@GAME@@QEAA@$$QEAV01@@Z
409DE0 - ??0SkillAttributeMod_ManaCostReduction@GAME@@QEAA@AEBV01@@Z
409F90 - ??0SkillAttributeMod_ManaCostReduction@GAME@@QEAA@XZ
31F40 - ??0SkillAttributeStore@GAME@@QEAA@AEBV01@@Z
40A3F0 - ??0SkillAttributeStore@GAME@@QEAA@XZ
4471C0 - ??0SkillAttributeStore_Equipment@GAME@@QEAA@$$QEAV01@@Z
4471C0 - ??0SkillAttributeStore_Equipment@GAME@@QEAA@AEBV01@@Z
27CFF0 - ??0SkillAttributeStore_Equipment@GAME@@QEAA@XZ
34CA0 - ??0SkillAttributeStore_Max@GAME@@QEAA@$$QEAV01@@Z
34CA0 - ??0SkillAttributeStore_Max@GAME@@QEAA@AEBV01@@Z
34EF0 - ??0SkillAttributeStore_Max@GAME@@QEAA@XZ
34CA0 - ??0SkillAttributeStore_Min@GAME@@QEAA@$$QEAV01@@Z
34CA0 - ??0SkillAttributeStore_Min@GAME@@QEAA@AEBV01@@Z
34EF0 - ??0SkillAttributeStore_Min@GAME@@QEAA@XZ
32020 - ??0SkillAttributeStore_Skill@GAME@@QEAA@$$QEAV01@@Z
32020 - ??0SkillAttributeStore_Skill@GAME@@QEAA@AEBV01@@Z
342B0 - ??0SkillAttributeStore_Skill@GAME@@QEAA@XZ
40A140 - ??0SkillAttributeVal@GAME@@QEAA@$$QEAV01@@Z
40A140 - ??0SkillAttributeVal@GAME@@QEAA@AEBV01@@Z
40A040 - ??0SkillAttributeVal@GAME@@QEAA@XZ
409C70 - ??0SkillAttributeVal_CooldownReduction@GAME@@QEAA@$$QEAV01@@Z
409C70 - ??0SkillAttributeVal_CooldownReduction@GAME@@QEAA@AEBV01@@Z
409E10 - ??0SkillAttributeVal_CooldownReduction@GAME@@QEAA@XZ
409D50 - ??0SkillAttributeVal_ManaCostReduction@GAME@@QEAA@$$QEAV01@@Z
409D50 - ??0SkillAttributeVal_ManaCostReduction@GAME@@QEAA@AEBV01@@Z
409E70 - ??0SkillAttributeVal_ManaCostReduction@GAME@@QEAA@XZ
409D80 - ??0SkillAttributeVal_ProjectileSpeedModifier@GAME@@QEAA@$$QEAV01@@Z
409D80 - ??0SkillAttributeVal_ProjectileSpeedModifier@GAME@@QEAA@AEBV01@@Z
409ED0 - ??0SkillAttributeVal_ProjectileSpeedModifier@GAME@@QEAA@XZ
3CBC0 - ??0SkillAugmentUpdateConfigCmd@GAME@@QEAA@AEBV01@@Z
A4EB0 - ??0SkillAugmentUpdateConfigCmd@GAME@@QEAA@III@Z
44D120 - ??0SkillAugmentUpdateConfigCmdPacket@GAME@@QEAA@AEBV01@@Z
2BB910 - ??0SkillAugmentUpdateConfigCmdPacket@GAME@@QEAA@XZ
284430 - ??0SkillAutoCastController@GAME@@QEAA@AEBV01@@Z
40BC30 - ??0SkillAutoCastController@GAME@@QEAA@PEAVCharacter@1@AEBV?$basic_string@DU?$char_traits@D@std@@V?$allocator@D@2@@std@@II@Z
B8B40 - ??0SkillBuff@GAME@@QEAA@AEBV01@@Z
40E330 - ??0SkillBuff@GAME@@QEAA@XZ
B8E50 - ??0SkillBuff_BuffImmobilize@GAME@@QEAA@AEBV01@@Z
40ED60 - ??0SkillBuff_BuffImmobilize@GAME@@QEAA@XZ
B8FE0 - ??0SkillBuff_Contageous@GAME@@QEAA@AEBV01@@Z
40EE80 - ??0SkillBuff_Contageous@GAME@@QEAA@XZ
B8F60 - ??0SkillBuff_Debuf@GAME@@QEAA@AEBV01@@Z
40F960 - ??0SkillBuff_Debuf@GAME@@QEAA@XZ
B9160 - ??0SkillBuff_DebufFreeze@GAME@@QEAA@AEBV01@@Z
410270 - ??0SkillBuff_DebufFreeze@GAME@@QEAA@XZ
B91F0 - ??0SkillBuff_DebufRadius@GAME@@QEAA@AEBV01@@Z
3A9A30 - ??0SkillBuff_DebufRadius@GAME@@QEAA@XZ
B90F0 - ??0SkillBuff_DebufTrap@GAME@@QEAA@AEBV01@@Z
40FE50 - ??0SkillBuff_DebufTrap@GAME@@QEAA@XZ
B8D70 - ??0SkillBuff_Passive@GAME@@QEAA@AEBV01@@Z
410390 - ??0SkillBuff_Passive@GAME@@QEAA@XZ
B8DD0 - ??0SkillBuff_PassiveCharged@GAME@@QEAA@AEBV01@@Z
410400 - ??0SkillBuff_PassiveCharged@GAME@@QEAA@XZ
B8E10 - ??0SkillBuff_PassiveEndless@GAME@@QEAA@AEBV01@@Z
410590 - ??0SkillBuff_PassiveEndless@GAME@@QEAA@XZ
B9230 - ??0SkillBuff_PassiveShield@GAME@@QEAA@AEBV01@@Z
4106B0 - ??0SkillBuff_PassiveShield@GAME@@QEAA@XZ
6ED50 - ??0SkillChanneled@GAME@@QEAA@$$QEAV01@@Z
6ED50 - ??0SkillChanneled@GAME@@QEAA@AEBV01@@Z
410790 - ??0SkillChanneled@GAME@@QEAA@XZ
4109B0 - ??0SkillLocation@GAME@@QEAA@XZ
447E90 - ??0SkillManager@GAME@@QEAA@AEBV01@@Z
410EE0 - ??0SkillManager@GAME@@QEAA@XZ
423F80 - ??0SkillManagerBase@GAME@@QEAA@AEBV01@@Z
423F80 - ??0SkillManagerBase@GAME@@QEAA@XZ
424490 - ??0SkillManagerLite@GAME@@QEAA@AEBV01@@Z
424490 - ??0SkillManagerLite@GAME@@QEAA@XZ
B63C0 - ??0SkillOnDeath@GAME@@QEAA@$$QEAV01@@Z
B63C0 - ??0SkillOnDeath@GAME@@QEAA@AEBV01@@Z
B6380 - ??0SkillOnDeath@GAME@@QEAA@XZ
44F620 - ??0SkillProfile@GAME@@QEAA@AEBV01@@Z
4244A0 - ??0SkillProfile@GAME@@QEAA@XZ
B9370 - ??0SkillSecondary@GAME@@QEAA@AEBV01@@Z
42DC90 - ??0SkillSecondary@GAME@@QEAA@XZ
BA170 - ??0SkillSecondary_AttackRadius@GAME@@QEAA@AEBV01@@Z
42DD90 - ??0SkillSecondary_AttackRadius@GAME@@QEAA@XZ
B94B0 - ??0SkillSecondary_Bonus@GAME@@QEAA@AEBV01@@Z
42F150 - ??0SkillSecondary_Bonus@GAME@@QEAA@XZ
BAB50 - ??0SkillSecondary_BuffAttackRadiusDuration@GAME@@QEAA@AEBV01@@Z
3ABBC0 - ??0SkillSecondary_BuffAttackRadiusDuration@GAME@@QEAA@XZ
B9520 - ??0SkillSecondary_BuffRadius@GAME@@QEAA@AEBV01@@Z
42F420 - ??0SkillSecondary_BuffRadius@GAME@@QEAA@XZ
B9670 - ??0SkillSecondary_BuffSelfDuration@GAME@@QEAA@AEBV01@@Z
3AC930 - ??0SkillSecondary_BuffSelfDuration@GAME@@QEAA@XZ
B97F0 - ??0SkillSecondary_ChainBonus@GAME@@QEAA@AEBV01@@Z
4301B0 - ??0SkillSecondary_ChainBonus@GAME@@QEAA@XZ
B99D0 - ??0SkillSecondary_ChainLightning@GAME@@QEAA@AEBV01@@Z
431550 - ??0SkillSecondary_ChainLightning@GAME@@QEAA@XZ
B9C00 - ??0SkillSecondary_ForkLightning@GAME@@QEAA@AEBV01@@Z
432B20 - ??0SkillSecondary_ForkLightning@GAME@@QEAA@XZ
BA9C0 - ??0SkillSecondary_OnHitBuffRadius@GAME@@QEAA@AEBV01@@Z
3AD5A0 - ??0SkillSecondary_OnHitBuffRadius@GAME@@QEAA@XZ
BA7A0 - ??0SkillSecondary_OnKillAttackRadius@GAME@@QEAA@AEBV01@@Z
3AE380 - ??0SkillSecondary_OnKillAttackRadius@GAME@@QEAA@XZ
B9E30 - ??0SkillSecondary_PetModifier@GAME@@QEAA@AEBV01@@Z
433DD0 - ??0SkillSecondary_PetModifier@GAME@@QEAA@XZ
BA100 - ??0SkillSecondary_PetSpawn@GAME@@QEAA@AEBV01@@Z
434D00 - ??0SkillSecondary_PetSpawn@GAME@@QEAA@XZ
BA310 - ??0SkillSecondary_Tether@GAME@@QEAA@AEBV01@@Z
3AF350 - ??0SkillSecondary_Tether@GAME@@QEAA@XZ
424460 - ??0SkillServicesBase@GAME@@QEAA@AEBV01@@Z
437120 - ??0SkillServicesBase@GAME@@QEAA@XZ
410D80 - ??0SkillServices_Character@GAME@@QEAA@AEBV01@@Z
435850 - ??0SkillServices_Character@GAME@@QEAA@XZ
4371A0 - ??0SkillState@GAME@@QEAA@XZ
3C9C0 - ??0SkillStateUpdateConfigCmd@GAME@@QEAA@AEBV01@@Z
A4B70 - ??0SkillStateUpdateConfigCmd@GAME@@QEAA@IIAEBVSkillState@1@@Z
44CFA0 - ??0SkillStateUpdateConfigCmdPacket@GAME@@QEAA@AEBV01@@Z
2BB140 - ??0SkillStateUpdateConfigCmdPacket@GAME@@QEAA@XZ
3B5C0 - ??0SkillTargetResultConfigCmd@GAME@@QEAA@AEBV01@@Z
A2DF0 - ??0SkillTargetResultConfigCmd@GAME@@QEAA@IIAEBV?$vector@I@mem@@AEBUAttackInfo@1@H@Z
44C430 - ??0SkillTargetResultConfigCmdPacket@GAME@@QEAA@AEBV01@@Z
2B7AD0 - ??0SkillTargetResultConfigCmdPacket@GAME@@QEAA@XZ
B0C70 - ??0Skill_AktaiosLightOfRa@GAME@@QEAA@AEBV01@@Z
3B11E0 - ??0Skill_AktaiosLightOfRa@GAME@@QEAA@XZ
B10A0 - ??0Skill_AktaiosMirage@GAME@@QEAA@AEBV01@@Z
3B15B0 - ??0Skill_AktaiosMirage@GAME@@QEAA@XZ
B1210 - ??0Skill_AttackBuff@GAME@@QEAA@AEBV01@@Z
3B1D10 - ??0Skill_AttackBuff@GAME@@QEAA@XZ
B1310 - ??0Skill_AttackBuffRadius@GAME@@QEAA@AEBV01@@Z
3B2A90 - ??0Skill_AttackBuffRadius@GAME@@QEAA@XZ
B1490 - ??0Skill_AttackChain@GAME@@QEAA@AEBV01@@Z
3B2FA0 - ??0Skill_AttackChain@GAME@@QEAA@XZ
B16C0 - ??0Skill_AttackInherent@GAME@@QEAA@AEBV01@@Z
3B4760 - ??0Skill_AttackInherent@GAME@@QEAA@XZ
B3EA0 - ??0Skill_AttackPathCharge@GAME@@QEAA@AEBV01@@Z
3B5E70 - ??0Skill_AttackPathCharge@GAME@@QEAA@XZ
B17D0 - ??0Skill_AttackProjectile@GAME@@QEAA@AEBV01@@Z
3B7440 - ??0Skill_AttackProjectile@GAME@@QEAA@XZ
AD9C0 - ??0Skill_AttackProjectileAreaEffect@GAME@@QEAA@AEBV01@@Z
3B7B40 - ??0Skill_AttackProjectileAreaEffect@GAME@@QEAA@XZ
B1840 - ??0Skill_AttackProjectileBurst@GAME@@QEAA@AEBV01@@Z
3B8360 - ??0Skill_AttackProjectileBurst@GAME@@QEAA@XZ
B2270 - ??0Skill_AttackProjectileChain@GAME@@QEAA@AEBV01@@Z
3B94E0 - ??0Skill_AttackProjectileChain@GAME@@QEAA@XZ
B1B30 - ??0Skill_AttackProjectileDebuf@GAME@@QEAA@AEBV01@@Z
3BA7A0 - ??0Skill_AttackProjectileDebuf@GAME@@QEAA@XZ
B1CC0 - ??0Skill_AttackProjectileDrop@GAME@@QEAA@AEBV01@@Z
3E6B70 - ??0Skill_AttackProjectileDrop@GAME@@QEAA@XZ
B2060 - ??0Skill_AttackProjectileFan@GAME@@QEAA@AEBV01@@Z
3BD5F0 - ??0Skill_AttackProjectileFan@GAME@@QEAA@XZ
BACC0 - ??0Skill_AttackProjectileMultiHit@GAME@@QEAA@AEBV01@@Z
3BAD00 - ??0Skill_AttackProjectileMultiHit@GAME@@QEAA@XZ
B1E80 - ??0Skill_AttackProjectileRing@GAME@@QEAA@AEBV01@@Z
3BC020 - ??0Skill_AttackProjectileRing@GAME@@QEAA@XZ
B2160 - ??0Skill_AttackProjectileSpawnPet@GAME@@QEAA@AEBV01@@Z
3BD660 - ??0Skill_AttackProjectileSpawnPet@GAME@@QEAA@XZ
B23A0 - ??0Skill_AttackRadius@GAME@@QEAA@AEBV01@@Z
3BEA20 - ??0Skill_AttackRadius@GAME@@QEAA@XZ
BB070 - ??0Skill_AttackRadiusDisengage@GAME@@QEAA@AEBV01@@Z
3BFDA0 - ??0Skill_AttackRadiusDisengage@GAME@@QEAA@XZ
BAFC0 - ??0Skill_AttackRadiusLeap@GAME@@QEAA@AEBV01@@Z
3C00E0 - ??0Skill_AttackRadiusLeap@GAME@@QEAA@XZ
B2880 - ??0Skill_AttackRadiusLightning2@GAME@@QEAA@AEBV01@@Z
3CF060 - ??0Skill_AttackRadiusLightning2@GAME@@QEAA@XZ
B25B0 - ??0Skill_AttackRadiusLightning@GAME@@QEAA@AEBV01@@Z
3CE5B0 - ??0Skill_AttackRadiusLightning@GAME@@QEAA@XZ
B2B20 - ??0Skill_AttackRadiusLightningSpawnPet@GAME@@QEAA@AEBV01@@Z
3C09B0 - ??0Skill_AttackRadiusLightningSpawnPet@GAME@@QEAA@XZ
BC180 - ??0Skill_AttackRadiusSpin@GAME@@QEAA@AEBV01@@Z
3C1780 - ??0Skill_AttackRadiusSpin@GAME@@QEAA@XZ
BAF10 - ??0Skill_AttackRadiusTeleport@GAME@@QEAA@AEBV01@@Z
3CC850 - ??0Skill_AttackRadiusTeleport@GAME@@QEAA@XZ
6EB60 - ??0Skill_AttackSpell@GAME@@QEAA@AEBV01@@Z
3CFB30 - ??0Skill_AttackSpell@GAME@@QEAA@XZ
BB460 - ??0Skill_AttackSpellBeam@GAME@@QEAA@AEBV01@@Z
3D04E0 - ??0Skill_AttackSpellBeam@GAME@@QEAA@XZ
B2C20 - ??0Skill_AttackSpellChaos@GAME@@QEAA@AEBV01@@Z
3D2A10 - ??0Skill_AttackSpellChaos@GAME@@QEAA@XZ
B2ED0 - ??0Skill_AttackSpellChaosSpawnPet@GAME@@QEAA@AEBV01@@Z
3C2FE0 - ??0Skill_AttackSpellChaosSpawnPet@GAME@@QEAA@XZ
BB9C0 - ??0Skill_AttackSpellCone@GAME@@QEAA@AEBV01@@Z
3C4980 - ??0Skill_AttackSpellCone@GAME@@QEAA@XZ
BBC60 - ??0Skill_AttackSpellDrain@GAME@@QEAA@AEBV01@@Z
3C6E40 - ??0Skill_AttackSpellDrain@GAME@@QEAA@XZ
B3A40 - ??0Skill_AttackSpellReflectLink@GAME@@QEAA@AEBV01@@Z
3CABC0 - ??0Skill_AttackSpellReflectLink@GAME@@QEAA@XZ
B2FD0 - ??0Skill_AttackSpellTeleport@GAME@@QEAA@AEBV01@@Z
3D3DF0 - ??0Skill_AttackSpellTeleport@GAME@@QEAA@XZ
B30B0 - ??0Skill_AttackSpellTeleportSelf@GAME@@QEAA@AEBV01@@Z
3D3FF0 - ??0Skill_AttackSpellTeleportSelf@GAME@@QEAA@XZ
B3190 - ??0Skill_AttackTelekinesis@GAME@@QEAA@AEBV01@@Z
3D43B0 - ??0Skill_AttackTelekinesis@GAME@@QEAA@XZ
B35B0 - ??0Skill_AttackWave@GAME@@QEAA@AEBV01@@Z
3D6B50 - ??0Skill_AttackWave@GAME@@QEAA@XZ
AD770 - ??0Skill_AttackWeapon@GAME@@QEAA@AEBV01@@Z
3DA210 - ??0Skill_AttackWeapon@GAME@@QEAA@XZ
AD980 - ??0Skill_AttackWeaponBlink@GAME@@QEAA@AEBV01@@Z
3DA8D0 - ??0Skill_AttackWeaponBlink@GAME@@QEAA@XZ
AD920 - ??0Skill_AttackWeaponCharge@GAME@@QEAA@AEBV01@@Z
3DAA60 - ??0Skill_AttackWeaponCharge@GAME@@QEAA@XZ
B3900 - ??0Skill_AttackWeaponRangedSpread@GAME@@QEAA@AEBV01@@Z
3DB300 - ??0Skill_AttackWeaponRangedSpread@GAME@@QEAA@XZ
B4260 - ??0Skill_BuffAttackRadiusDuration@GAME@@QEAA@AEBV01@@Z
3DC710 - ??0Skill_BuffAttackRadiusDuration@GAME@@QEAA@XZ
B4120 - ??0Skill_BuffAttackRadiusToggled@GAME@@QEAA@AEBV01@@Z
3DC970 - ??0Skill_BuffAttackRadiusToggled@GAME@@QEAA@XZ
B4370 - ??0Skill_BuffOther@GAME@@QEAA@AEBV01@@Z
3DCEE0 - ??0Skill_BuffOther@GAME@@QEAA@XZ
B45C0 - ??0Skill_BuffRadius@GAME@@QEAA@AEBV01@@Z
3DDD10 - ??0Skill_BuffRadius@GAME@@QEAA@XZ
B4700 - ??0Skill_BuffRadiusToggled@GAME@@QEAA@AEBV01@@Z
3DECE0 - ??0Skill_BuffRadiusToggled@GAME@@QEAA@XZ
B4A30 - ??0Skill_BuffSelfColossus@GAME@@QEAA@AEBV01@@Z
3DF170 - ??0Skill_BuffSelfColossus@GAME@@QEAA@XZ
B4900 - ??0Skill_BuffSelfDuration@GAME@@QEAA@AEBV01@@Z
3DF820 - ??0Skill_BuffSelfDuration@GAME@@QEAA@XZ
B4BD0 - ??0Skill_BuffSelfImmobilize@GAME@@QEAA@AEBV01@@Z
3DFB00 - ??0Skill_BuffSelfImmobilize@GAME@@QEAA@XZ
B4C70 - ??0Skill_BuffSelfInvulnerable@GAME@@QEAA@AEBV01@@Z
3DFC30 - ??0Skill_BuffSelfInvulnerable@GAME@@QEAA@XZ
B4CE0 - ??0Skill_BuffSelfShield@GAME@@QEAA@AEBV01@@Z
3DFCF0 - ??0Skill_BuffSelfShield@GAME@@QEAA@XZ
B4D40 - ??0Skill_BuffSelfSick@GAME@@QEAA@AEBV01@@Z
3E0000 - ??0Skill_BuffSelfSick@GAME@@QEAA@XZ
B4740 - ??0Skill_BuffSelfToggled@GAME@@QEAA@AEBV01@@Z
3E01D0 - ??0Skill_BuffSelfToggled@GAME@@QEAA@XZ
ADA60 - ??0Skill_CerberusGeysers@GAME@@QEAA@AEBV01@@Z
3E17B0 - ??0Skill_CerberusGeysers@GAME@@QEAA@XZ
B4450 - ??0Skill_ChargedBuffOther@GAME@@QEAA@AEBV01@@Z
3E2B50 - ??0Skill_ChargedBuffOther@GAME@@QEAA@XZ
B4E40 - ??0Skill_CharonGeysers@GAME@@QEAA@AEBV01@@Z
3E3660 - ??0Skill_CharonGeysers@GAME@@QEAA@XZ
B5130 - ??0Skill_DefensiveGround@GAME@@QEAA@AEBV01@@Z
3E4040 - ??0Skill_DefensiveGround@GAME@@QEAA@XZ
B52D0 - ??0Skill_DefensiveLine@GAME@@QEAA@AEBV01@@Z
3E4080 - ??0Skill_DefensiveLine@GAME@@QEAA@XZ
B4F50 - ??0Skill_DefensiveWall@GAME@@QEAA@AEBV01@@Z
3E4AA0 - ??0Skill_DefensiveWall@GAME@@QEAA@XZ
B5470 - ??0Skill_DispelMagic@GAME@@QEAA@AEBV01@@Z
3E5BE0 - ??0Skill_DispelMagic@GAME@@QEAA@XZ
3E7130 - ??0Skill_DropProjectileTelekinesis@GAME@@QEAA@XZ
BAEA0 - ??0Skill_E3FauxAttack@GAME@@QEAA@AEBV01@@Z
3E77B0 - ??0Skill_E3FauxAttack@GAME@@QEAA@XZ
B55C0 - ??0Skill_GiveBonus@GAME@@QEAA@AEBV01@@Z
3E7B60 - ??0Skill_GiveBonus@GAME@@QEAA@XZ
BC980 - ??0Skill_Kick@GAME@@QEAA@$$QEAV01@@Z
BC980 - ??0Skill_Kick@GAME@@QEAA@AEBV01@@Z
3E8580 - ??0Skill_Kick@GAME@@QEAA@XZ
B57C0 - ??0Skill_Mastery@GAME@@QEAA@AEBV01@@Z
3E8CF0 - ??0Skill_Mastery@GAME@@QEAA@XZ
B5DF0 - ??0Skill_MeleeModifier@GAME@@QEAA@AEBV01@@Z
3E9E00 - ??0Skill_MeleeModifier@GAME@@QEAA@XZ
B5ED0 - ??0Skill_MeleeModifierRadius@GAME@@QEAA@AEBV01@@Z
3EA010 - ??0Skill_MeleeModifierRadius@GAME@@QEAA@XZ
B5900 - ??0Skill_Modifier@GAME@@QEAA@AEBV01@@Z
3EA200 - ??0Skill_Modifier@GAME@@QEAA@XZ
B6240 - ??0Skill_MonsterGenerator@GAME@@QEAA@AEBV01@@Z
3EBE10 - ??0Skill_MonsterGenerator@GAME@@QEAA@XZ
BC9C0 - ??0Skill_Move@GAME@@QEAA@AEBV01@@Z
3ECBB0 - ??0Skill_Move@GAME@@QEAA@XZ
B64B0 - ??0Skill_OnDeathSpawnActor@GAME@@QEAA@AEBV01@@Z
3ECC70 - ??0Skill_OnDeathSpawnActor@GAME@@QEAA@XZ
B6590 - ??0Skill_OnHitAttackRadius@GAME@@QEAA@AEBV01@@Z
3ED360 - ??0Skill_OnHitAttackRadius@GAME@@QEAA@XZ
B67F0 - ??0Skill_OnHitBuffSelf@GAME@@QEAA@AEBV01@@Z
3EE180 - ??0Skill_OnHitBuffSelf@GAME@@QEAA@XZ
B6970 - ??0Skill_OrmenosChainLaser@GAME@@QEAA@AEBV01@@Z
3EEBB0 - ??0Skill_OrmenosChainLaser@GAME@@QEAA@XZ
B56A0 - ??0Skill_Passive@GAME@@QEAA@AEBV01@@Z
3EFCE0 - ??0Skill_Passive@GAME@@QEAA@XZ
B6C50 - ??0Skill_PassiveDualWieldWeapon@GAME@@QEAA@AEBV01@@Z
3F0010 - ??0Skill_PassiveDualWieldWeapon@GAME@@QEAA@XZ
B6E30 - ??0Skill_PassiveOnCritBuffSelf@GAME@@QEAA@AEBV01@@Z
3F0B30 - ??0Skill_PassiveOnCritBuffSelf@GAME@@QEAA@XZ
B6CB0 - ??0Skill_PassiveOnHitBuffSelf@GAME@@QEAA@AEBV01@@Z
3F00E0 - ??0Skill_PassiveOnHitBuffSelf@GAME@@QEAA@XZ
B6E70 - ??0Skill_PassiveOnLifeBuffSelf@GAME@@QEAA@AEBV01@@Z
3F11E0 - ??0Skill_PassiveOnLifeBuffSelf@GAME@@QEAA@XZ
B7010 - ??0Skill_PassiveShield@GAME@@QEAA@AEBV01@@Z
3F1B80 - ??0Skill_PassiveShield@GAME@@QEAA@XZ
6DD70 - ??0Skill_PetAttack@GAME@@QEAA@AEBV01@@Z
3F1DF0 - ??0Skill_PetAttack@GAME@@QEAA@XZ
B7180 - ??0Skill_PlayAttackAnimation@GAME@@QEAA@AEBV01@@Z
3F22A0 - ??0Skill_PlayAttackAnimation@GAME@@QEAA@XZ
B7260 - ??0Skill_ProjectileModifier@GAME@@QEAA@AEBV01@@Z
3F2400 - ??0Skill_ProjectileModifier@GAME@@QEAA@XZ
B7340 - ??0Skill_ProjectileTransmuter@GAME@@QEAA@AEBV01@@Z
3F28A0 - ??0Skill_ProjectileTransmuter@GAME@@QEAA@XZ
B7380 - ??0Skill_RefreshCooldown@GAME@@QEAA@AEBV01@@Z
3F2900 - ??0Skill_RefreshCooldown@GAME@@QEAA@XZ
B5F10 - ??0Skill_RefreshCooldownModifier@GAME@@QEAA@AEBV01@@Z
3F3230 - ??0Skill_RefreshCooldownModifier@GAME@@QEAA@XZ
B74E0 - ??0Skill_SpawnMegalesiosSpirit@GAME@@QEAA@AEBV01@@Z
3F3C80 - ??0Skill_SpawnMegalesiosSpirit@GAME@@QEAA@XZ
B0FA0 - ??0Skill_SpawnMiniPet@GAME@@QEAA@AEBV01@@Z
3F5850 - ??0Skill_SpawnMiniPet@GAME@@QEAA@XZ
B0D90 - ??0Skill_SpawnPet@GAME@@QEAA@AEBV01@@Z
3F48C0 - ??0Skill_SpawnPet@GAME@@QEAA@XZ
B7690 - ??0Skill_SpawnPetMonster@GAME@@QEAA@AEBV01@@Z
3F6400 - ??0Skill_SpawnPetMonster@GAME@@QEAA@XZ
B6050 - ??0Skill_SpawnPetTransmuter@GAME@@QEAA@AEBV01@@Z
3F5BE0 - ??0Skill_SpawnPetTransmuter@GAME@@QEAA@XZ
B7770 - ??0Skill_SpawnQuestPet@GAME@@QEAA@AEBV01@@Z
3F6500 - ??0Skill_SpawnQuestPet@GAME@@QEAA@XZ
B7850 - ??0Skill_Teleport@GAME@@QEAA@AEBV01@@Z
3F7C90 - ??0Skill_Teleport@GAME@@QEAA@XZ
B5CF0 - ??0Skill_Transmuter@GAME@@QEAA@AEBV01@@Z
3EBDD0 - ??0Skill_Transmuter@GAME@@QEAA@XZ
B7950 - ??0Skill_TurretFireControl@GAME@@QEAA@AEBV01@@Z
3F8090 - ??0Skill_TurretFireControl@GAME@@QEAA@XZ
B7B30 - ??0Skill_TyphonSkillTransfer@GAME@@QEAA@AEBV01@@Z
3F8CC0 - ??0Skill_TyphonSkillTransfer@GAME@@QEAA@XZ
B8410 - ??0Skill_WPAttack@GAME@@QEAA@AEBV01@@Z
402440 - ??0Skill_WPAttack@GAME@@QEAA@XZ
B8790 - ??0Skill_WPAttack_AttackWave@GAME@@QEAA@AEBV01@@Z
3FE230 - ??0Skill_WPAttack_AttackWave@GAME@@QEAA@XZ
B85B0 - ??0Skill_WPAttack_BasicAttack@GAME@@QEAA@AEBV01@@Z
403100 - ??0Skill_WPAttack_BasicAttack@GAME@@QEAA@XZ
B8750 - ??0Skill_WPAttack_ProjectileBurst@GAME@@QEAA@AEBV01@@Z
4011A0 - ??0Skill_WPAttack_ProjectileBurst@GAME@@QEAA@XZ
B85F0 - ??0Skill_WPAttack_RadialCrit@GAME@@QEAA@AEBV01@@Z
401870 - ??0Skill_WPAttack_RadialCrit@GAME@@QEAA@XZ
B7E10 - ??0Skill_WeaponPool_BasicAttack@GAME@@QEAA@AEBV01@@Z
3F9AA0 - ??0Skill_WeaponPool_BasicAttack@GAME@@QEAA@XZ
B7F30 - ??0Skill_WeaponPool_ChargedFinale@GAME@@QEAA@AEBV01@@Z
3F9B10 - ??0Skill_WeaponPool_ChargedFinale@GAME@@QEAA@XZ
B80F0 - ??0Skill_WeaponPool_ChargedLinear@GAME@@QEAA@AEBV01@@Z
3FAA90 - ??0Skill_WeaponPool_ChargedLinear@GAME@@QEAA@XZ
B82E0 - ??0Skill_WeaponPool_Default@GAME@@QEAA@AEBV01@@Z
3FE1B0 - ??0Skill_WeaponPool_Default@GAME@@QEAA@XZ
3FD80 - ??0SlotManager@GAME@@QEAA@AEBV01@@Z
4377F0 - ??0SlotManager@GAME@@QEAA@PEAVCharacter@1@W4SlotMode@01@@Z
439A70 - ??0SoundAmbient@GAME@@QEAA@XZ
439D50 - ??0SoundObject@GAME@@QEAA@XZ
43A190 - ??0SoundPeriodic@GAME@@QEAA@XZ
44F470 - ??0SpawnAction@GAME@@QEAA@AEBV01@@Z
747D0 - ??0SpawnAction@GAME@@QEAA@I@Z
4532C0 - ??0SpawnActionPacket@GAME@@QEAA@AEBV01@@Z
2D9850 - ??0SpawnActionPacket@GAME@@QEAA@XZ
3FFD0 - ??0SpawnActorDeathHandler@GAME@@QEAA@AEBV01@@Z
184DE0 - ??0SpawnActorDeathHandler@GAME@@QEAA@PEAVCharacter@1@@Z
402C0 - ??0SpawnMyBonesDeathHandler@GAME@@QEAA@AEBV01@@Z
185B00 - ??0SpawnMyBonesDeathHandler@GAME@@QEAA@PEAVCharacter@1@@Z
3C7F0 - ??0SpawnObjectConfigCmd@GAME@@QEAA@AEBV01@@Z
A48A0 - ??0SpawnObjectConfigCmd@GAME@@QEAA@IIIIAEBVWorldCoords@1@IAEBV?$vector@VWorldCoords@GAME@@@mem@@AEBV?$vector@I@4@I@Z
44CDC0 - ??0SpawnObjectConfigCmdPacket@GAME@@QEAA@AEBV01@@Z
2BA670 - ??0SpawnObjectConfigCmdPacket@GAME@@QEAA@XZ
451E80 - ??0SpawnPlayerPacket@GAME@@QEAA@AEBV01@@Z
2D5460 - ??0SpawnPlayerPacket@GAME@@QEAA@XZ
413C0 - ??0SpecialCharHandler@GAME@@QEAA@AEBV01@@Z
412F0 - ??0SpecialCharHandler@GAME@@QEAA@PEAVCharacter@1@AEBV?$basic_string@DU?$char_traits@D@std@@V?$allocator@D@2@@std@@@Z
41830 - ??0SpecialCharHandler_FadeAwayFromPlayer@GAME@@QEAA@AEBV01@@Z
43EF20 - ??0SpecialCharHandler_FadeAwayFromPlayer@GAME@@QEAA@PEAVCharacter@1@AEBV?$basic_string@DU?$char_traits@D@std@@V?$allocator@D@2@@std@@@Z
419E0 - ??0SpecialCharHandler_FadeNearPlayer@GAME@@QEAA@AEBV01@@Z
43F6E0 - ??0SpecialCharHandler_FadeNearPlayer@GAME@@QEAA@PEAVCharacter@1@AEBV?$basic_string@DU?$char_traits@D@std@@V?$allocator@D@2@@std@@@Z
41500 - ??0SpecialCharHandler_IcyCharacter@GAME@@QEAA@AEBV01@@Z
43DB30 - ??0SpecialCharHandler_IcyCharacter@GAME@@QEAA@PEAVCharacter@1@AEBV?$basic_string@DU?$char_traits@D@std@@V?$allocator@D@2@@std@@@Z
44BC00 - ??0SpecialFX@GAME@@QEAA@AEBV01@@Z
43F8A0 - ??0SpecialFX@GAME@@QEAA@XZ
453520 - ??0StartServerRespawnPacket@GAME@@QEAA@AEBV01@@Z
2DDCE0 - ??0StartServerRespawnPacket@GAME@@QEAA@XZ
1E5E90 - ??0StartShrineProxyPacket@GAME@@QEAA@AEBV01@@Z
2CDA90 - ??0StartShrineProxyPacket@GAME@@QEAA@XZ
3E810 - ??0StartStopDamageEffectConfigCmd@GAME@@QEAA@AEBV01@@Z
A7F90 - ??0StartStopDamageEffectConfigCmd@GAME@@QEAA@I_NW4CombatAttributeType@1@@Z
44E2F0 - ??0StartStopDamageEffectConfigCmdPacket@GAME@@QEAA@AEBV01@@Z
2C2A10 - ??0StartStopDamageEffectConfigCmdPacket@GAME@@QEAA@XZ
453400 - ??0StartTeleportPacket@GAME@@QEAA@AEBV01@@Z
2DE130 - ??0StartTeleportPacket@GAME@@QEAA@XZ
BB320 - ??0StaticMarker@GAME@@QEAA@XZ
43FD10 - ??0StaticRespawner@GAME@@AEAA@XZ
440080 - ??0StaticShrine@GAME@@QEAA@XZ
1C1DD0 - ??0StaticShrineStateChangeConfigCmd@GAME@@QEAA@AEBV01@@Z
444BF0 - ??0StaticShrineStateChangeConfigCmd@GAME@@QEAA@IW4StaticShrine_State@1@@Z
44DE50 - ??0StaticShrineStateChangeConfigCmdPacket@GAME@@QEAA@AEBV01@@Z
2BEF20 - ??0StaticShrineStateChangeConfigCmdPacket@GAME@@QEAA@XZ
445340 - ??0StaticTeleporter@GAME@@QEAA@XZ
1F2200 - ??0StopVideoRequestPacket@GAME@@QEAA@AEBV01@@Z
2E08B0 - ??0StopVideoRequestPacket@GAME@@QEAA@XZ
1F29C0 - ??0SurvivalModeDataPacket@GAME@@QEAA@AEBV01@@Z
2DEDA0 - ??0SurvivalModeDataPacket@GAME@@QEAA@XZ
1F2600 - ??0SyncObjectivesPacket@GAME@@QEAA@AEBV01@@Z
2DFC00 - ??0SyncObjectivesPacket@GAME@@QEAA@XZ
3F1F0 - ??0TakeBonusConfigCmd@GAME@@QEAA@AEBV01@@Z
A8FB0 - ??0TakeBonusConfigCmd@GAME@@QEAA@IAEBVBonus@1@@Z
44EA60 - ??0TakeBonusConfigCmdPacket@GAME@@QEAA@AEBV01@@Z
2C41C0 - ??0TakeBonusConfigCmdPacket@GAME@@QEAA@XZ
44F200 - ??0TakeHitAction@GAME@@QEAA@AEBV01@@Z
72E60 - ??0TakeHitAction@GAME@@QEAA@I@Z
452E10 - ??0TakeHitPacket@GAME@@QEAA@AEBV01@@Z
2D8740 - ??0TakeHitPacket@GAME@@QEAA@XZ
44F1D0 - ??0TakeKnockdownAction@GAME@@QEAA@AEBV01@@Z
72CC0 - ??0TakeKnockdownAction@GAME@@QEAA@I@Z
452DC0 - ??0TakeKnockdownPacket@GAME@@QEAA@AEBV01@@Z
2D8610 - ??0TakeKnockdownPacket@GAME@@QEAA@XZ
44F230 - ??0TakeSleepAction@GAME@@QEAA@AEBV01@@Z
72FF0 - ??0TakeSleepAction@GAME@@QEAA@I@Z
452E60 - ??0TakeSleepPacket@GAME@@QEAA@AEBV01@@Z
2D8870 - ??0TakeSleepPacket@GAME@@QEAA@XZ
44F1A0 - ??0TakeStunAction@GAME@@QEAA@AEBV01@@Z
72AE0 - ??0TakeStunAction@GAME@@QEAA@I@Z
452D30 - ??0TakeStunPacket@GAME@@QEAA@AEBV01@@Z
2D84A0 - ??0TakeStunPacket@GAME@@QEAA@XZ
44F290 - ??0TakeTrapAction@GAME@@QEAA@AEBV01@@Z
73360 - ??0TakeTrapAction@GAME@@QEAA@I@Z
452F00 - ??0TakeTrapPacket@GAME@@QEAA@AEBV01@@Z
2D8AD0 - ??0TakeTrapPacket@GAME@@QEAA@XZ
40270 - ??0TelkineDeathHandler@GAME@@QEAA@AEBV01@@Z
1850B0 - ??0TelkineDeathHandler@GAME@@QEAA@PEAVCharacter@1@@Z
45D020 - ??0TerrainDecoration@GAME@@QEAA@XZ
45D7F0 - ??0TickManager@GAME@@QEAA@XZ
1E67F0 - ??0TradeAddItemPacket@GAME@@QEAA@AEBV01@@Z
2C9B00 - ??0TradeAddItemPacket@GAME@@QEAA@XZ
1E6510 - ??0TradeCancelPacket@GAME@@QEAA@AEBV01@@Z
2C94A0 - ??0TradeCancelPacket@GAME@@QEAA@XZ
1E6600 - ??0TradeFinalizePacket@GAME@@QEAA@AEBV01@@Z
2C95F0 - ??0TradeFinalizePacket@GAME@@QEAA@XZ
1E6420 - ??0TradeInitiatePacket@GAME@@QEAA@AEBV01@@Z
2C9350 - ??0TradeInitiatePacket@GAME@@QEAA@XZ
1351D0 - ??0TradeManager@GAME@@QEAA@AEBV01@@Z
45E140 - ??0TradeManager@GAME@@QEAA@XZ
1E6980 - ??0TradeRemoveItemPacket@GAME@@QEAA@AEBV01@@Z
2C9F00 - ??0TradeRemoveItemPacket@GAME@@QEAA@XZ
1E66F0 - ??0TradeSetGoldPacket@GAME@@QEAA@AEBV01@@Z
2C9740 - ??0TradeSetGoldPacket@GAME@@QEAA@XZ
135080 - ??0TradeState@GAME@@QEAA@AEBV01@@Z
45E030 - ??0TradeState@GAME@@QEAA@XZ
3DED0 - ??0TransmuteItemsConfigCmd@GAME@@QEAA@AEBV01@@Z
A6DD0 - ??0TransmuteItemsConfigCmd@GAME@@QEAA@IAEBV?$map@IV?$basic_string@DU?$char_traits@D@std@@V?$allocator@D@2@@std@@@mem@@I@Z
44DD10 - ??0TransmuteItemsConfigCmdPacket@GAME@@QEAA@AEBV01@@Z
2BE500 - ??0TransmuteItemsConfigCmdPacket@GAME@@QEAA@XZ
45F110 - ??0Turret@GAME@@QEAA@XZ
1E7BF0 - ??0UnJoinLeaderPacket@GAME@@QEAA@AEBV01@@Z
2CC890 - ??0UnJoinLeaderPacket@GAME@@QEAA@XZ
452300 - ??0UpdatePositionPacket@GAME@@QEAA@AEBV01@@Z
2D6870 - ??0UpdatePositionPacket@GAME@@QEAA@XZ
44F010 - ??0UseAction@GAME@@QEAA@AEBV01@@Z
70BA0 - ??0UseAction@GAME@@QEAA@II@Z
3AF90 - ??0UseItemConfigCmd@GAME@@QEAA@AEBV01@@Z
A22E0 - ??0UseItemConfigCmd@GAME@@QEAA@IIW4ItemSource@1@_N@Z
44BE60 - ??0UseItemConfigCmdPacket@GAME@@QEAA@AEBV01@@Z
2B5A20 - ??0UseItemConfigCmdPacket@GAME@@QEAA@XZ
3B0B0 - ??0UseItemOnConfigCmd@GAME@@QEAA@AEBV01@@Z
A2470 - ??0UseItemOnConfigCmd@GAME@@QEAA@IIUItemReplicaInfo@1@IW4ItemSource@1@II_N@Z
44BF30 - ??0UseItemOnConfigCmdPacket@GAME@@QEAA@AEBV01@@Z
2B5E20 - ??0UseItemOnConfigCmdPacket@GAME@@QEAA@XZ
452870 - ??0UseItemPacket@GAME@@QEAA@AEBV01@@Z
2D7790 - ??0UseItemPacket@GAME@@QEAA@XZ
2113E0 - ??0VoiceChatManager@GAME@@QEAA@AEBV01@@Z
461870 - ??0VoiceChatManager@GAME@@QEAA@XZ
44F4F0 - ??0WakeUpAction@GAME@@QEAA@AEBV01@@Z
74E90 - ??0WakeUpAction@GAME@@QEAA@I@Z
453220 - ??0WakeUpActionPacket@GAME@@QEAA@AEBV01@@Z
2D95A0 - ??0WakeUpActionPacket@GAME@@QEAA@XZ
44EF70 - ??0WalkAction@GAME@@QEAA@AEBV01@@Z
701B0 - ??0WalkAction@GAME@@QEAA@IAEBVWorldVec3@1@0I@Z
452680 - ??0WalkPacket@GAME@@QEAA@AEBV01@@Z
2D72A0 - ??0WalkPacket@GAME@@QEAA@XZ
452080 - ??0WarpEntityPacket@GAME@@QEAA@AEBV01@@Z
2D5D10 - ??0WarpEntityPacket@GAME@@QEAA@XZ
462010 - ??0Weapon@GAME@@QEAA@XZ
464EC0 - ??0WeaponArmor@GAME@@QEAA@XZ
467070 - ??0WeaponArmor_Offhand@GAME@@QEAA@XZ
465600 - ??0WeaponArmor_Shield@GAME@@QEAA@XZ
466540 - ??0WeaponHunting@GAME@@QEAA@XZ
466670 - ??0WeaponHunting_Ranged1h@GAME@@QEAA@XZ
466770 - ??0WeaponHunting_Ranged2h@GAME@@QEAA@XZ
4665F0 - ??0WeaponHunting_Spear@GAME@@QEAA@XZ
466910 - ??0WeaponMagical@GAME@@QEAA@XZ
4669A0 - ??0WeaponMagical_Staff@GAME@@QEAA@XZ
466B20 - ??0WeaponMelee@GAME@@QEAA@XZ
466F10 - ??0WeaponMelee_Axe2h@GAME@@QEAA@XZ
466C50 - ??0WeaponMelee_Axe@GAME@@QEAA@XZ
466D50 - ??0WeaponMelee_Dagger@GAME@@QEAA@XZ
466FC0 - ??0WeaponMelee_Mace2h@GAME@@QEAA@XZ
466CD0 - ??0WeaponMelee_Mace@GAME@@QEAA@XZ
466DD0 - ??0WeaponMelee_Scepter@GAME@@QEAA@XZ
466E50 - ??0WeaponMelee_Sword2h@GAME@@QEAA@XZ
466BD0 - ??0WeaponMelee_Sword@GAME@@QEAA@XZ
451D10 - ??0WorldInitPacket@GAME@@QEAA@AEBV01@@Z
2D4340 - ??0WorldInitPacket@GAME@@QEAA@XZ
3A880 - ??1?$ControllerAIStateT@VControllerAI@GAME@@VCharacter@2@@GAME@@UEAA@XZ
3A880 - ??1?$ControllerAIStateT@VControllerCerberus@GAME@@VCerberus@2@@GAME@@UEAA@XZ
3A880 - ??1?$ControllerAIStateT@VControllerMegalesios@GAME@@VMegalesios@2@@GAME@@UEAA@XZ
3A880 - ??1?$ControllerAIStateT@VControllerMegalesios@GAME@@VMonster@2@@GAME@@UEAA@XZ
3A880 - ??1?$ControllerAIStateT@VControllerMonster@GAME@@VMonster@2@@GAME@@UEAA@XZ
3A880 - ??1?$ControllerAIStateT@VControllerMonsterHidden@GAME@@VMonster@2@@GAME@@UEAA@XZ
3A880 - ??1?$ControllerAIStateT@VControllerMonsterSynergy@GAME@@VMonster@2@@GAME@@UEAA@XZ
3A880 - ??1?$ControllerAIStateT@VControllerNpc2@GAME@@VNpc@2@@GAME@@UEAA@XZ
3A880 - ??1?$ControllerAIStateT@VControllerNpcHerdAnimal@GAME@@VCharacter@2@@GAME@@UEAA@XZ
3A880 - ??1?$ControllerAIStateT@VControllerNpcHerdAnimal@GAME@@VNpc@2@@GAME@@UEAA@XZ
3A880 - ??1?$ControllerAIStateT@VControllerNpcHerder@GAME@@VCharacter@2@@GAME@@UEAA@XZ
3A880 - ??1?$ControllerAIStateT@VControllerPlayer@GAME@@VPlayer@2@@GAME@@UEAA@XZ
3A880 - ??1?$ControllerAIStateT@VControllerSpirit@GAME@@VMonster@2@@GAME@@UEAA@XZ
3A880 - ??1?$ControllerAIStateT@VControllerSpiritHost@GAME@@VSpiritHost@2@@GAME@@UEAA@XZ
3A880 - ??1?$ControllerAIStateT@VControllerStationaryMonster@GAME@@VMonster@2@@GAME@@UEAA@XZ
3A880 - ??1?$ControllerAIStateT@VControllerTerracotta@GAME@@VMonster@2@@GAME@@UEAA@XZ
3A880 - ??1?$ControllerAIStateT@VControllerTyphonChained@GAME@@VMonster@2@@GAME@@UEAA@XZ
3A880 - ??1?$ControllerMonsterState@VControllerCerberus@GAME@@VCerberus@2@@GAME@@UEAA@XZ
3A880 - ??1?$ControllerMonsterState@VControllerMegalesios@GAME@@VMegalesios@2@@GAME@@UEAA@XZ
3A880 - ??1?$ControllerMonsterState@VControllerMegalesios@GAME@@VMonster@2@@GAME@@UEAA@XZ
3A880 - ??1?$ControllerMonsterState@VControllerMonster@GAME@@VMonster@2@@GAME@@UEAA@XZ
3A880 - ??1?$ControllerMonsterState@VControllerMonsterHidden@GAME@@VMonster@2@@GAME@@UEAA@XZ
3A880 - ??1?$ControllerMonsterState@VControllerMonsterSynergy@GAME@@VMonster@2@@GAME@@UEAA@XZ
3A880 - ??1?$ControllerMonsterState@VControllerSpirit@GAME@@VMonster@2@@GAME@@UEAA@XZ
3A880 - ??1?$ControllerMonsterState@VControllerSpiritHost@GAME@@VSpiritHost@2@@GAME@@UEAA@XZ
3A880 - ??1?$ControllerMonsterState@VControllerStationaryMonster@GAME@@VMonster@2@@GAME@@UEAA@XZ
3A880 - ??1?$ControllerMonsterState@VControllerTerracotta@GAME@@VMonster@2@@GAME@@UEAA@XZ
3A880 - ??1?$ControllerMonsterState@VControllerTyphonChained@GAME@@VMonster@2@@GAME@@UEAA@XZ
14560 - ??1?$Singleton@VQuest2Repository@GAME@@@GAME@@IEAA@XZ
141E0 - ??1Achievement@GAME@@UEAA@XZ
2D5910 - ??1AckEntityPacket@GAME@@UEAA@XZ
A81D0 - ??1ActivateSkillConfigCmd@GAME@@UEAA@XZ
2C2DB0 - ??1ActivateSkillConfigCmdPacket@GAME@@UEAA@XZ
194B0 - ??1ActivityManager@GAME@@QEAA@XZ
A5210 - ??1AddInventoryItemConfigCmd@GAME@@UEAA@XZ
2BBCA0 - ??1AddInventoryItemConfigCmdPacket@GAME@@UEAA@XZ
2D2B70 - ??1AddPetBonusFxPakPacket@GAME@@UEAA@XZ
A8B90 - ??1AdjustFactionConfigCmd@GAME@@UEAA@XZ
2C3B80 - ??1AdjustFactionConfigCmdPacket@GAME@@UEAA@XZ
2DB830 - ??1AllPlayersBasicInfoPacket@GAME@@UEAA@XZ
2DA490 - ??1AllPlayersHeartbeatPacket@GAME@@UEAA@XZ
19B70 - ??1AmbientCharacter@GAME@@UEAA@XZ
1BD10 - ??1AmbientShadow@GAME@@QEAA@XZ
1C770 - ??1AngerManager@GAME@@QEAA@XZ
22BE0 - ??1AnimationSet@GAME@@UEAA@XZ
23E40 - ??1Apparatus@GAME@@UEAA@XZ
24080 - ??1AreaOfInterest@GAME@@UEAA@XZ
27480 - ??1AreaTriggerHookPack@GAME@@UEAA@XZ
27850 - ??1Armor@GAME@@UEAA@XZ
2ADF0 - ??1ArmorJewelry@GAME@@UEAA@XZ
2ADF0 - ??1ArmorJewelry_Amulet@GAME@@UEAA@XZ
2ADF0 - ??1ArmorJewelry_Bracelet@GAME@@UEAA@XZ
2ADF0 - ??1ArmorJewelry_Medal@GAME@@UEAA@XZ
2ADF0 - ??1ArmorJewelry_Ring@GAME@@UEAA@XZ
2B3E0 - ??1ArmorMisc@GAME@@UEAA@XZ
2BD90 - ??1ArmorMisc_Clothing@GAME@@UEAA@XZ
2B540 - ??1ArmorMisc_Vestment@GAME@@UEAA@XZ
2C670 - ??1ArmorProtective@GAME@@UEAA@XZ
2C670 - ??1ArmorProtective_Chest@GAME@@UEAA@XZ
2C670 - ??1ArmorProtective_Feet@GAME@@UEAA@XZ
2C670 - ??1ArmorProtective_Hands@GAME@@UEAA@XZ
2C670 - ??1ArmorProtective_Head@GAME@@UEAA@XZ
2C670 - ??1ArmorProtective_Legs@GAME@@UEAA@XZ
2C670 - ??1ArmorProtective_Shoulders@GAME@@UEAA@XZ
2C670 - ??1ArmorProtective_Waist@GAME@@UEAA@XZ
A2960 - ??1AttachItemConfigCmd@GAME@@UEAA@XZ
2B52B0 - ??1AttachItemConfigCmdPacket@GAME@@UEAA@XZ
A8E30 - ??1AttachPetAutocastConfigCmd@GAME@@UEAA@XZ
2C3D60 - ??1AttachPetAutocastConfigCmdPacket@GAME@@UEAA@XZ
6EF70 - ??1AttackAction@GAME@@UEAA@XZ
2D7990 - ??1AttackPacket@GAME@@UEAA@XZ
32A00 - ??1AttackRandoms@GAME@@UEAA@XZ
32E90 - ??1AttributePak@GAME@@UEAA@XZ
345C0 - ??1AttributeRange@GAME@@QEAA@XZ
15250 - ??1AuraContainer@GAME@@QEAA@XZ
35150 - ??1AuraManager@GAME@@QEAA@XZ
DD510 - ??1BandariTeleportPoint@GAME@@UEAA@XZ
36310 - ??1BindingInteractable@GAME@@UEAA@XZ
2C01B0 - ??1BonusToClientPacket@GAME@@UEAA@XZ
2C1690 - ??1BonusToServerPacket@GAME@@UEAA@XZ
ADBA0 - ??1CerberusGeyserMarker@GAME@@UEAA@XZ
2CD00 - ??1ChallengeArea@GAME@@QEAA@XZ
90550 - ??1CharAttribute@GAME@@UEAA@XZ
949A0 - ??1CharAttributeAccumulator@GAME@@QEAA@XZ
90550 - ??1CharAttributeAttackSpeed@GAME@@UEAA@XZ
90550 - ??1CharAttributeAttackSpeedMod@GAME@@UEAA@XZ
90550 - ??1CharAttributeMod@GAME@@UEAA@XZ
90550 - ??1CharAttributeMod_AttackSpeed@GAME@@UEAA@XZ
90550 - ??1CharAttributeMod_Constitution@GAME@@UEAA@XZ
90550 - ??1CharAttributeMod_Dexterity@GAME@@UEAA@XZ
90550 - ??1CharAttributeMod_HealIncrease@GAME@@UEAA@XZ
90550 - ??1CharAttributeMod_Intelligence@GAME@@UEAA@XZ
90550 - ??1CharAttributeMod_Life@GAME@@UEAA@XZ
90550 - ??1CharAttributeMod_LifeRegen@GAME@@UEAA@XZ
90550 - ??1CharAttributeMod_Mana@GAME@@UEAA@XZ
90550 - ??1CharAttributeMod_ManaLimitReserve@GAME@@UEAA@XZ
90550 - ??1CharAttributeMod_ManaLimitReserveReduction@GAME@@UEAA@XZ
90550 - ??1CharAttributeMod_ManaRegen@GAME@@UEAA@XZ
90550 - ??1CharAttributeMod_RunSpeed@GAME@@UEAA@XZ
90550 - ??1CharAttributeMod_SpellCastSpeed@GAME@@UEAA@XZ
90550 - ??1CharAttributeMod_Strength@GAME@@UEAA@XZ
90550 - ??1CharAttributeMod_TotalSpeed@GAME@@UEAA@XZ
90550 - ??1CharAttributeOtherSpeed@GAME@@UEAA@XZ
90550 - ??1CharAttributeOtherSpeedMod@GAME@@UEAA@XZ
90550 - ??1CharAttributePriMod@GAME@@UEAA@XZ
90550 - ??1CharAttributeSecMod@GAME@@UEAA@XZ
94BB0 - ??1CharAttributeStore@GAME@@UEAA@XZ
31D70 - ??1CharAttributeStore_Bio@GAME@@UEAA@XZ
31D70 - ??1CharAttributeStore_Equipment@GAME@@UEAA@XZ
31D70 - ??1CharAttributeStore_EquipmentPenaltyReduction@GAME@@UEAA@XZ
31D70 - ??1CharAttributeStore_Max@GAME@@UEAA@XZ
31D70 - ??1CharAttributeStore_Min@GAME@@UEAA@XZ
31D70 - ??1CharAttributeStore_Skill@GAME@@UEAA@XZ
31D70 - ??1CharAttributeStore_SkillPenalty@GAME@@UEAA@XZ
31D70 - ??1CharAttributeStore_SkillPenaltyReduction@GAME@@UEAA@XZ
90550 - ??1CharAttributeVal@GAME@@UEAA@XZ
90550 - ??1CharAttributeValPri@GAME@@UEAA@XZ
90550 - ??1CharAttributeValSec@GAME@@UEAA@XZ
90550 - ??1CharAttributeValSpeed@GAME@@UEAA@XZ
90550 - ??1CharAttributeVal_ArmorDexterityReqReduction@GAME@@UEAA@XZ
90550 - ??1CharAttributeVal_ArmorIntelligenceReqReduction@GAME@@UEAA@XZ
90550 - ??1CharAttributeVal_ArmorStrengthReqReduction@GAME@@UEAA@XZ
90550 - ??1CharAttributeVal_AttackSpeed@GAME@@UEAA@XZ
90550 - ??1CharAttributeVal_BaseAttackSpeed@GAME@@UEAA@XZ
90550 - ??1CharAttributeVal_Constitution@GAME@@UEAA@XZ
90550 - ??1CharAttributeVal_DefensiveAbility@GAME@@UEAA@XZ
90550 - ??1CharAttributeVal_DefensiveAbilityModifier@GAME@@UEAA@XZ
90550 - ??1CharAttributeVal_DefensiveBlockRecoveryReduction@GAME@@UEAA@XZ
90550 - ??1CharAttributeVal_DeflectProjectile@GAME@@UEAA@XZ
90550 - ??1CharAttributeVal_Dexterity@GAME@@UEAA@XZ
90550 - ??1CharAttributeVal_DodgePercent@GAME@@UEAA@XZ
90550 - ??1CharAttributeVal_EnergyAbsorptionPercent@GAME@@UEAA@XZ
90550 - ??1CharAttributeVal_GlobalReqReduction@GAME@@UEAA@XZ
90550 - ??1CharAttributeVal_HuntingDexterityReqReduction@GAME@@UEAA@XZ
90550 - ??1CharAttributeVal_HuntingIntelligenceReqReduction@GAME@@UEAA@XZ
90550 - ??1CharAttributeVal_HuntingStrengthReqReduction@GAME@@UEAA@XZ
90550 - ??1CharAttributeVal_IncreasedExperience@GAME@@UEAA@XZ
90550 - ??1CharAttributeVal_Intelligence@GAME@@UEAA@XZ
90550 - ??1CharAttributeVal_JewelryDexterityReqReduction@GAME@@UEAA@XZ
90550 - ??1CharAttributeVal_JewelryIntelligenceReqReduction@GAME@@UEAA@XZ
90550 - ??1CharAttributeVal_JewelryStrengthReqReduction@GAME@@UEAA@XZ
90550 - ??1CharAttributeVal_LevelReqReduction@GAME@@UEAA@XZ
90550 - ??1CharAttributeVal_Life@GAME@@UEAA@XZ
90550 - ??1CharAttributeVal_LifeRegen@GAME@@UEAA@XZ
90550 - ??1CharAttributeVal_LightRadius@GAME@@UEAA@XZ
90550 - ??1CharAttributeVal_Mana@GAME@@UEAA@XZ
90550 - ??1CharAttributeVal_ManaLimitReserve@GAME@@UEAA@XZ
90550 - ??1CharAttributeVal_ManaLimitReserveReduction@GAME@@UEAA@XZ
90550 - ??1CharAttributeVal_ManaRegen@GAME@@UEAA@XZ
90550 - ??1CharAttributeVal_MeleeDexterityReqReduction@GAME@@UEAA@XZ
90550 - ??1CharAttributeVal_MeleeIntelligenceReqReduction@GAME@@UEAA@XZ
90550 - ??1CharAttributeVal_MeleeStrengthReqReduction@GAME@@UEAA@XZ
90550 - ??1CharAttributeVal_OffensiveAbility@GAME@@UEAA@XZ
90550 - ??1CharAttributeVal_OffensiveAbilityModifier@GAME@@UEAA@XZ
90550 - ??1CharAttributeVal_RunSpeed@GAME@@UEAA@XZ
90550 - ??1CharAttributeVal_ShieldDexterityReqReduction@GAME@@UEAA@XZ
90550 - ??1CharAttributeVal_ShieldIntelligenceReqReduction@GAME@@UEAA@XZ
90550 - ??1CharAttributeVal_ShieldStrengthReqReduction@GAME@@UEAA@XZ
90550 - ??1CharAttributeVal_SpellCastSpeed@GAME@@UEAA@XZ
90550 - ??1CharAttributeVal_StaffDexterityReqReduction@GAME@@UEAA@XZ
90550 - ??1CharAttributeVal_StaffIntelligenceReqReduction@GAME@@UEAA@XZ
90550 - ??1CharAttributeVal_StaffStrengthReqReduction@GAME@@UEAA@XZ
90550 - ??1CharAttributeVal_Strength@GAME@@UEAA@XZ
90550 - ??1CharAttributeVal_Weapon2HDexterityReqReduction@GAME@@UEAA@XZ
90550 - ??1CharAttributeVal_Weapon2HIntelligenceReqReduction@GAME@@UEAA@XZ
90550 - ??1CharAttributeVal_Weapon2HStrengthReqReduction@GAME@@UEAA@XZ
90550 - ??1CharAttributeVal_WeaponDexterityReqReduction@GAME@@UEAA@XZ
90550 - ??1CharAttributeVal_WeaponIntelligenceReqReduction@GAME@@UEAA@XZ
90550 - ??1CharAttributeVal_WeaponStrengthReqReduction@GAME@@UEAA@XZ
A9B60 - ??1CharFxPak@GAME@@UEAA@XZ
A7730 - ??1CharPickUpConfigCmd@GAME@@UEAA@XZ
43370 - ??1Character@GAME@@UEAA@XZ
6EF70 - ??1CharacterActionBase@GAME@@UEAA@XZ
76220 - ??1CharacterActionHandler@GAME@@UEAA@XZ
768E0 - ??1CharacterBio@GAME@@QEAA@XZ
7A630 - ??1CharacterHookPack@GAME@@UEAA@XZ
7AE50 - ??1CharacterMovementManager@GAME@@QEAA@XZ
B0D70 - ??1CharonGeyserMarker@GAME@@UEAA@XZ
6EF70 - ??1ChatAction@GAME@@UEAA@XZ
2D8F40 - ??1ChatActionPacket@GAME@@UEAA@XZ
2C8D60 - ??1ChatCommandUseSkillPacket@GAME@@UEAA@XZ
AD740 - ??1ChestHookPack@GAME@@UEAA@XZ
A6AC0 - ??1CleanseShrineConfigCmd@GAME@@UEAA@XZ
2BE0A0 - ??1CleanseShrineConfigCmdPacket@GAME@@UEAA@XZ
2CD970 - ??1CleanseShrinePacket@GAME@@UEAA@XZ
2D3C90 - ??1ClearMutatorsPacket@GAME@@UEAA@XZ
CA320 - ??1CombatAttribute@GAME@@UEAA@XZ
CA320 - ??1CombatAttributeAbsDamage@GAME@@UEAA@XZ
CA320 - ??1CombatAttributeAbsDamageElemental@GAME@@UEAA@XZ
CA320 - ??1CombatAttributeAbsDamageMod@GAME@@UEAA@XZ
CA320 - ??1CombatAttributeAbsDamage_Disruption@GAME@@UEAA@XZ
CA320 - ??1CombatAttributeAbsDamage_LifeLeech@GAME@@UEAA@XZ
CA320 - ??1CombatAttributeAbsDamage_ManaBurn@GAME@@UEAA@XZ
CA320 - ??1CombatAttributeAbsDamage_PercentLife@GAME@@UEAA@XZ
CA320 - ??1CombatAttributeAbsDefense@GAME@@UEAA@XZ
CA320 - ??1CombatAttributeAbsDefenseMod@GAME@@UEAA@XZ
CA320 - ??1CombatAttributeAbsDefenseRestricted@GAME@@UEAA@XZ
CA320 - ??1CombatAttributeAbsDefenseTotalSpeed@GAME@@UEAA@XZ
CF340 - ??1CombatAttributeAccumulator@GAME@@UEAA@XZ
CA320 - ??1CombatAttributeDamage_BasePhysical@GAME@@UEAA@XZ
CA320 - ??1CombatAttributeDamage_BonusPhysical@GAME@@UEAA@XZ
CA320 - ??1CombatAttributeDefenseCap@GAME@@UEAA@XZ
CA320 - ??1CombatAttributeDefenseMisc@GAME@@UEAA@XZ
CA320 - ??1CombatAttributeDefenseMiscRestricted@GAME@@UEAA@XZ
CA320 - ??1CombatAttributeDefense_AbsorptionProtection@GAME@@UEAA@XZ
CA320 - ??1CombatAttributeDurDamage@GAME@@UEAA@XZ
CA320 - ??1CombatAttributeDurDamageElemental@GAME@@UEAA@XZ
CA320 - ??1CombatAttributeDurDamageMod@GAME@@UEAA@XZ
CA320 - ??1CombatAttributeDurDefense@GAME@@UEAA@XZ
CA320 - ??1CombatAttributeDurDefenseMod@GAME@@UEAA@XZ
CA320 - ??1CombatAttributeDurFixedDamage@GAME@@UEAA@XZ
CA320 - ??1CombatAttributeInfluenceDamage@GAME@@UEAA@XZ
CA320 - ??1CombatAttributeInfluenceDamage_Confusion@GAME@@UEAA@XZ
CA320 - ??1CombatAttributeInfluenceDamage_Convert@GAME@@UEAA@XZ
CA320 - ??1CombatAttributeInfluenceDamage_Fear@GAME@@UEAA@XZ
CA320 - ??1CombatAttributeInfluenceDamage_Taunt@GAME@@UEAA@XZ
CA320 - ??1CombatAttributeReflexDamage@GAME@@UEAA@XZ
CA320 - ??1CombatAttributeTotalDamageMod@GAME@@UEAA@XZ
CA320 - ??1CombatAttribute_DamageCritBonus@GAME@@UEAA@XZ
CA320 - ??1CombatAttribute_DamageMultiplier@GAME@@UEAA@XZ
D1BD0 - ??1CombatDisplayAccumulator@GAME@@UEAA@XZ
D1E60 - ??1CombatManager@GAME@@UEAA@XZ
A2810 - ??1CompleteRelicsConfigCmd@GAME@@UEAA@XZ
2B64F0 - ??1CompleteRelicsConfigCmdPacket@GAME@@UEAA@XZ
2D3E90 - ??1ControlPlayerRespawnPacket@GAME@@UEAA@XZ
D8B00 - ??1Controller@GAME@@UEAA@XZ
D8CF0 - ??1ControllerAI@GAME@@UEAA@XZ
3A880 - ??1ControllerAIState@GAME@@UEAA@XZ
14560 - ??1ControllerAIStateData@GAME@@QEAA@XZ
3A880 - ??1ControllerAIStatePreStart@GAME@@UEAA@XZ
DC770 - ??1ControllerAlly@GAME@@UEAA@XZ
DD6A0 - ??1ControllerBaseCharacter@GAME@@UEAA@XZ
DE840 - ??1ControllerCerberus@GAME@@UEAA@XZ
3A880 - ??1ControllerCerberusStateAttack@GAME@@UEAA@XZ
3A880 - ??1ControllerCerberusStateRoar@GAME@@UEAA@XZ
E1270 - ??1ControllerCharacter@GAME@@UEAA@XZ
E1270 - ??1ControllerCombat@GAME@@UEAA@XZ
E3020 - ??1ControllerGraeae@GAME@@UEAA@XZ
3A880 - ??1ControllerGraeaeStateAttack@GAME@@UEAA@XZ
3A880 - ??1ControllerGraeaeStateDead@GAME@@UEAA@XZ
3A880 - ??1ControllerGraeaeStateDying@GAME@@UEAA@XZ
3A880 - ??1ControllerGraeaeStateIdle@GAME@@UEAA@XZ
3A880 - ??1ControllerGraeaeStateToggleEye@GAME@@UEAA@XZ
E42B0 - ??1ControllerHades@GAME@@UEAA@XZ
3A880 - ??1ControllerMegalesiosStateLaunchBursts@GAME@@UEAA@XZ
3A880 - ??1ControllerMegalesiosStateStartup@GAME@@UEAA@XZ
EA5C0 - ??1ControllerMonster@GAME@@UEAA@XZ
3A880 - ??1ControllerMonsterStateAlertBeforePursue@GAME@@UEAA@XZ
3A880 - ??1ControllerMonsterStateAttack@GAME@@UEAA@XZ
3A880 - ??1ControllerMonsterStateCharge@GAME@@UEAA@XZ
3A880 - ??1ControllerMonsterStateConfused@GAME@@UEAA@XZ
3A880 - ??1ControllerMonsterStateDead@GAME@@UEAA@XZ
3A880 - ??1ControllerMonsterStateDefendLeader@GAME@@UEAA@XZ
3A880 - ??1ControllerMonsterStateDodgeAttack@GAME@@UEAA@XZ
3A880 - ??1ControllerMonsterStateDying@GAME@@UEAA@XZ
3A880 - ??1ControllerMonsterStateEmote@GAME@@UEAA@XZ
3A880 - ??1ControllerMonsterStateFlee@GAME@@UEAA@XZ
3A880 - ??1ControllerMonsterStateFollowLeader@GAME@@UEAA@XZ
3A880 - ??1ControllerMonsterStateGettingUp@GAME@@UEAA@XZ
3A880 - ??1ControllerMonsterStateHidden@GAME@@UEAA@XZ
3A880 - ??1ControllerMonsterStateIdle@GAME@@UEAA@XZ
3A880 - ??1ControllerMonsterStateImmobile@GAME@@UEAA@XZ
3A880 - ??1ControllerMonsterStateJumpAttack@GAME@@UEAA@XZ
3A880 - ??1ControllerMonsterStateKnockedDown@GAME@@UEAA@XZ
3A880 - ??1ControllerMonsterStateMove@GAME@@UEAA@XZ
3A880 - ??1ControllerMonsterStateNavigateObstacle@GAME@@UEAA@XZ
3A880 - ??1ControllerMonsterStatePanic@GAME@@UEAA@XZ
3A880 - ??1ControllerMonsterStateParalyze@GAME@@UEAA@XZ
3A880 - ??1ControllerMonsterStatePatrol@GAME@@UEAA@XZ
3A880 - ??1ControllerMonsterStatePursue@GAME@@UEAA@XZ
3A880 - ??1ControllerMonsterStateQuestMove@GAME@@UEAA@XZ
3A880 - ??1ControllerMonsterStateQuestPlayAnimation@GAME@@UEAA@XZ
3A880 - ??1ControllerMonsterStateQuestUseSkill@GAME@@UEAA@XZ
3A880 - ??1ControllerMonsterStateQuestWalk@GAME@@UEAA@XZ
3A880 - ??1ControllerMonsterStateRepositionForAttack@GAME@@UEAA@XZ
3A880 - ??1ControllerMonsterStateReturn@GAME@@UEAA@XZ
3A880 - ??1ControllerMonsterStateReturnFast@GAME@@UEAA@XZ
3A880 - ??1ControllerMonsterStateRoam@GAME@@UEAA@XZ
3A880 - ??1ControllerMonsterStateScared@GAME@@UEAA@XZ
3A880 - ??1ControllerMonsterStateSleep@GAME@@UEAA@XZ
3A880 - ??1ControllerMonsterStateStartup@GAME@@UEAA@XZ
3A880 - ??1ControllerMonsterStateStunned@GAME@@UEAA@XZ
3A880 - ??1ControllerMonsterStateTakeHit@GAME@@UEAA@XZ
3A880 - ??1ControllerMonsterStateTrapped@GAME@@UEAA@XZ
3A880 - ??1ControllerMonsterStateUseSkillOnAlly@GAME@@UEAA@XZ
3A880 - ??1ControllerMonsterStateUseSkillOnPoint@GAME@@UEAA@XZ
3A880 - ??1ControllerMonsterStateWaitToAttack@GAME@@UEAA@XZ
3A880 - ??1ControllerMonsterStateWander@GAME@@UEAA@XZ
3A880 - ??1ControllerMonsterStateWanderPause@GAME@@UEAA@XZ
1038C0 - ??1ControllerMonsterSynergy@GAME@@UEAA@XZ
3A880 - ??1ControllerMonsterSynergyStateDying@GAME@@UEAA@XZ
3A880 - ??1ControllerMonsterSynergyStateSuperAttack@GAME@@UEAA@XZ
108640 - ??1ControllerNpc2@GAME@@UEAA@XZ
3A880 - ??1ControllerNpcAnimalStateFollowHerd@GAME@@UEAA@XZ
3A880 - ??1ControllerNpcAnimalStateWiggle@GAME@@UEAA@XZ
3A880 - ??1ControllerNpcStateAlert@GAME@@UEAA@XZ
3A880 - ??1ControllerNpcStateBase@GAME@@UEAA@XZ
3A880 - ??1ControllerNpcStateChat@GAME@@UEAA@XZ
3A880 - ??1ControllerNpcStateDirectHerd@GAME@@UEAA@XZ
3A880 - ??1ControllerNpcStateIdle@GAME@@UEAA@XZ
3A880 - ??1ControllerNpcStateLongIdle@GAME@@UEAA@XZ
3A880 - ??1ControllerNpcStateQuestMove@GAME@@UEAA@XZ
3A880 - ??1ControllerNpcStateQuestOrient@GAME@@UEAA@XZ
3A880 - ??1ControllerNpcStateQuestPlayAnimation@GAME@@UEAA@XZ
3A880 - ??1ControllerNpcStateQuestWalk@GAME@@UEAA@XZ
3A880 - ??1ControllerNpcStateStartup@GAME@@UEAA@XZ
3A880 - ??1ControllerNpcStateUseSkillOnAlly@GAME@@UEAA@XZ
3A880 - ??1ControllerNpcStateWander@GAME@@UEAA@XZ
3A880 - ??1ControllerNpcStateWatchAttraction@GAME@@UEAA@XZ
110F60 - ??1ControllerOrmenos@GAME@@UEAA@XZ
3A880 - ??1ControllerOrmenosStateAttack@GAME@@UEAA@XZ
1119E0 - ??1ControllerPet@GAME@@UEAA@XZ
112170 - ??1ControllerPlayer@GAME@@UEAA@XZ
3A880 - ??1ControllerPlayerState@GAME@@UEAA@XZ
3A880 - ??1ControllerPlayerStateChargeToUseSkill@GAME@@UEAA@XZ
3A880 - ??1ControllerPlayerStateDying@GAME@@UEAA@XZ
3A880 - ??1ControllerPlayerStateIdle@GAME@@UEAA@XZ
3A880 - ??1ControllerPlayerStateImmobilized@GAME@@UEAA@XZ
3A880 - ??1ControllerPlayerStateJumpToUseSkill@GAME@@UEAA@XZ
3A880 - ??1ControllerPlayerStateKnockedDown@GAME@@UEAA@XZ
3A880 - ??1ControllerPlayerStateLongIdle@GAME@@UEAA@XZ
3A880 - ??1ControllerPlayerStateMoveAndUseSkill@GAME@@UEAA@XZ
3A880 - ??1ControllerPlayerStateMoveTo@GAME@@UEAA@XZ
3A880 - ??1ControllerPlayerStateMoveToActorBase@GAME@@UEAA@XZ
3A880 - ??1ControllerPlayerStateMoveToFixedItem@GAME@@UEAA@XZ
3A880 - ??1ControllerPlayerStateMoveToItem@GAME@@UEAA@XZ
3A880 - ??1ControllerPlayerStateMoveToNpc@GAME@@UEAA@XZ
3A880 - ??1ControllerPlayerStateMoveToUseSkill@GAME@@UEAA@XZ
3A880 - ??1ControllerPlayerStatePickupItem@GAME@@UEAA@XZ
3A880 - ??1ControllerPlayerStateRespawning@GAME@@UEAA@XZ
3A880 - ??1ControllerPlayerStateSleep@GAME@@UEAA@XZ
3A880 - ??1ControllerPlayerStateStartup@GAME@@UEAA@XZ
3A880 - ??1ControllerPlayerStateStunned@GAME@@UEAA@XZ
3A880 - ??1ControllerPlayerStateTalkToNpc@GAME@@UEAA@XZ
3A880 - ??1ControllerPlayerStateTrapped@GAME@@UEAA@XZ
3A880 - ??1ControllerPlayerStateUseFixedItem@GAME@@UEAA@XZ
3A880 - ??1ControllerPlayerStateUseSkill@GAME@@UEAA@XZ
3A880 - ??1ControllerPlayerStateUseSkillWhileTrapped@GAME@@UEAA@XZ
3A880 - ??1ControllerSpiritHostState@GAME@@UEAA@XZ
3A880 - ??1ControllerSpiritHostStateAnimate@GAME@@UEAA@XZ
3A880 - ??1ControllerSpiritHostStateStartup@GAME@@UEAA@XZ
3A880 - ??1ControllerSpiritState@GAME@@UEAA@XZ
3A880 - ??1ControllerSpiritStateAttackToAnimate@GAME@@UEAA@XZ
3A880 - ??1ControllerSpiritStateIdle@GAME@@UEAA@XZ
3A880 - ??1ControllerSpiritStatePursueToAnimate@GAME@@UEAA@XZ
3A880 - ??1ControllerSpiritStateStartup@GAME@@UEAA@XZ
E1270 - ??1ControllerStooge@GAME@@UEAA@XZ
3A880 - ??1ControllerTerracottaStateAttackMarch@GAME@@UEAA@XZ
3A880 - ??1ControllerTerracottaStateStartup@GAME@@UEAA@XZ
12B770 - ??1Conversation@GAME@@QEAA@XZ
12CB10 - ??1ConversationStep@GAME@@QEAA@XZ
12FC90 - ??1ConversionAttributeAccumulator@GAME@@QEAA@XZ
A53F0 - ??1CreateArtifactConfigCmd@GAME@@UEAA@XZ
2BC360 - ??1CreateArtifactConfigCmdPacket@GAME@@UEAA@XZ
2C88C0 - ??1CreateEntityPacket@GAME@@UEAA@XZ
2CA530 - ??1CreateGravestonePacket@GAME@@UEAA@XZ
2C7D80 - ??1CreateItemPacket@GAME@@UEAA@XZ
2CA8C0 - ??1CreateItemTeleportPacket@GAME@@UEAA@XZ
A4670 - ??1CreateProjectileConfigCmd@GAME@@UEAA@XZ
2B9C50 - ??1CreateProjectileConfigCmdPacket@GAME@@UEAA@XZ
A7420 - ??1CreateRemoveSkillBuffConfigCmd@GAME@@UEAA@XZ
2B6E30 - ??1CreateRemoveSkillBuffConfigCmdPacket@GAME@@UEAA@XZ
131C40 - ??1CursorHandler@GAME@@UEAA@XZ
131F70 - ??1CursorHandlerAttributeReset@GAME@@UEAA@XZ
131F70 - ??1CursorHandlerDevotionReset@GAME@@UEAA@XZ
132AD0 - ??1CursorHandlerEnchant@GAME@@UEAA@XZ
131F70 - ??1CursorHandlerFactionBooster@GAME@@UEAA@XZ
134CB0 - ??1CursorHandlerHotSlotOption@GAME@@UEAA@XZ
131F70 - ??1CursorHandlerItemMove@GAME@@UEAA@XZ
131F70 - ??1CursorHandlerItemUse@GAME@@UEAA@XZ
138660 - ??1CursorHandlerRelicCombine@GAME@@UEAA@XZ
139D10 - ??1CursorHandlerTransmute@GAME@@UEAA@XZ
13ACD0 - ??1DamageAttribute@GAME@@UEAA@XZ
142910 - ??1DamageAttributeAbs@GAME@@UEAA@XZ
142910 - ??1DamageAttributeAbsBase@GAME@@UEAA@XZ
142910 - ??1DamageAttributeAbsBaseElemental@GAME@@UEAA@XZ
142910 - ??1DamageAttributeAbsBase_Aether@GAME@@UEAA@XZ
142910 - ??1DamageAttributeAbsBase_Chaos@GAME@@UEAA@XZ
142910 - ??1DamageAttributeAbsBase_Cold@GAME@@UEAA@XZ
142910 - ??1DamageAttributeAbsBase_Fire@GAME@@UEAA@XZ
142910 - ??1DamageAttributeAbsBase_Life@GAME@@UEAA@XZ
142910 - ??1DamageAttributeAbsBase_Lightning@GAME@@UEAA@XZ
142910 - ??1DamageAttributeAbsBase_Poison@GAME@@UEAA@XZ
142910 - ??1DamageAttributeAbsBonus@GAME@@UEAA@XZ
142910 - ??1DamageAttributeAbsBonusElemental@GAME@@UEAA@XZ
145B90 - ??1DamageAttributeAbsMod@GAME@@UEAA@XZ
145B90 - ??1DamageAttributeAbsModBase@GAME@@UEAA@XZ
145B90 - ??1DamageAttributeAbsModBonus@GAME@@UEAA@XZ
145B90 - ??1DamageAttributeAbsMod_Aether@GAME@@UEAA@XZ
145B90 - ??1DamageAttributeAbsMod_Bleeding@GAME@@UEAA@XZ
145B90 - ??1DamageAttributeAbsMod_Chaos@GAME@@UEAA@XZ
145B90 - ??1DamageAttributeAbsMod_Cold@GAME@@UEAA@XZ
145B90 - ??1DamageAttributeAbsMod_CritDamageModifier@GAME@@UEAA@XZ
145B90 - ??1DamageAttributeAbsMod_DamageMultiplier@GAME@@UEAA@XZ
145B90 - ??1DamageAttributeAbsMod_Elemental@GAME@@UEAA@XZ
145B90 - ??1DamageAttributeAbsMod_Fire@GAME@@UEAA@XZ
145B90 - ??1DamageAttributeAbsMod_Freeze@GAME@@UEAA@XZ
145B90 - ??1DamageAttributeAbsMod_Knockdown@GAME@@UEAA@XZ
145B90 - ??1DamageAttributeAbsMod_Life@GAME@@UEAA@XZ
145B90 - ??1DamageAttributeAbsMod_Lightning@GAME@@UEAA@XZ
145B90 - ??1DamageAttributeAbsMod_ManaBurn@GAME@@UEAA@XZ
145B90 - ??1DamageAttributeAbsMod_Petrify@GAME@@UEAA@XZ
145B90 - ??1DamageAttributeAbsMod_Physical@GAME@@UEAA@XZ
145B90 - ??1DamageAttributeAbsMod_Pierce@GAME@@UEAA@XZ
145B90 - ??1DamageAttributeAbsMod_PierceRatio@GAME@@UEAA@XZ
145B90 - ??1DamageAttributeAbsMod_Poison@GAME@@UEAA@XZ
145B90 - ??1DamageAttributeAbsMod_Sleep@GAME@@UEAA@XZ
145B90 - ??1DamageAttributeAbsMod_Stun@GAME@@UEAA@XZ
145B90 - ??1DamageAttributeAbsMod_TotalDamageModifier@GAME@@UEAA@XZ
145B90 - ??1DamageAttributeAbsMod_Trap@GAME@@UEAA@XZ
142910 - ??1DamageAttributeAbs_Aether@GAME@@UEAA@XZ
142910 - ??1DamageAttributeAbs_BonusPhysical@GAME@@UEAA@XZ
142910 - ??1DamageAttributeAbs_Chaos@GAME@@UEAA@XZ
142910 - ??1DamageAttributeAbs_Cold@GAME@@UEAA@XZ
142910 - ??1DamageAttributeAbs_Confusion@GAME@@UEAA@XZ
142910 - ??1DamageAttributeAbs_Convert@GAME@@UEAA@XZ
142910 - ??1DamageAttributeAbs_Disruption@GAME@@UEAA@XZ
142910 - ??1DamageAttributeAbs_ElementalDamage@GAME@@UEAA@XZ
142910 - ??1DamageAttributeAbs_Fear@GAME@@UEAA@XZ
142910 - ??1DamageAttributeAbs_Fire@GAME@@UEAA@XZ
142910 - ??1DamageAttributeAbs_Life@GAME@@UEAA@XZ
142910 - ??1DamageAttributeAbs_LifeLeech@GAME@@UEAA@XZ
142910 - ??1DamageAttributeAbs_Lightning@GAME@@UEAA@XZ
14ED00 - ??1DamageAttributeAbs_ManaBurn@GAME@@UEAA@XZ
142910 - ??1DamageAttributeAbs_PercentCurrentLife@GAME@@UEAA@XZ
142910 - ??1DamageAttributeAbs_Pierce@GAME@@UEAA@XZ
142910 - ??1DamageAttributeAbs_Poison@GAME@@UEAA@XZ
142910 - ??1DamageAttributeAbs_Taunt@GAME@@UEAA@XZ
14DD90 - ??1DamageAttributeDur@GAME@@UEAA@XZ
143F70 - ??1DamageAttributeDurBase@GAME@@UEAA@XZ
143F70 - ??1DamageAttributeDurBaseElemental@GAME@@UEAA@XZ
143F70 - ??1DamageAttributeDurBonus@GAME@@UEAA@XZ
143F70 - ??1DamageAttributeDurBonusElemental@GAME@@UEAA@XZ
143F70 - ??1DamageAttributeDurFixed@GAME@@UEAA@XZ
14D4E0 - ??1DamageAttributeDurMod@GAME@@UEAA@XZ
1474D0 - ??1DamageAttributeDurModBase@GAME@@UEAA@XZ
1474D0 - ??1DamageAttributeDurModBonus@GAME@@UEAA@XZ
1474D0 - ??1DamageAttributeDurMod_Aether@GAME@@UEAA@XZ
1474D0 - ??1DamageAttributeDurMod_AttackSpeed@GAME@@UEAA@XZ
1474D0 - ??1DamageAttributeDurMod_Bleeding@GAME@@UEAA@XZ
1474D0 - ??1DamageAttributeDurMod_Chaos@GAME@@UEAA@XZ
1474D0 - ??1DamageAttributeDurMod_Cold@GAME@@UEAA@XZ
1474D0 - ??1DamageAttributeDurMod_DefensiveAbility@GAME@@UEAA@XZ
1474D0 - ??1DamageAttributeDurMod_Fire@GAME@@UEAA@XZ
1474D0 - ??1DamageAttributeDurMod_Life@GAME@@UEAA@XZ
1474D0 - ??1DamageAttributeDurMod_LifeLeach@GAME@@UEAA@XZ
1474D0 - ??1DamageAttributeDurMod_Lightning@GAME@@UEAA@XZ
1474D0 - ??1DamageAttributeDurMod_ManaLeach@GAME@@UEAA@XZ
1474D0 - ??1DamageAttributeDurMod_OffensiveAbility@GAME@@UEAA@XZ
1474D0 - ??1DamageAttributeDurMod_OffensiveReduction@GAME@@UEAA@XZ
1474D0 - ??1DamageAttributeDurMod_Physical@GAME@@UEAA@XZ
1474D0 - ??1DamageAttributeDurMod_Poison@GAME@@UEAA@XZ
1474D0 - ??1DamageAttributeDurMod_RunSpeed@GAME@@UEAA@XZ
1474D0 - ??1DamageAttributeDurMod_SpellCastSpeed@GAME@@UEAA@XZ
143F70 - ??1DamageAttributeDur_Aether@GAME@@UEAA@XZ
143F70 - ??1DamageAttributeDur_AttackSpeed@GAME@@UEAA@XZ
143F70 - ??1DamageAttributeDur_Bleeding@GAME@@UEAA@XZ
143F70 - ??1DamageAttributeDur_Chaos@GAME@@UEAA@XZ
143F70 - ??1DamageAttributeDur_Cold@GAME@@UEAA@XZ
143F70 - ??1DamageAttributeDur_DefensiveAbility@GAME@@UEAA@XZ
143F70 - ??1DamageAttributeDur_DefensiveReduction@GAME@@UEAA@XZ
143F70 - ??1DamageAttributeDur_ElementalReductionPercent@GAME@@UEAA@XZ
143F70 - ??1DamageAttributeDur_ElementalResistanceReductionAbsolute@GAME@@UEAA@XZ
143F70 - ??1DamageAttributeDur_ElementalResistanceReductionPercent@GAME@@UEAA@XZ
143F70 - ??1DamageAttributeDur_Fire@GAME@@UEAA@XZ
143F70 - ??1DamageAttributeDur_Fumble@GAME@@UEAA@XZ
143F70 - ??1DamageAttributeDur_Life@GAME@@UEAA@XZ
143F70 - ??1DamageAttributeDur_LifeLeach@GAME@@UEAA@XZ
143F70 - ??1DamageAttributeDur_Lightning@GAME@@UEAA@XZ
143F70 - ??1DamageAttributeDur_ManaLeach@GAME@@UEAA@XZ
143F70 - ??1DamageAttributeDur_OffensiveAbility@GAME@@UEAA@XZ
143F70 - ??1DamageAttributeDur_OffensiveReduction@GAME@@UEAA@XZ
143F70 - ??1DamageAttributeDur_Physical@GAME@@UEAA@XZ
143F70 - ??1DamageAttributeDur_PhysicalReductionPercent@GAME@@UEAA@XZ
143F70 - ??1DamageAttributeDur_PhysicalResistanceReductionAbsolute@GAME@@UEAA@XZ
143F70 - ??1DamageAttributeDur_PhysicalResistanceReductionPercent@GAME@@UEAA@XZ
143F70 - ??1DamageAttributeDur_Poison@GAME@@UEAA@XZ
143F70 - ??1DamageAttributeDur_ProjectileFumble@GAME@@UEAA@XZ
143F70 - ??1DamageAttributeDur_RunSpeed@GAME@@UEAA@XZ
143F70 - ??1DamageAttributeDur_SpellCastSpeed@GAME@@UEAA@XZ
143F70 - ??1DamageAttributeDur_TotalDamageReductionAbsolute@GAME@@UEAA@XZ
143F70 - ??1DamageAttributeDur_TotalDamageReductionPercent@GAME@@UEAA@XZ
143F70 - ??1DamageAttributeDur_TotalResistanceReductionAbsolute@GAME@@UEAA@XZ
143F70 - ??1DamageAttributeDur_TotalResistanceReductionPercent@GAME@@UEAA@XZ
143F70 - ??1DamageAttributeDur_TotalSpeed@GAME@@UEAA@XZ
142910 - ??1DamageAttributeInfluence@GAME@@UEAA@XZ
142910 - ??1DamageAttributeInfluenceHidden@GAME@@UEAA@XZ
142910 - ??1DamageAttributeReflex@GAME@@UEAA@XZ
142910 - ??1DamageAttributeReflex_Freeze@GAME@@UEAA@XZ
142910 - ??1DamageAttributeReflex_Knockdown@GAME@@UEAA@XZ
142910 - ??1DamageAttributeReflex_Petrify@GAME@@UEAA@XZ
142910 - ??1DamageAttributeReflex_Sleep@GAME@@UEAA@XZ
142910 - ??1DamageAttributeReflex_Stun@GAME@@UEAA@XZ
142910 - ??1DamageAttributeReflex_Trap@GAME@@UEAA@XZ
1523F0 - ??1DamageAttributeStore@GAME@@UEAA@XZ
32140 - ??1DamageAttributeStore_Equipment@GAME@@UEAA@XZ
32140 - ??1DamageAttributeStore_Max@GAME@@UEAA@XZ
32140 - ??1DamageAttributeStore_Min@GAME@@UEAA@XZ
32140 - ??1DamageAttributeStore_Skill@GAME@@UEAA@XZ
14F060 - ??1DamageAttribute_BasePhysical@GAME@@UEAA@XZ
14E910 - ??1DamageAttribute_Physical@GAME@@UEAA@XZ
1842A0 - ??1DeathHandler@GAME@@UEAA@XZ
2B8BB0 - ??1DecBaseDexterityConfigCmdPacket@GAME@@UEAA@XZ
2B8E10 - ??1DecBaseIntelligenceConfigCmdPacket@GAME@@UEAA@XZ
2B90C0 - ??1DecBaseLifeConfigCmdPacket@GAME@@UEAA@XZ
2B93C0 - ??1DecBaseManaConfigCmdPacket@GAME@@UEAA@XZ
2B8950 - ??1DecBaseStrengthConfigCmdPacket@GAME@@UEAA@XZ
188A60 - ??1Decoration@GAME@@UEAA@XZ
A34B0 - ??1DecrementBaseDexterityConfigCmd@GAME@@UEAA@XZ
A3710 - ??1DecrementBaseIntelligenceConfigCmd@GAME@@UEAA@XZ
A39E0 - ??1DecrementBaseLifeConfigCmd@GAME@@UEAA@XZ
A3CD0 - ??1DecrementBaseManaConfigCmd@GAME@@UEAA@XZ
A3250 - ??1DecrementBaseStrengthConfigCmd@GAME@@UEAA@XZ
1842A0 - ??1DefaultDeathHandler@GAME@@UEAA@XZ
189BC0 - ??1DefenseAttribute@GAME@@UEAA@XZ
18B4E0 - ??1DefenseAttributeAbs@GAME@@UEAA@XZ
18B4E0 - ??1DefenseAttributeAbsMod@GAME@@UEAA@XZ
18B4E0 - ??1DefenseAttributeAbsMod_Absorption@GAME@@UEAA@XZ
18B4E0 - ??1DefenseAttributeAbsMod_Aether@GAME@@UEAA@XZ
18B4E0 - ??1DefenseAttributeAbsMod_Bleeding@GAME@@UEAA@XZ
18B4E0 - ??1DefenseAttributeAbsMod_Chaos@GAME@@UEAA@XZ
18B4E0 - ??1DefenseAttributeAbsMod_Cold@GAME@@UEAA@XZ
18B4E0 - ??1DefenseAttributeAbsMod_Elemental@GAME@@UEAA@XZ
18B4E0 - ??1DefenseAttributeAbsMod_Fire@GAME@@UEAA@XZ
18B4E0 - ??1DefenseAttributeAbsMod_Knockdown@GAME@@UEAA@XZ
18B4E0 - ??1DefenseAttributeAbsMod_Life@GAME@@UEAA@XZ
18B4E0 - ??1DefenseAttributeAbsMod_LifeLeach@GAME@@UEAA@XZ
18B4E0 - ??1DefenseAttributeAbsMod_Lightning@GAME@@UEAA@XZ
18B4E0 - ??1DefenseAttributeAbsMod_ManaLeach@GAME@@UEAA@XZ
18B4E0 - ??1DefenseAttributeAbsMod_Physical@GAME@@UEAA@XZ
18B4E0 - ??1DefenseAttributeAbsMod_Pierce@GAME@@UEAA@XZ
18B4E0 - ??1DefenseAttributeAbsMod_Poison@GAME@@UEAA@XZ
18B4E0 - ??1DefenseAttributeAbsMod_Protection@GAME@@UEAA@XZ
18B4E0 - ??1DefenseAttributeAbsMod_Sleep@GAME@@UEAA@XZ
18B4E0 - ??1DefenseAttributeAbsMod_Stun@GAME@@UEAA@XZ
1916B0 - ??1DefenseAttributeAbsRestricted@GAME@@UEAA@XZ
18B4E0 - ??1DefenseAttributeAbs_Aether@GAME@@UEAA@XZ
18B4E0 - ??1DefenseAttributeAbs_Bleeding@GAME@@UEAA@XZ
18B4E0 - ??1DefenseAttributeAbs_Chaos@GAME@@UEAA@XZ
18B4E0 - ??1DefenseAttributeAbs_Cold@GAME@@UEAA@XZ
18B6E0 - ??1DefenseAttributeAbs_Confusion@GAME@@UEAA@XZ
18B6E0 - ??1DefenseAttributeAbs_Convert@GAME@@UEAA@XZ
18B6E0 - ??1DefenseAttributeAbs_Disruption@GAME@@UEAA@XZ
18B4E0 - ??1DefenseAttributeAbs_ElementalResistance@GAME@@UEAA@XZ
18B6E0 - ??1DefenseAttributeAbs_Fear@GAME@@UEAA@XZ
18B4E0 - ??1DefenseAttributeAbs_Fire@GAME@@UEAA@XZ
18B6E0 - ??1DefenseAttributeAbs_Freeze@GAME@@UEAA@XZ
18B6E0 - ??1DefenseAttributeAbs_Knockdown@GAME@@UEAA@XZ
18B4E0 - ??1DefenseAttributeAbs_Life@GAME@@UEAA@XZ
18B6E0 - ??1DefenseAttributeAbs_LifeLeach@GAME@@UEAA@XZ
18B4E0 - ??1DefenseAttributeAbs_Lightning@GAME@@UEAA@XZ
18B6E0 - ??1DefenseAttributeAbs_ManaBurn@GAME@@UEAA@XZ
18B6E0 - ??1DefenseAttributeAbs_ManaBurnRatio@GAME@@UEAA@XZ
18B6E0 - ??1DefenseAttributeAbs_ManaLeach@GAME@@UEAA@XZ
18B6E0 - ??1DefenseAttributeAbs_PercentCurrentLife@GAME@@UEAA@XZ
18B6E0 - ??1DefenseAttributeAbs_PercentReflectionResistance@GAME@@UEAA@XZ
18B6E0 - ??1DefenseAttributeAbs_Petrify@GAME@@UEAA@XZ
18B4E0 - ??1DefenseAttributeAbs_Physical@GAME@@UEAA@XZ
18B4E0 - ??1DefenseAttributeAbs_Pierce@GAME@@UEAA@XZ
18B4E0 - ??1DefenseAttributeAbs_Poison@GAME@@UEAA@XZ
18B6E0 - ??1DefenseAttributeAbs_Sleep@GAME@@UEAA@XZ
18B6E0 - ??1DefenseAttributeAbs_Stun@GAME@@UEAA@XZ
18B6E0 - ??1DefenseAttributeAbs_Taunt@GAME@@UEAA@XZ
18B6E0 - ??1DefenseAttributeAbs_TotalSpeed@GAME@@UEAA@XZ
18B6E0 - ??1DefenseAttributeAbs_Trap@GAME@@UEAA@XZ
18B4E0 - ??1DefenseAttributeDefenseCap@GAME@@UEAA@XZ
18B4E0 - ??1DefenseAttributeDefenseCap_Aether@GAME@@UEAA@XZ
18B4E0 - ??1DefenseAttributeDefenseCap_All@GAME@@UEAA@XZ
18B4E0 - ??1DefenseAttributeDefenseCap_Bleeding@GAME@@UEAA@XZ
18B4E0 - ??1DefenseAttributeDefenseCap_Chaos@GAME@@UEAA@XZ
18B4E0 - ??1DefenseAttributeDefenseCap_Cold@GAME@@UEAA@XZ
18B4E0 - ??1DefenseAttributeDefenseCap_Disruption@GAME@@UEAA@XZ
18B4E0 - ??1DefenseAttributeDefenseCap_Fire@GAME@@UEAA@XZ
18B4E0 - ??1DefenseAttributeDefenseCap_Freeze@GAME@@UEAA@XZ
18B4E0 - ??1DefenseAttributeDefenseCap_Life@GAME@@UEAA@XZ
18B4E0 - ??1DefenseAttributeDefenseCap_LifeLeach@GAME@@UEAA@XZ
18B4E0 - ??1DefenseAttributeDefenseCap_Lightning@GAME@@UEAA@XZ
18B4E0 - ??1DefenseAttributeDefenseCap_ManaLeach@GAME@@UEAA@XZ
18B4E0 - ??1DefenseAttributeDefenseCap_Petrify@GAME@@UEAA@XZ
18B4E0 - ??1DefenseAttributeDefenseCap_Physical@GAME@@UEAA@XZ
18B4E0 - ??1DefenseAttributeDefenseCap_Pierce@GAME@@UEAA@XZ
18B4E0 - ??1DefenseAttributeDefenseCap_Poison@GAME@@UEAA@XZ
18B4E0 - ??1DefenseAttributeDefenseCap_Sleep@GAME@@UEAA@XZ
18B4E0 - ??1DefenseAttributeDefenseCap_Stun@GAME@@UEAA@XZ
18B4E0 - ??1DefenseAttributeDefenseCap_Trap@GAME@@UEAA@XZ
18B4E0 - ??1DefenseAttributeDur@GAME@@UEAA@XZ
18B4E0 - ??1DefenseAttributeDurMod@GAME@@UEAA@XZ
18B4E0 - ??1DefenseAttributeDurMod_Aether@GAME@@UEAA@XZ
18B4E0 - ??1DefenseAttributeDurMod_Bleeding@GAME@@UEAA@XZ
18B4E0 - ??1DefenseAttributeDurMod_Chaos@GAME@@UEAA@XZ
18B4E0 - ??1DefenseAttributeDurMod_Cold@GAME@@UEAA@XZ
18B4E0 - ??1DefenseAttributeDurMod_Fire@GAME@@UEAA@XZ
18B4E0 - ??1DefenseAttributeDurMod_Life@GAME@@UEAA@XZ
18B4E0 - ??1DefenseAttributeDurMod_LifeLeach@GAME@@UEAA@XZ
18B4E0 - ??1DefenseAttributeDurMod_Lightning@GAME@@UEAA@XZ
18B4E0 - ??1DefenseAttributeDurMod_ManaLeach@GAME@@UEAA@XZ
18B4E0 - ??1DefenseAttributeDurMod_Physical@GAME@@UEAA@XZ
18B4E0 - ??1DefenseAttributeDurMod_Poison@GAME@@UEAA@XZ
18B4E0 - ??1DefenseAttributeDur_Aether@GAME@@UEAA@XZ
18B4E0 - ??1DefenseAttributeDur_Bleeding@GAME@@UEAA@XZ
18B4E0 - ??1DefenseAttributeDur_Chaos@GAME@@UEAA@XZ
18B4E0 - ??1DefenseAttributeDur_Cold@GAME@@UEAA@XZ
18B4E0 - ??1DefenseAttributeDur_Fire@GAME@@UEAA@XZ
18B4E0 - ??1DefenseAttributeDur_Life@GAME@@UEAA@XZ
18B4E0 - ??1DefenseAttributeDur_LifeLeach@GAME@@UEAA@XZ
18B4E0 - ??1DefenseAttributeDur_Lightning@GAME@@UEAA@XZ
18B4E0 - ??1DefenseAttributeDur_ManaLeach@GAME@@UEAA@XZ
18B4E0 - ??1DefenseAttributeDur_Physical@GAME@@UEAA@XZ
18B4E0 - ??1DefenseAttributeDur_Poison@GAME@@UEAA@XZ
18B4E0 - ??1DefenseAttributeMisc_BlockAmountModifier@GAME@@UEAA@XZ
18B4E0 - ??1DefenseAttributeMisc_BlockModifier@GAME@@UEAA@XZ
18B4E0 - ??1DefenseAttributeMisc_Reflect@GAME@@UEAA@XZ
18B4E0 - ??1DefenseAttributeMisc_ReflectModifier@GAME@@UEAA@XZ
1932F0 - ??1DefenseAttributeStore@GAME@@UEAA@XZ
324B0 - ??1DefenseAttributeStore_Character@GAME@@UEAA@XZ
324B0 - ??1DefenseAttributeStore_Equipment@GAME@@UEAA@XZ
324B0 - ??1DefenseAttributeStore_Max@GAME@@UEAA@XZ
324B0 - ??1DefenseAttributeStore_Min@GAME@@UEAA@XZ
324B0 - ??1DefenseAttributeStore_Skill@GAME@@UEAA@XZ
191740 - ??1DefenseAttribute_BaseProtectionAbsorption@GAME@@UEAA@XZ
191BF0 - ??1DefenseAttribute_SkillProtectionAbsorption@GAME@@UEAA@XZ
18B4E0 - ??1DefenseAttribute_Typical@GAME@@UEAA@XZ
2CA2F0 - ??1DestroyGravestonePacket@GAME@@UEAA@XZ
2CACF0 - ??1DestroyItemTeleportPacket@GAME@@UEAA@XZ
1BBC80 - ??1Destructible@GAME@@UEAA@XZ
1BFCC0 - ??1DestructibleHookPack@GAME@@UEAA@XZ
A2AD0 - ??1DetachItemConfigCmd@GAME@@UEAA@XZ
2B5630 - ??1DetachItemConfigCmdPacket@GAME@@UEAA@XZ
1BFD00 - ??1DialogManager@GAME@@QEAA@XZ
735A0 - ??1DieAction@GAME@@UEAA@XZ
2D8C60 - ??1DiePacket@GAME@@UEAA@XZ
2CC6C0 - ??1DifficultyRampUpdatePacket@GAME@@UEAA@XZ
2CD400 - ??1DisengageContainerPacket@GAME@@UEAA@XZ
2E26A0 - ??1DisengageEndlessShrinePacket@GAME@@UEAA@XZ
2CD010 - ??1DisengageNpcPacket@GAME@@UEAA@XZ
2CD820 - ??1DisengageShrinePacket@GAME@@UEAA@XZ
1842A0 - ??1DissolveActorDeathHandler@GAME@@UEAA@XZ
2E0DC0 - ??1DungeonProgressToClientPacket@GAME@@UEAA@XZ
2E0B40 - ??1DungeonProgressToServerPacket@GAME@@UEAA@XZ
2E1E60 - ??1DungeonSoundPacket@GAME@@UEAA@XZ
1CE8F0 - ??1DurationDamageManager@GAME@@UEAA@XZ
1D7760 - ??1DynamicTeleporter@GAME@@UEAA@XZ
A61F0 - ??1EnchanterDismantleConfigCmd@GAME@@UEAA@XZ
2BD9D0 - ??1EnchanterDismantleConfigCmdPacket@GAME@@UEAA@XZ
A5DD0 - ??1EnchanterRecoveryConfigCmd@GAME@@UEAA@XZ
2BD4D0 - ??1EnchanterRecoveryConfigCmdPacket@GAME@@UEAA@XZ
A6620 - ??1EnchanterTinkerConfigCmd@GAME@@UEAA@XZ
2BDC10 - ??1EnchanterTinkerConfigCmdPacket@GAME@@UEAA@XZ
1C1F30 - ??1EndlessBuffShrine@GAME@@UEAA@XZ
1C3490 - ??1EndlessDungeon_Generator@GAME@@QEAA@XZ
2CD160 - ??1EngageContainerRequestPacket@GAME@@UEAA@XZ
2CD2B0 - ??1EngageContainerResponsePacket@GAME@@UEAA@XZ
2E23D0 - ??1EngageEndlessShrineRequestPacket@GAME@@UEAA@XZ
2E2520 - ??1EngageEndlessShrineResponsePacket@GAME@@UEAA@XZ
6EF70 - ??1EngageNpcAction@GAME@@UEAA@XZ
2D9720 - ??1EngageNpcPacket@GAME@@UEAA@XZ
2CCB60 - ??1EngageNpcRequestPacket@GAME@@UEAA@XZ
2CCEC0 - ??1EngageNpcResponsePacket@GAME@@UEAA@XZ
2CD550 - ??1EngageShrineRequestPacket@GAME@@UEAA@XZ
2CD6A0 - ??1EngageShrineResponsePacket@GAME@@UEAA@XZ
1D8DA0 - ??1EquipManager@GAME@@QEAA@XZ
14560 - ??1EquipManagerContainer@GAME@@QEAA@XZ
1DDAF0 - ??1EquipmentCtrl@GAME@@UEAA@XZ
2C8BF0 - ??1ExperienceNotificationPacket@GAME@@UEAA@XZ
1E4150 - ??1FactionManager@GAME@@QEAA@XZ
1F57A0 - ??1FactionPack@GAME@@UEAA@XZ
2C0B70 - ??1FactionToClientPacket@GAME@@UEAA@XZ
1842A0 - ??1FadeActorDeathHandler@GAME@@UEAA@XZ
1F8DF0 - ??1FixedActor@GAME@@UEAA@XZ
1F94E0 - ??1FixedDoor@GAME@@UEAA@XZ
1FB170 - ??1FixedItem@GAME@@UEAA@XZ
1FD480 - ??1FixedItemBlastContainer@GAME@@UEAA@XZ
1FE760 - ??1FixedItemContainer@GAME@@UEAA@XZ
1FFF40 - ??1FixedItemContainerController@GAME@@UEAA@XZ
200230 - ??1FixedItemController@GAME@@UEAA@XZ
201C70 - ??1FixedItemDoor@GAME@@UEAA@XZ
200B50 - ??1FixedItemDoorBase@GAME@@UEAA@XZ
202680 - ??1FixedItemDoorController@GAME@@UEAA@XZ
202300 - ??1FixedItemDoorSwapping@GAME@@UEAA@XZ
202C40 - ??1FixedItemGravestone@GAME@@UEAA@XZ
203BB0 - ??1FixedItemQuestObject@GAME@@UEAA@XZ
204970 - ??1FixedItemShrine@GAME@@UEAA@XZ
2066C0 - ??1FixedItemShrineController@GAME@@UEAA@XZ
206C20 - ??1FixedItemSkill@GAME@@UEAA@XZ
1FE2C0 - ??1FixedItemSkillTargetConfigCmd@GAME@@UEAA@XZ
2BFA50 - ??1FixedItemSkillTargetConfigCmdPacket@GAME@@UEAA@XZ
207010 - ??1FixedItemSkill_Buff@GAME@@UEAA@XZ
207750 - ??1FixedItemSkill_SpawnMonster@GAME@@UEAA@XZ
1FDF30 - ??1FixedItemStateChangeConfigCmd@GAME@@UEAA@XZ
2BF100 - ??1FixedItemStateChangeConfigCmdPacket@GAME@@UEAA@XZ
1FE100 - ??1FixedItemTargetConfigCmd@GAME@@UEAA@XZ
2BF4C0 - ??1FixedItemTargetConfigCmdPacket@GAME@@UEAA@XZ
207C00 - ??1FixedItemTeleport@GAME@@UEAA@XZ
208EE0 - ??1FixedItemTyphonPortal@GAME@@UEAA@XZ
209A60 - ??1FixedItemWell@GAME@@UEAA@XZ
209CE0 - ??1FixedLever@GAME@@UEAA@XZ
BC5D0 - ??1FlameBeam@GAME@@UEAA@XZ
2E1C10 - ??1FloorProgressToClientPacket@GAME@@UEAA@XZ
2D6080 - ??1FrustumUpdatePacket@GAME@@UEAA@XZ
20C200 - ??1Fx@GAME@@UEAA@XZ
20C6D0 - ??1FxMesh@GAME@@UEAA@XZ
20DE70 - ??1FxPak@GAME@@UEAA@XZ
255E00 - ??1GMIActor@GAME@@UEAA@XZ
256230 - ??1GMIActor_Icy@GAME@@UEAA@XZ
194A0 - ??1GameActivity@GAME@@UEAA@XZ
2CC5C0 - ??1GameBalanceUpdatePacket@GAME@@UEAA@XZ
14560 - ??1GameController@GAME@@QEAA@XZ
212660 - ??1GameEngine@GAME@@QEAA@XZ
24DAD0 - ??1GameEngineInboundInterface@GAME@@UEAA@XZ
24A9B0 - ??1GameEngineNetworkInterface@GAME@@UEAA@XZ
24B2C0 - ??1GameEngineOutboundInterface@GAME@@UEAA@XZ
2CC7C0 - ??1GameWonPacket@GAME@@UEAA@XZ
255430 - ??1GarmentManager@GAME@@UEAA@XZ
2A47B0 - ??1GibEffectEntity@GAME@@UEAA@XZ
2B4F90 - ??1GiveGoldPacket@GAME@@UEAA@XZ
2568D0 - ??1GoldGenerator@GAME@@UEAA@XZ
257650 - ??1Guard@GAME@@UEAA@XZ
257790 - ??1HallOfFameCamera@GAME@@UEAA@XZ
257910 - ??1HallOfFameStand@GAME@@UEAA@XZ
AFDD0 - ??1Hireling@GAME@@UEAA@XZ
257B80 - ??1HotSlotOption@GAME@@UEAA@XZ
257B80 - ??1HotSlotOptionPotion@GAME@@UEAA@XZ
258660 - ??1HotSlotOptionScroll@GAME@@UEAA@XZ
257B80 - ??1HotSlotOptionSkill@GAME@@UEAA@XZ
6EF70 - ??1IdleAction@GAME@@UEAA@XZ
2D6C20 - ??1IdleActionPacket@GAME@@UEAA@XZ
6EF70 - ??1ImmobilizeAction@GAME@@UEAA@XZ
2D89F0 - ??1ImmobilizePacket@GAME@@UEAA@XZ
2B8A80 - ??1IncBaseDexterityConfigCmdPacket@GAME@@UEAA@XZ
2B8CE0 - ??1IncBaseIntelligenceConfigCmdPacket@GAME@@UEAA@XZ
2B8F40 - ??1IncBaseLifeConfigCmdPacket@GAME@@UEAA@XZ
2B9240 - ??1IncBaseManaConfigCmdPacket@GAME@@UEAA@XZ
2B8780 - ??1IncBaseStrengthConfigCmdPacket@GAME@@UEAA@XZ
A3380 - ??1IncrementBaseDexterityConfigCmd@GAME@@UEAA@XZ
A35E0 - ??1IncrementBaseIntelligenceConfigCmd@GAME@@UEAA@XZ
A3880 - ??1IncrementBaseLifeConfigCmd@GAME@@UEAA@XZ
A3B70 - ??1IncrementBaseManaConfigCmd@GAME@@UEAA@XZ
A3120 - ??1IncrementBaseStrengthConfigCmd@GAME@@UEAA@XZ
25A940 - ??1InspectHelperPacket@GAME@@UEAA@XZ
2C9230 - ??1InspectRequestPacket@GAME@@UEAA@XZ
1CC980 - ??1InteractableHookPack@GAME@@UEAA@XZ
25BC70 - ??1Inventory@GAME@@UEAA@XZ
25D070 - ??1InventorySack@GAME@@UEAA@XZ
2C0010 - ??1InvitePartyConfigCmdPacket@GAME@@UEAA@XZ
260890 - ??1Item@GAME@@UEAA@XZ
2659E0 - ??1ItemArtifact@GAME@@UEAA@XZ
268B90 - ??1ItemArtifactFormula@GAME@@UEAA@XZ
26F5E0 - ??1ItemAttributeReset@GAME@@UEAA@XZ
26FEA0 - ??1ItemCharm@GAME@@UEAA@XZ
26FFF0 - ??1ItemDevotionReset@GAME@@UEAA@XZ
2708E0 - ??1ItemDifficultyUnlock@GAME@@UEAA@XZ
272930 - ??1ItemEnchantment@GAME@@UEAA@XZ
274DA0 - ??1ItemEquipment@GAME@@UEAA@XZ
27D230 - ??1ItemFactionBooster@GAME@@UEAA@XZ
27DB00 - ??1ItemFactionWarrant@GAME@@UEAA@XZ
27E140 - ??1ItemHookPack@GAME@@UEAA@XZ
27E360 - ??1ItemNote@GAME@@UEAA@XZ
26F020 - ??1ItemRandomSetFormula@GAME@@UEAA@XZ
27F490 - ??1ItemRelic@GAME@@UEAA@XZ
282EF0 - ??1ItemSet@GAME@@UEAA@XZ
26EB00 - ??1ItemSetFormula@GAME@@UEAA@XZ
288BE0 - ??1ItemTransmuter@GAME@@UEAA@XZ
289BA0 - ??1ItemTransmuterSet@GAME@@UEAA@XZ
2BFEC0 - ??1JoinPartyConfigCmdPacket@GAME@@UEAA@XZ
6EF70 - ??1JumpAttackAction@GAME@@UEAA@XZ
2D7CD0 - ??1JumpToAttackPacket@GAME@@UEAA@XZ
B0D70 - ??1LightOfRaMarker@GAME@@UEAA@XZ
28B590 - ??1Lightning@GAME@@UEAA@XZ
6EF70 - ??1LongIdleAction@GAME@@UEAA@XZ
2D6DE0 - ??1LongIdleActionPacket@GAME@@UEAA@XZ
6EF70 - ??1LookAtAction@GAME@@UEAA@XZ
2D9140 - ??1LookAtActionPacket@GAME@@UEAA@XZ
28D0D0 - ??1LootBase@GAME@@UEAA@XZ
290B70 - ??1LootItemTableRandomizer@GAME@@UEAA@XZ
291AF0 - ??1LootItemTableRandomizer_Dyn@GAME@@UEAA@XZ
28EB50 - ??1LootItemTable_DynWeight@GAME@@UEAA@XZ
290050 - ??1LootItemTable_FixedWeight@GAME@@UEAA@XZ
296610 - ??1LootLoader@GAME@@QEAA@XZ
296F60 - ??1LootMasterTable@GAME@@UEAA@XZ
297630 - ??1LootRandomizerTable@GAME@@UEAA@XZ
297A90 - ??1LootRandomizerTable_Dynamic@GAME@@UEAA@XZ
29CD80 - ??1LootTable@GAME@@UEAA@XZ
29DCA0 - ??1MarketArmor@GAME@@UEAA@XZ
29DCA0 - ??1MarketArmor_Chest@GAME@@UEAA@XZ
29DCA0 - ??1MarketArmor_Feet@GAME@@UEAA@XZ
29DCA0 - ??1MarketArmor_Hands@GAME@@UEAA@XZ
29DCA0 - ??1MarketArmor_Head@GAME@@UEAA@XZ
29DCA0 - ??1MarketArmor_Legs@GAME@@UEAA@XZ
29DCA0 - ??1MarketArmor_Shield@GAME@@UEAA@XZ
29DCA0 - ??1MarketArmor_Shoulders@GAME@@UEAA@XZ
29DCA0 - ??1MarketArmor_Used@GAME@@UEAA@XZ
29DCA0 - ??1MarketArmor_Waist@GAME@@UEAA@XZ
2CB420 - ??1MarketC2SPurchaseRequestPacket@GAME@@UEAA@XZ
2CAEF0 - ??1MarketC2SSellBackPacket@GAME@@UEAA@XZ
2CADF0 - ??1MarketC2SUpdateRequestPacket@GAME@@UEAA@XZ
29DCA0 - ??1MarketMiniMart@GAME@@UEAA@XZ
29DCA0 - ??1MarketMisc_Amulet@GAME@@UEAA@XZ
29DCA0 - ??1MarketMisc_List@GAME@@UEAA@XZ
29DCA0 - ??1MarketMisc_Medal@GAME@@UEAA@XZ
29DCA0 - ??1MarketMisc_Potion@GAME@@UEAA@XZ
29DCA0 - ??1MarketMisc_Ring@GAME@@UEAA@XZ
29DCA0 - ??1MarketMisc_Scroll@GAME@@UEAA@XZ
29DCA0 - ??1MarketMisc_Static@GAME@@UEAA@XZ
29DCA0 - ??1MarketMisc_Used@GAME@@UEAA@XZ
2CBC00 - ??1MarketS2CPurchaseConfirmationPacket@GAME@@UEAA@XZ
2CB790 - ??1MarketS2CPurchaseDeniedPacket@GAME@@UEAA@XZ
2CB610 - ??1MarketS2CStatusUpdatePacket@GAME@@UEAA@XZ
2CBDB0 - ??1MarketS2CUpdatePacket@GAME@@UEAA@XZ
29DCA0 - ??1MarketWeapon@GAME@@UEAA@XZ
29DCA0 - ??1MarketWeapon_Axe@GAME@@UEAA@XZ
29DCA0 - ??1MarketWeapon_Dagger@GAME@@UEAA@XZ
29DCA0 - ??1MarketWeapon_Mace@GAME@@UEAA@XZ
29DCA0 - ??1MarketWeapon_Ranged1h@GAME@@UEAA@XZ
29DCA0 - ??1MarketWeapon_Ranged2h@GAME@@UEAA@XZ
29DCA0 - ??1MarketWeapon_Scepter@GAME@@UEAA@XZ
29DCA0 - ??1MarketWeapon_Spear@GAME@@UEAA@XZ
29DCA0 - ??1MarketWeapon_Staff@GAME@@UEAA@XZ
29DCA0 - ??1MarketWeapon_Sword@GAME@@UEAA@XZ
29DCA0 - ??1MarketWeapon_Used1@GAME@@UEAA@XZ
29DCA0 - ??1MarketWeapon_Used2@GAME@@UEAA@XZ
2A5990 - ??1Monster@GAME@@UEAA@XZ
444630 - ??1MonsterShrine@GAME@@UEAA@XZ
2D17A0 - ??1MonsterUseControllerPacket@GAME@@UEAA@XZ
6EF70 - ??1MoveAttackAction@GAME@@UEAA@XZ
2D8190 - ??1MoveAttackPacket@GAME@@UEAA@XZ
6EF70 - ??1MoveToAction@GAME@@UEAA@XZ
2D6F30 - ??1MoveToPacket@GAME@@UEAA@XZ
2B4780 - ??1Mutator@GAME@@UEAA@XZ
2D3D90 - ??1MutatorRequestPacket@GAME@@UEAA@XZ
2DEB80 - ??1NRLoaderStatePacket@GAME@@UEAA@XZ
2D5B80 - ??1NackEntityPacket@GAME@@UEAA@XZ
B0A00 - ??1NavBlocker@GAME@@UEAA@XZ
2E7080 - ??1Npc@GAME@@UEAA@XZ
2E9F60 - ??1NpcCaravan@GAME@@UEAA@XZ
2EA360 - ??1NpcCrafter@GAME@@UEAA@XZ
2EA8F0 - ??1NpcEnchanter@GAME@@UEAA@XZ
2EB460 - ??1NpcMerchant@GAME@@UEAA@XZ
2EBB60 - ??1NpcSkillReallocator@GAME@@UEAA@XZ
2E01F0 - ??1NpcTalkPacket@GAME@@UEAA@XZ
2EBEE0 - ??1NpcTransmuter@GAME@@UEAA@XZ
2EC2A0 - ??1NpcWanderPoint@GAME@@UEAA@XZ
2EC590 - ??1OneShot@GAME@@UEAA@XZ
2EF260 - ??1OneShot_Dye@GAME@@UEAA@XZ
2EF720 - ??1OneShot_EndlessDungeon@GAME@@UEAA@XZ
2EED10 - ??1OneShot_Food@GAME@@UEAA@XZ
2EE7A0 - ??1OneShot_Gold@GAME@@UEAA@XZ
2EF660 - ??1OneShot_InstantReward@GAME@@UEAA@XZ
2ECD10 - ??1OneShot_Potion@GAME@@UEAA@XZ
2ECD10 - ??1OneShot_PotionHealth@GAME@@UEAA@XZ
2ECD10 - ??1OneShot_PotionMana@GAME@@UEAA@XZ
2EF150 - ??1OneShot_Sack@GAME@@UEAA@XZ
2EE220 - ??1OneShot_Scroll@GAME@@UEAA@XZ
1112A0 - ??1Ormenos@GAME@@UEAA@XZ
1110B0 - ??1OrmenosDropZone@GAME@@UEAA@XZ
2F5E10 - ??1PFxManager@GAME@@UEAA@XZ
2F0CF0 - ??1Paperdoll@GAME@@UEAA@XZ
3F340 - ??1ParametersCombat@GAME@@QEAA@XZ
3F970 - ??1ParametersCombatDisplay@GAME@@QEAA@XZ
2F1790 - ??1PartyManager@GAME@@QEAA@XZ
2DE820 - ??1PartyRequestResponsePacket@GAME@@UEAA@XZ
2F30E0 - ??1PatrolPoint@GAME@@UEAA@XZ
2F3450 - ??1Pet@GAME@@UEAA@XZ
2F43A0 - ??1PetNonScaling@GAME@@UEAA@XZ
2F4420 - ??1PetPlayerScaling@GAME@@UEAA@XZ
2F7320 - ??1PhysicsDecoration@GAME@@UEAA@XZ
6EF70 - ??1PickUpAction@GAME@@UEAA@XZ
2D75C0 - ??1PickUpItemPacket@GAME@@UEAA@XZ
2B6B90 - ??1PickupItemConfigCmdPacket@GAME@@UEAA@XZ
6EF70 - ??1PlayAnimationAction@GAME@@UEAA@XZ
2D92D0 - ??1PlayAnimationActionPacket@GAME@@UEAA@XZ
1842A0 - ??1PlayEffectDeathHandler@GAME@@UEAA@XZ
A7A50 - ??1PlaySoundConfigCmd@GAME@@UEAA@XZ
2C20B0 - ??1PlaySoundConfigCmdPacket@GAME@@UEAA@XZ
1842A0 - ??1PlaySoundDeathHandler@GAME@@UEAA@XZ
3259A0 - ??1PlayStats@GAME@@UEAA@XZ
2E05A0 - ??1PlayVideoCommandPacket@GAME@@UEAA@XZ
2E0310 - ??1PlayVideoRequestPacket@GAME@@UEAA@XZ
2F8BF0 - ??1Player@GAME@@UEAA@XZ
314850 - ??1PlayerHotSlotCtrl@GAME@@UEAA@XZ
317020 - ??1PlayerInventoryCtrl@GAME@@UEAA@XZ
31E200 - ??1PlayerManagerClient@GAME@@UEAA@XZ
3206D0 - ??1PlayerManagerServer@GAME@@QEAA@XZ
323410 - ??1PlayerNetBasicInfo@GAME@@UEAA@XZ
1F41E0 - ??1PlayerNetHeartbeatInfo@GAME@@QEAA@XZ
2D6540 - ??1PlayerPositionUpdatePacket@GAME@@UEAA@XZ
324E80 - ??1PlayerSpawnPoint@GAME@@UEAA@XZ
2D1AC0 - ??1PostPetSpawnPacket@GAME@@UEAA@XZ
32C220 - ??1ProjectileAreaEffect@GAME@@UEAA@XZ
32CB00 - ??1ProjectileArrowLike@GAME@@UEAA@XZ
32D550 - ??1ProjectileBase@GAME@@UEAA@XZ
333EB0 - ??1ProjectileExploding@GAME@@UEAA@XZ
3342D0 - ??1ProjectileFireballLike@GAME@@UEAA@XZ
334D70 - ??1ProjectileGrenade@GAME@@UEAA@XZ
3387E0 - ??1ProjectileTelekinesis@GAME@@UEAA@XZ
3399D0 - ??1ProjectileTerrainFollowing@GAME@@UEAA@XZ
339E40 - ??1Prop@GAME@@UEAA@XZ
33A680 - ??1Proxy@GAME@@UEAA@XZ
33D5A0 - ??1ProxyAccessoryPool@GAME@@UEAA@XZ
33DFB0 - ??1ProxyAmbush@GAME@@UEAA@XZ
33F5C0 - ??1ProxyEndless@GAME@@UEAA@XZ
340E20 - ??1ProxyMenu@GAME@@UEAA@XZ
BC800 - ??1Punctuation@GAME@@UEAA@XZ
345DA0 - ??1Puppet@GAME@@UEAA@XZ
346480 - ??1Quest2@GAME@@QEAA@XZ
347E30 - ??1Quest2Event@GAME@@UEAA@XZ
348240 - ??1Quest2Objective@GAME@@UEAA@XZ
3490B0 - ??1Quest2Repository@GAME@@QEAA@XZ
34B5C0 - ??1Quest2Task@GAME@@QEAA@XZ
A85D0 - ??1QuestAnimationCompletedConfigCmd@GAME@@UEAA@XZ
2C34C0 - ??1QuestAnimationCompletedConfigCmdPacket@GAME@@UEAA@XZ
2D0180 - ??1QuestCommandBeginQuestTaskPacket@GAME@@UEAA@XZ
2D05A0 - ??1QuestCommandCompleteQuestPacket@GAME@@UEAA@XZ
2D0430 - ??1QuestCommandCompleteQuestTaskPacket@GAME@@UEAA@XZ
2CE670 - ??1QuestCommandDeclareTokensPacket@GAME@@UEAA@XZ
2D10B0 - ??1QuestCommandDestroyDestructiblePacket@GAME@@UEAA@XZ
2D0010 - ??1QuestCommandEnableMonsterSkillsPacket@GAME@@UEAA@XZ
2D0C80 - ??1QuestCommandEventPacket@GAME@@UEAA@XZ
2D07B0 - ??1QuestCommandGiveTokenPacket@GAME@@UEAA@XZ
2D0DF0 - ??1QuestCommandGlobalEventPacket@GAME@@UEAA@XZ
2CFD70 - ??1QuestCommandLockChestPacket@GAME@@UEAA@XZ
2CFAD0 - ??1QuestCommandLockDoorPacket@GAME@@UEAA@XZ
2CEB80 - ??1QuestCommandMovePacket@GAME@@UEAA@XZ
2CFC20 - ??1QuestCommandOpenDoorPacket@GAME@@UEAA@XZ
2CFEC0 - ??1QuestCommandOpenDynGridEntrancePacket@GAME@@UEAA@XZ
2CF400 - ??1QuestCommandPlayAnimationPacket@GAME@@UEAA@XZ
2D0AC0 - ??1QuestCommandRemoveTokenPacket@GAME@@UEAA@XZ
2D1440 - ??1QuestCommandTakeItemPacket@GAME@@UEAA@XZ
2D0F60 - ??1QuestCommandUiNotifyPacket@GAME@@UEAA@XZ
2CF890 - ??1QuestCommandUseSkillPacket@GAME@@UEAA@XZ
2CF010 - ??1QuestCommandWalkPacket@GAME@@UEAA@XZ
34D370 - ??1QuestItem@GAME@@UEAA@XZ
2DB190 - ??1QuestMessagePacket@GAME@@UEAA@XZ
A8400 - ??1QuestMoveCompletedConfigCmd@GAME@@UEAA@XZ
2C3210 - ??1QuestMoveCompletedConfigCmdPacket@GAME@@UEAA@XZ
B0C00 - ??1RadiusMagic@GAME@@UEAA@XZ
A7170 - ??1ReclaimDevotionPointConfigCmd@GAME@@UEAA@XZ
2BEDC0 - ??1ReclaimDevotionPointConfigCmdPacket@GAME@@UEAA@XZ
A4470 - ??1ReleaseImmobilizeConfigCmd@GAME@@UEAA@XZ
2B9AE0 - ??1ReleaseImmobilizeConfigCmdPacket@GAME@@UEAA@XZ
A41F0 - ??1ReleaseKnockdownConfigCmd@GAME@@UEAA@XZ
2B9880 - ??1ReleaseKnockdownConfigCmdPacket@GAME@@UEAA@XZ
A2C30 - ??1ReleasePetConfigCmd@GAME@@UEAA@XZ
2B58F0 - ??1ReleasePetConfigCmdPacket@GAME@@UEAA@XZ
A4330 - ??1ReleaseSleepConfigCmd@GAME@@UEAA@XZ
2B99B0 - ??1ReleaseSleepConfigCmdPacket@GAME@@UEAA@XZ
A40B0 - ??1ReleaseStunConfigCmd@GAME@@UEAA@XZ
2B9750 - ??1ReleaseStunConfigCmdPacket@GAME@@UEAA@XZ
A3F70 - ??1ReleaseTrapConfigCmd@GAME@@UEAA@XZ
2B9620 - ??1ReleaseTrapConfigCmdPacket@GAME@@UEAA@XZ
2DD580 - ??1RemoteMessagePacket@GAME@@UEAA@XZ
2DD9C0 - ??1RemoteWMessagePacket@GAME@@UEAA@XZ
A5070 - ??1RemoveInventoryItemConfigCmd@GAME@@UEAA@XZ
2BBB10 - ??1RemoveInventoryItemConfigCmdPacket@GAME@@UEAA@XZ
2D31C0 - ??1RemovePetBonusFxPakPacket@GAME@@UEAA@XZ
2D2640 - ??1RemovePetBonusPacket@GAME@@UEAA@XZ
A7BC0 - ??1RequestAllyAttackConfigCmd@GAME@@UEAA@XZ
2C2240 - ??1RequestAllyAttackConfigCmdPacket@GAME@@UEAA@XZ
A7D20 - ??1RequestAllyMoveConfigCmd@GAME@@UEAA@XZ
2C2580 - ??1RequestAllyMoveConfigCmdPacket@GAME@@UEAA@XZ
2E1D60 - ??1RequestDungeonDataPacket@GAME@@UEAA@XZ
2DECD0 - ??1RequestSurvivalModeDataPacket@GAME@@UEAA@XZ
A3E10 - ??1ResetAttributePointsConfigCmd@GAME@@UEAA@XZ
2B94F0 - ??1ResetAttributesConfigCmdPacket@GAME@@UEAA@XZ
6EF70 - ??1RespawnAction@GAME@@UEAA@XZ
2D99E0 - ??1RespawnPacket@GAME@@UEAA@XZ
145B90 - ??1RetaliationAttributeAbsMod_Aether@GAME@@UEAA@XZ
145B90 - ??1RetaliationAttributeAbsMod_Chaos@GAME@@UEAA@XZ
145B90 - ??1RetaliationAttributeAbsMod_Cold@GAME@@UEAA@XZ
145B90 - ??1RetaliationAttributeAbsMod_DamageMultiplier@GAME@@UEAA@XZ
145B90 - ??1RetaliationAttributeAbsMod_Elemental@GAME@@UEAA@XZ
145B90 - ??1RetaliationAttributeAbsMod_Fire@GAME@@UEAA@XZ
145B90 - ??1RetaliationAttributeAbsMod_Knockdown@GAME@@UEAA@XZ
145B90 - ??1RetaliationAttributeAbsMod_Life@GAME@@UEAA@XZ
145B90 - ??1RetaliationAttributeAbsMod_Lightning@GAME@@UEAA@XZ
145B90 - ??1RetaliationAttributeAbsMod_Physical@GAME@@UEAA@XZ
145B90 - ??1RetaliationAttributeAbsMod_Pierce@GAME@@UEAA@XZ
145B90 - ??1RetaliationAttributeAbsMod_PierceRatio@GAME@@UEAA@XZ
145B90 - ??1RetaliationAttributeAbsMod_Poison@GAME@@UEAA@XZ
145B90 - ??1RetaliationAttributeAbsMod_Sleep@GAME@@UEAA@XZ
145B90 - ??1RetaliationAttributeAbsMod_Stun@GAME@@UEAA@XZ
145B90 - ??1RetaliationAttributeAbsMod_TotalDamageModifier@GAME@@UEAA@XZ
142910 - ??1RetaliationAttributeAbs_Aether@GAME@@UEAA@XZ
142910 - ??1RetaliationAttributeAbs_Chaos@GAME@@UEAA@XZ
142910 - ??1RetaliationAttributeAbs_Cold@GAME@@UEAA@XZ
142910 - ??1RetaliationAttributeAbs_Confusion@GAME@@UEAA@XZ
142910 - ??1RetaliationAttributeAbs_Convert@GAME@@UEAA@XZ
142910 - ??1RetaliationAttributeAbs_ElementalDamage@GAME@@UEAA@XZ
142910 - ??1RetaliationAttributeAbs_Fear@GAME@@UEAA@XZ
142910 - ??1RetaliationAttributeAbs_Fire@GAME@@UEAA@XZ
142910 - ??1RetaliationAttributeAbs_Life@GAME@@UEAA@XZ
142910 - ??1RetaliationAttributeAbs_Lightning@GAME@@UEAA@XZ
142910 - ??1RetaliationAttributeAbs_PercentCurrentLife@GAME@@UEAA@XZ
142910 - ??1RetaliationAttributeAbs_Physical@GAME@@UEAA@XZ
142910 - ??1RetaliationAttributeAbs_Pierce@GAME@@UEAA@XZ
142910 - ??1RetaliationAttributeAbs_Poison@GAME@@UEAA@XZ
143F70 - ??1RetaliationAttributeDurBonus@GAME@@UEAA@XZ
1474D0 - ??1RetaliationAttributeDurMod_Aether@GAME@@UEAA@XZ
1474D0 - ??1RetaliationAttributeDurMod_AttackSpeed@GAME@@UEAA@XZ
1474D0 - ??1RetaliationAttributeDurMod_Bleeding@GAME@@UEAA@XZ
1474D0 - ??1RetaliationAttributeDurMod_Chaos@GAME@@UEAA@XZ
1474D0 - ??1RetaliationAttributeDurMod_Cold@GAME@@UEAA@XZ
1474D0 - ??1RetaliationAttributeDurMod_DefensiveAbility@GAME@@UEAA@XZ
1474D0 - ??1RetaliationAttributeDurMod_Fire@GAME@@UEAA@XZ
1474D0 - ??1RetaliationAttributeDurMod_Life@GAME@@UEAA@XZ
1474D0 - ??1RetaliationAttributeDurMod_LifeLeach@GAME@@UEAA@XZ
1474D0 - ??1RetaliationAttributeDurMod_Lightning@GAME@@UEAA@XZ
1474D0 - ??1RetaliationAttributeDurMod_ManaLeach@GAME@@UEAA@XZ
1474D0 - ??1RetaliationAttributeDurMod_OffensiveAbility@GAME@@UEAA@XZ
1474D0 - ??1RetaliationAttributeDurMod_OffensiveReduction@GAME@@UEAA@XZ
1474D0 - ??1RetaliationAttributeDurMod_Physical@GAME@@UEAA@XZ
1474D0 - ??1RetaliationAttributeDurMod_Poison@GAME@@UEAA@XZ
1474D0 - ??1RetaliationAttributeDurMod_RunSpeed@GAME@@UEAA@XZ
1474D0 - ??1RetaliationAttributeDurMod_SpellCastSpeed@GAME@@UEAA@XZ
143F70 - ??1RetaliationAttributeDur_Aether@GAME@@UEAA@XZ
143F70 - ??1RetaliationAttributeDur_AttackSpeed@GAME@@UEAA@XZ
143F70 - ??1RetaliationAttributeDur_Bleeding@GAME@@UEAA@XZ
143F70 - ??1RetaliationAttributeDur_Chaos@GAME@@UEAA@XZ
143F70 - ??1RetaliationAttributeDur_Cold@GAME@@UEAA@XZ
143F70 - ??1RetaliationAttributeDur_DefensiveAbility@GAME@@UEAA@XZ
143F70 - ??1RetaliationAttributeDur_Fire@GAME@@UEAA@XZ
143F70 - ??1RetaliationAttributeDur_Life@GAME@@UEAA@XZ
143F70 - ??1RetaliationAttributeDur_LifeLeach@GAME@@UEAA@XZ
143F70 - ??1RetaliationAttributeDur_Lightning@GAME@@UEAA@XZ
143F70 - ??1RetaliationAttributeDur_ManaLeach@GAME@@UEAA@XZ
143F70 - ??1RetaliationAttributeDur_OffensiveAbility@GAME@@UEAA@XZ
143F70 - ??1RetaliationAttributeDur_OffensiveReduction@GAME@@UEAA@XZ
143F70 - ??1RetaliationAttributeDur_Physical@GAME@@UEAA@XZ
143F70 - ??1RetaliationAttributeDur_Poison@GAME@@UEAA@XZ
143F70 - ??1RetaliationAttributeDur_RunSpeed@GAME@@UEAA@XZ
143F70 - ??1RetaliationAttributeDur_SpellCastSpeed@GAME@@UEAA@XZ
142910 - ??1RetaliationAttributeInfluence@GAME@@UEAA@XZ
142910 - ??1RetaliationAttributeReflex@GAME@@UEAA@XZ
142910 - ??1RetaliationAttributeReflex_Freeze@GAME@@UEAA@XZ
142910 - ??1RetaliationAttributeReflex_Knockdown@GAME@@UEAA@XZ
142910 - ??1RetaliationAttributeReflex_Petrify@GAME@@UEAA@XZ
142910 - ??1RetaliationAttributeReflex_Sleep@GAME@@UEAA@XZ
142910 - ??1RetaliationAttributeReflex_Stun@GAME@@UEAA@XZ
142910 - ??1RetaliationAttributeReflex_Trap@GAME@@UEAA@XZ
32140 - ??1RetaliationAttributeStore@GAME@@UEAA@XZ
32140 - ??1RetaliationAttributeStore_Equipment@GAME@@UEAA@XZ
32140 - ??1RetaliationAttributeStore_Max@GAME@@UEAA@XZ
32140 - ??1RetaliationAttributeStore_Min@GAME@@UEAA@XZ
32140 - ??1RetaliationAttributeStore_Skill@GAME@@UEAA@XZ
6EF70 - ??1RotateAction@GAME@@UEAA@XZ
2E0A10 - ??1RotateActionPacket@GAME@@UEAA@XZ
B0D70 - ??1Rubble@GAME@@UEAA@XZ
384F80 - ??1ScriptEntity@GAME@@UEAA@XZ
270730 - ??1ScriptableAction@GAME@@UEAA@XZ
37F320 - ??1ScriptableActionCollection@GAME@@QEAA@XZ
12B080 - ??1ScriptableAction_BeginQuestTask@GAME@@UEAA@XZ
12B080 - ??1ScriptableAction_CastSkill@GAME@@UEAA@XZ
37A780 - ??1ScriptableAction_GenerateRandomValue@GAME@@UEAA@XZ
270730 - ??1ScriptableAction_GiveAttribPoint@GAME@@UEAA@XZ
270730 - ??1ScriptableAction_GiveDevotion@GAME@@UEAA@XZ
270730 - ??1ScriptableAction_GiveExperience@GAME@@UEAA@XZ
37C7E0 - ??1ScriptableAction_GiveItem@GAME@@UEAA@XZ
270730 - ??1ScriptableAction_GiveLevel@GAME@@UEAA@XZ
270730 - ??1ScriptableAction_GiveMoney@GAME@@UEAA@XZ
37D820 - ??1ScriptableAction_GiveRandomItem@GAME@@UEAA@XZ
270730 - ??1ScriptableAction_GiveSkillPoint@GAME@@UEAA@XZ
270730 - ??1ScriptableAction_GiveTribute@GAME@@UEAA@XZ
12B080 - ??1ScriptableAction_PlayVideo@GAME@@UEAA@XZ
270730 - ??1ScriptableAction_UnlockTutorial@GAME@@UEAA@XZ
380400 - ??1ScriptableCondition@GAME@@UEAA@XZ
384340 - ??1ScriptableConditionCollection@GAME@@QEAA@XZ
37F960 - ??1ScriptableCondition_HasFaction@GAME@@UEAA@XZ
2D5800 - ??1ServerSpawnCompletePacket@GAME@@UEAA@XZ
A8760 - ??1SetCausesAngerConfigCmd@GAME@@UEAA@XZ
2C3750 - ??1SetCausesAngerConfigCmdPacket@GAME@@UEAA@XZ
2E1FB0 - ??1SetDungeonTimerPacket@GAME@@UEAA@XZ
A8A20 - ??1SetFactionConfigCmd@GAME@@UEAA@XZ
2C3A50 - ??1SetFactionConfigCmdPacket@GAME@@UEAA@XZ
A88C0 - ??1SetInvincibleConfigCmd@GAME@@UEAA@XZ
2C38D0 - ??1SetInvincibleConfigCmdPacket@GAME@@UEAA@XZ
2D3320 - ??1SetMutatorPacket@GAME@@UEAA@XZ
2D2030 - ??1SetPetBonusPacket@GAME@@UEAA@XZ
BC8B0 - ??1SetPiece@GAME@@UEAA@XZ
2DFB30 - ??1SetSurvivalRestartsPacket@GAME@@UEAA@XZ
2DF730 - ??1SetSurvivalTimerPacket@GAME@@UEAA@XZ
2DFA30 - ??1SetSurvivalWaveTierPacket@GAME@@UEAA@XZ
A7E70 - ??1ShowCharacterConfigCmd@GAME@@UEAA@XZ
2C2820 - ??1ShowCharacterConfigCmdPacket@GAME@@UEAA@XZ
2D5F00 - ??1ShowEntityPacket@GAME@@UEAA@XZ
38D3C0 - ??1ShrineHookPack@GAME@@UEAA@XZ
2CDC60 - ??1ShrineRewardPacket@GAME@@UEAA@XZ
2DCC40 - ??1SinglePlayerBasicInfoPacket@GAME@@UEAA@XZ
2D9C40 - ??1SinglePlayerHeartbeatPacket@GAME@@UEAA@XZ
390810 - ??1Skill@GAME@@UEAA@XZ
403410 - ??1SkillActivated@GAME@@UEAA@XZ
40D00 - ??1SkillActivatedBuffOther@GAME@@UEAA@XZ
40D00 - ??1SkillActivatedBuffSelf@GAME@@UEAA@XZ
406C80 - ??1SkillActivatedSpell@GAME@@UEAA@XZ
40D00 - ??1SkillActivatedWeapon@GAME@@UEAA@XZ
40D00 - ??1SkillActivatedWeaponPool@GAME@@UEAA@XZ
3A9800 - ??1SkillActivated_Suicide@GAME@@UEAA@XZ
14560 - ??1SkillActiveState@GAME@@QEAA@XZ
A4D60 - ??1SkillActiveStateUpdateConfigCmd@GAME@@UEAA@XZ
2BB570 - ??1SkillActiveStateUpdateConfigCmdPacket@GAME@@UEAA@XZ
407D90 - ??1SkillAttribute@GAME@@UEAA@XZ
40A250 - ??1SkillAttributeAccumulator@GAME@@UEAA@XZ
409C60 - ??1SkillAttributeMod@GAME@@UEAA@XZ
409C60 - ??1SkillAttributeMod_CooldownReduction@GAME@@UEAA@XZ
409C60 - ??1SkillAttributeMod_ManaCostReduction@GAME@@UEAA@XZ
40A410 - ??1SkillAttributeStore@GAME@@UEAA@XZ
32070 - ??1SkillAttributeStore_Equipment@GAME@@UEAA@XZ
32070 - ??1SkillAttributeStore_Max@GAME@@UEAA@XZ
32070 - ??1SkillAttributeStore_Min@GAME@@UEAA@XZ
32070 - ??1SkillAttributeStore_Skill@GAME@@UEAA@XZ
409C60 - ??1SkillAttributeVal@GAME@@UEAA@XZ
409C60 - ??1SkillAttributeVal_CooldownReduction@GAME@@UEAA@XZ
409C60 - ??1SkillAttributeVal_ManaCostReduction@GAME@@UEAA@XZ
409C60 - ??1SkillAttributeVal_ProjectileSpeedModifier@GAME@@UEAA@XZ
A4F00 - ??1SkillAugmentUpdateConfigCmd@GAME@@UEAA@XZ
2BB960 - ??1SkillAugmentUpdateConfigCmdPacket@GAME@@UEAA@XZ
40C520 - ??1SkillAutoCastController@GAME@@UEAA@XZ
3A9A90 - ??1SkillBuff@GAME@@UEAA@XZ
3A9A90 - ??1SkillBuff_BuffImmobilize@GAME@@UEAA@XZ
3A9A90 - ??1SkillBuff_Contageous@GAME@@UEAA@XZ
3A9A90 - ??1SkillBuff_Debuf@GAME@@UEAA@XZ
3A9A90 - ??1SkillBuff_DebufFreeze@GAME@@UEAA@XZ
3A9A90 - ??1SkillBuff_DebufRadius@GAME@@UEAA@XZ
3A9A90 - ??1SkillBuff_DebufTrap@GAME@@UEAA@XZ
3A9A90 - ??1SkillBuff_Passive@GAME@@UEAA@XZ
3A9A90 - ??1SkillBuff_PassiveCharged@GAME@@UEAA@XZ
3A9A90 - ??1SkillBuff_PassiveEndless@GAME@@UEAA@XZ
3A9A90 - ??1SkillBuff_PassiveShield@GAME@@UEAA@XZ
6ECF0 - ??1SkillChanneled@GAME@@UEAA@XZ
4109F0 - ??1SkillLocation@GAME@@UEAA@XZ
411200 - ??1SkillManager@GAME@@UEAA@XZ
423EE0 - ??1SkillManagerBase@GAME@@UEAA@XZ
423EE0 - ??1SkillManagerLite@GAME@@UEAA@XZ
B63B0 - ??1SkillOnDeath@GAME@@UEAA@XZ
4250C0 - ??1SkillProfile@GAME@@UEAA@XZ
3ABC60 - ??1SkillSecondary@GAME@@UEAA@XZ
42DE30 - ??1SkillSecondary_AttackRadius@GAME@@UEAA@XZ
3ABC60 - ??1SkillSecondary_Bonus@GAME@@UEAA@XZ
3ABC60 - ??1SkillSecondary_BuffAttackRadiusDuration@GAME@@UEAA@XZ
3ABC60 - ??1SkillSecondary_BuffRadius@GAME@@UEAA@XZ
3ABC60 - ??1SkillSecondary_BuffSelfDuration@GAME@@UEAA@XZ
430260 - ??1SkillSecondary_ChainBonus@GAME@@UEAA@XZ
431620 - ??1SkillSecondary_ChainLightning@GAME@@UEAA@XZ
432BC0 - ??1SkillSecondary_ForkLightning@GAME@@UEAA@XZ
3AD660 - ??1SkillSecondary_OnHitBuffRadius@GAME@@UEAA@XZ
3AE440 - ??1SkillSecondary_OnKillAttackRadius@GAME@@UEAA@XZ
433F00 - ??1SkillSecondary_PetModifier@GAME@@UEAA@XZ
3ABC60 - ??1SkillSecondary_PetSpawn@GAME@@UEAA@XZ
3AF4D0 - ??1SkillSecondary_Tether@GAME@@UEAA@XZ
437170 - ??1SkillServicesBase@GAME@@UEAA@XZ
4358E0 - ??1SkillServices_Character@GAME@@UEAA@XZ
14560 - ??1SkillState@GAME@@QEAA@XZ
A4BC0 - ??1SkillStateUpdateConfigCmd@GAME@@UEAA@XZ
2BB1A0 - ??1SkillStateUpdateConfigCmdPacket@GAME@@UEAA@XZ
A2ED0 - ??1SkillTargetResultConfigCmd@GAME@@UEAA@XZ
2B7B60 - ??1SkillTargetResultConfigCmdPacket@GAME@@UEAA@XZ
3B1270 - ??1Skill_AktaiosLightOfRa@GAME@@UEAA@XZ
3B1620 - ??1Skill_AktaiosMirage@GAME@@UEAA@XZ
6ECF0 - ??1Skill_AttackBuff@GAME@@UEAA@XZ
3B2B20 - ??1Skill_AttackBuffRadius@GAME@@UEAA@XZ
3B3020 - ??1Skill_AttackChain@GAME@@UEAA@XZ
3B47C0 - ??1Skill_AttackInherent@GAME@@UEAA@XZ
3B5F60 - ??1Skill_AttackPathCharge@GAME@@UEAA@XZ
6ECF0 - ??1Skill_AttackProjectile@GAME@@UEAA@XZ
6ECF0 - ??1Skill_AttackProjectileAreaEffect@GAME@@UEAA@XZ
3B8400 - ??1Skill_AttackProjectileBurst@GAME@@UEAA@XZ
3B9570 - ??1Skill_AttackProjectileChain@GAME@@UEAA@XZ
3BA840 - ??1Skill_AttackProjectileDebuf@GAME@@UEAA@XZ
3E6C10 - ??1Skill_AttackProjectileDrop@GAME@@UEAA@XZ
3BD650 - ??1Skill_AttackProjectileFan@GAME@@UEAA@XZ
3BAD80 - ??1Skill_AttackProjectileMultiHit@GAME@@UEAA@XZ
3BC0B0 - ??1Skill_AttackProjectileRing@GAME@@UEAA@XZ
3BD6F0 - ??1Skill_AttackProjectileSpawnPet@GAME@@UEAA@XZ
3BEAB0 - ??1Skill_AttackRadius@GAME@@UEAA@XZ
3BFE20 - ??1Skill_AttackRadiusDisengage@GAME@@UEAA@XZ
6ECF0 - ??1Skill_AttackRadiusLeap@GAME@@UEAA@XZ
3CF110 - ??1Skill_AttackRadiusLightning2@GAME@@UEAA@XZ
3CE660 - ??1Skill_AttackRadiusLightning@GAME@@UEAA@XZ
3C0A00 - ??1Skill_AttackRadiusLightningSpawnPet@GAME@@UEAA@XZ
3C18E0 - ??1Skill_AttackRadiusSpin@GAME@@UEAA@XZ
6ECF0 - ??1Skill_AttackRadiusTeleport@GAME@@UEAA@XZ
6ECF0 - ??1Skill_AttackSpell@GAME@@UEAA@XZ
3D0690 - ??1Skill_AttackSpellBeam@GAME@@UEAA@XZ
3D2AB0 - ??1Skill_AttackSpellChaos@GAME@@UEAA@XZ
3C3030 - ??1Skill_AttackSpellChaosSpawnPet@GAME@@UEAA@XZ
3C4B00 - ??1Skill_AttackSpellCone@GAME@@UEAA@XZ
3C6FF0 - ??1Skill_AttackSpellDrain@GAME@@UEAA@XZ
3CAD20 - ??1Skill_AttackSpellReflectLink@GAME@@UEAA@XZ
3D3E90 - ??1Skill_AttackSpellTeleport@GAME@@UEAA@XZ
3D4090 - ??1Skill_AttackSpellTeleportSelf@GAME@@UEAA@XZ
3D4600 - ??1Skill_AttackTelekinesis@GAME@@UEAA@XZ
3D6D00 - ??1Skill_AttackWave@GAME@@UEAA@XZ
3DA290 - ??1Skill_AttackWeapon@GAME@@UEAA@XZ
3DA290 - ??1Skill_AttackWeaponBlink@GAME@@UEAA@XZ
3DA290 - ??1Skill_AttackWeaponCharge@GAME@@UEAA@XZ
3DA290 - ??1Skill_AttackWeaponRangedSpread@GAME@@UEAA@XZ
3DC760 - ??1Skill_BuffAttackRadiusDuration@GAME@@UEAA@XZ
3DC760 - ??1Skill_BuffAttackRadiusToggled@GAME@@UEAA@XZ
3DCF90 - ??1Skill_BuffOther@GAME@@UEAA@XZ
3DDDB0 - ??1Skill_BuffRadius@GAME@@UEAA@XZ
3DDDB0 - ??1Skill_BuffRadiusToggled@GAME@@UEAA@XZ
3DF1E0 - ??1Skill_BuffSelfColossus@GAME@@UEAA@XZ
3DF1E0 - ??1Skill_BuffSelfDuration@GAME@@UEAA@XZ
3DF1E0 - ??1Skill_BuffSelfImmobilize@GAME@@UEAA@XZ
3DF1E0 - ??1Skill_BuffSelfInvulnerable@GAME@@UEAA@XZ
3DF1E0 - ??1Skill_BuffSelfShield@GAME@@UEAA@XZ
3DF1E0 - ??1Skill_BuffSelfSick@GAME@@UEAA@XZ
3DF1E0 - ??1Skill_BuffSelfToggled@GAME@@UEAA@XZ
3E1860 - ??1Skill_CerberusGeysers@GAME@@UEAA@XZ
3DCF90 - ??1Skill_ChargedBuffOther@GAME@@UEAA@XZ
3E3710 - ??1Skill_CharonGeysers@GAME@@UEAA@XZ
3E4070 - ??1Skill_DefensiveGround@GAME@@UEAA@XZ
3E40C0 - ??1Skill_DefensiveLine@GAME@@UEAA@XZ
3E4B30 - ??1Skill_DefensiveWall@GAME@@UEAA@XZ
6ECF0 - ??1Skill_DispelMagic@GAME@@UEAA@XZ
3E7220 - ??1Skill_DropProjectileTelekinesis@GAME@@UEAA@XZ
6ECF0 - ??1Skill_E3FauxAttack@GAME@@UEAA@XZ
3E7C10 - ??1Skill_GiveBonus@GAME@@UEAA@XZ
40D00 - ??1Skill_Kick@GAME@@UEAA@XZ
3E8D50 - ??1Skill_Mastery@GAME@@UEAA@XZ
3E9E30 - ??1Skill_MeleeModifier@GAME@@UEAA@XZ
3E9E30 - ??1Skill_MeleeModifierRadius@GAME@@UEAA@XZ
3EA370 - ??1Skill_Modifier@GAME@@UEAA@XZ
3EBE80 - ??1Skill_MonsterGenerator@GAME@@UEAA@XZ
3ECC50 - ??1Skill_Move@GAME@@UEAA@XZ
3ECCD0 - ??1Skill_OnDeathSpawnActor@GAME@@UEAA@XZ
3ED420 - ??1Skill_OnHitAttackRadius@GAME@@UEAA@XZ
3EE200 - ??1Skill_OnHitBuffSelf@GAME@@UEAA@XZ
3EECD0 - ??1Skill_OrmenosChainLaser@GAME@@UEAA@XZ
3E8D50 - ??1Skill_Passive@GAME@@UEAA@XZ
3E8D50 - ??1Skill_PassiveDualWieldWeapon@GAME@@UEAA@XZ
3F0160 - ??1Skill_PassiveOnCritBuffSelf@GAME@@UEAA@XZ
3F0160 - ??1Skill_PassiveOnHitBuffSelf@GAME@@UEAA@XZ
3F1270 - ??1Skill_PassiveOnLifeBuffSelf@GAME@@UEAA@XZ
3F1BE0 - ??1Skill_PassiveShield@GAME@@UEAA@XZ
3F1EB0 - ??1Skill_PetAttack@GAME@@UEAA@XZ
3F2340 - ??1Skill_PlayAttackAnimation@GAME@@UEAA@XZ
3F2450 - ??1Skill_ProjectileModifier@GAME@@UEAA@XZ
3F2450 - ??1Skill_ProjectileTransmuter@GAME@@UEAA@XZ
3F2970 - ??1Skill_RefreshCooldown@GAME@@UEAA@XZ
3F3290 - ??1Skill_RefreshCooldownModifier@GAME@@UEAA@XZ
3F3D70 - ??1Skill_SpawnMegalesiosSpirit@GAME@@UEAA@XZ
3F58A0 - ??1Skill_SpawnMiniPet@GAME@@UEAA@XZ
3F4950 - ??1Skill_SpawnPet@GAME@@UEAA@XZ
3F6460 - ??1Skill_SpawnPetMonster@GAME@@UEAA@XZ
3F5CA0 - ??1Skill_SpawnPetTransmuter@GAME@@UEAA@XZ
3F6550 - ??1Skill_SpawnQuestPet@GAME@@UEAA@XZ
3F7CF0 - ??1Skill_Teleport@GAME@@UEAA@XZ
3EBE00 - ??1Skill_Transmuter@GAME@@UEAA@XZ
3F8170 - ??1Skill_TurretFireControl@GAME@@UEAA@XZ
3F8D80 - ??1Skill_TyphonSkillTransfer@GAME@@UEAA@XZ
401200 - ??1Skill_WPAttack@GAME@@UEAA@XZ
3FE3D0 - ??1Skill_WPAttack_AttackWave@GAME@@UEAA@XZ
401200 - ??1Skill_WPAttack_BasicAttack@GAME@@UEAA@XZ
401200 - ??1Skill_WPAttack_ProjectileBurst@GAME@@UEAA@XZ
401200 - ??1Skill_WPAttack_RadialCrit@GAME@@UEAA@XZ
3F9B00 - ??1Skill_WeaponPool_BasicAttack@GAME@@UEAA@XZ
3F9B80 - ??1Skill_WeaponPool_ChargedFinale@GAME@@UEAA@XZ
3FAB30 - ??1Skill_WeaponPool_ChargedLinear@GAME@@UEAA@XZ
3FE220 - ??1Skill_WeaponPool_Default@GAME@@UEAA@XZ
437820 - ??1SlotManager@GAME@@QEAA@XZ
439A80 - ??1SoundAmbient@GAME@@QEAA@XZ
439DD0 - ??1SoundObject@GAME@@UEAA@XZ
43A1B0 - ??1SoundPeriodic@GAME@@QEAA@XZ
6EF70 - ??1SpawnAction@GAME@@UEAA@XZ
2D98A0 - ??1SpawnActionPacket@GAME@@UEAA@XZ
184E10 - ??1SpawnActorDeathHandler@GAME@@UEAA@XZ
185B30 - ??1SpawnMyBonesDeathHandler@GAME@@UEAA@XZ
A4960 - ??1SpawnObjectConfigCmd@GAME@@UEAA@XZ
2BA6F0 - ??1SpawnObjectConfigCmdPacket@GAME@@UEAA@XZ
2D54B0 - ??1SpawnPlayerPacket@GAME@@UEAA@XZ
41340 - ??1SpecialCharHandler@GAME@@UEAA@XZ
43EFA0 - ??1SpecialCharHandler_FadeAwayFromPlayer@GAME@@UEAA@XZ
43EFA0 - ??1SpecialCharHandler_FadeNearPlayer@GAME@@UEAA@XZ
43DCC0 - ??1SpecialCharHandler_IcyCharacter@GAME@@UEAA@XZ
43F8D0 - ??1SpecialFX@GAME@@UEAA@XZ
2DDD30 - ??1StartServerRespawnPacket@GAME@@UEAA@XZ
2CDAC0 - ??1StartShrineProxyPacket@GAME@@UEAA@XZ
A7FE0 - ??1StartStopDamageEffectConfigCmd@GAME@@UEAA@XZ
2C2A60 - ??1StartStopDamageEffectConfigCmdPacket@GAME@@UEAA@XZ
2DE160 - ??1StartTeleportPacket@GAME@@UEAA@XZ
BB360 - ??1StaticMarker@GAME@@UEAA@XZ
BB360 - ??1StaticRespawner@GAME@@UEAA@XZ
440590 - ??1StaticShrine@GAME@@UEAA@XZ
444C30 - ??1StaticShrineStateChangeConfigCmd@GAME@@UEAA@XZ
2BEF70 - ??1StaticShrineStateChangeConfigCmdPacket@GAME@@UEAA@XZ
445430 - ??1StaticTeleporter@GAME@@UEAA@XZ
2E08E0 - ??1StopVideoRequestPacket@GAME@@UEAA@XZ
2DEDE0 - ??1SurvivalModeDataPacket@GAME@@UEAA@XZ
2DFC40 - ??1SyncObjectivesPacket@GAME@@UEAA@XZ
A9070 - ??1TakeBonusConfigCmd@GAME@@UEAA@XZ
2C4270 - ??1TakeBonusConfigCmdPacket@GAME@@UEAA@XZ
6EF70 - ??1TakeHitAction@GAME@@UEAA@XZ
2D8790 - ??1TakeHitPacket@GAME@@UEAA@XZ
6EF70 - ??1TakeKnockdownAction@GAME@@UEAA@XZ
2D8660 - ??1TakeKnockdownPacket@GAME@@UEAA@XZ
6EF70 - ??1TakeSleepAction@GAME@@UEAA@XZ
2D88C0 - ??1TakeSleepPacket@GAME@@UEAA@XZ
6EF70 - ??1TakeStunAction@GAME@@UEAA@XZ
2D84F0 - ??1TakeStunPacket@GAME@@UEAA@XZ
6EF70 - ??1TakeTrapAction@GAME@@UEAA@XZ
2D8B20 - ??1TakeTrapPacket@GAME@@UEAA@XZ
1842A0 - ??1TelkineDeathHandler@GAME@@UEAA@XZ
45D0D0 - ??1TerrainDecoration@GAME@@UEAA@XZ
2C9B40 - ??1TradeAddItemPacket@GAME@@UEAA@XZ
2C94D0 - ??1TradeCancelPacket@GAME@@UEAA@XZ
2C9620 - ??1TradeFinalizePacket@GAME@@UEAA@XZ
2C9380 - ??1TradeInitiatePacket@GAME@@UEAA@XZ
45E210 - ??1TradeManager@GAME@@UEAA@XZ
2C9F30 - ??1TradeRemoveItemPacket@GAME@@UEAA@XZ
2C9770 - ??1TradeSetGoldPacket@GAME@@UEAA@XZ
45E070 - ??1TradeState@GAME@@UEAA@XZ
A6E40 - ??1TransmuteItemsConfigCmd@GAME@@UEAA@XZ
2BE570 - ??1TransmuteItemsConfigCmdPacket@GAME@@UEAA@XZ
BB1E0 - ??1Turret@GAME@@UEAA@XZ
2CC8C0 - ??1UnJoinLeaderPacket@GAME@@UEAA@XZ
2D68C0 - ??1UpdatePositionPacket@GAME@@UEAA@XZ
6EF70 - ??1UseAction@GAME@@UEAA@XZ
A2330 - ??1UseItemConfigCmd@GAME@@UEAA@XZ
2B5A70 - ??1UseItemConfigCmdPacket@GAME@@UEAA@XZ
A2510 - ??1UseItemOnConfigCmd@GAME@@UEAA@XZ
2B5E80 - ??1UseItemOnConfigCmdPacket@GAME@@UEAA@XZ
2D77F0 - ??1UseItemPacket@GAME@@UEAA@XZ
461930 - ??1VoiceChatManager@GAME@@QEAA@XZ
6EF70 - ??1WakeUpAction@GAME@@UEAA@XZ
2D95F0 - ??1WakeUpActionPacket@GAME@@UEAA@XZ
6EF70 - ??1WalkAction@GAME@@UEAA@XZ
2D7310 - ??1WalkPacket@GAME@@UEAA@XZ
2D5D60 - ??1WarpEntityPacket@GAME@@UEAA@XZ
462140 - ??1Weapon@GAME@@UEAA@XZ
464F10 - ??1WeaponArmor@GAME@@UEAA@XZ
464F10 - ??1WeaponArmor_Offhand@GAME@@UEAA@XZ
4656D0 - ??1WeaponArmor_Shield@GAME@@UEAA@XZ
4665B0 - ??1WeaponHunting@GAME@@UEAA@XZ
4665B0 - ??1WeaponHunting_Ranged1h@GAME@@UEAA@XZ
4665B0 - ??1WeaponHunting_Ranged2h@GAME@@UEAA@XZ
4665B0 - ??1WeaponHunting_Spear@GAME@@UEAA@XZ
466960 - ??1WeaponMagical@GAME@@UEAA@XZ
466960 - ??1WeaponMagical_Staff@GAME@@UEAA@XZ
466B90 - ??1WeaponMelee@GAME@@UEAA@XZ
466B90 - ??1WeaponMelee_Axe2h@GAME@@UEAA@XZ
466B90 - ??1WeaponMelee_Axe@GAME@@UEAA@XZ
466B90 - ??1WeaponMelee_Dagger@GAME@@UEAA@XZ
466B90 - ??1WeaponMelee_Mace2h@GAME@@UEAA@XZ
466B90 - ??1WeaponMelee_Mace@GAME@@UEAA@XZ
466B90 - ??1WeaponMelee_Scepter@GAME@@UEAA@XZ
466B90 - ??1WeaponMelee_Sword2h@GAME@@UEAA@XZ
466B90 - ??1WeaponMelee_Sword@GAME@@UEAA@XZ
2D43F0 - ??1WorldInitPacket@GAME@@UEAA@XZ
3A950 - ??4?$ControllerAIStateT@VControllerAI@GAME@@VCharacter@2@@GAME@@QEAAAEAV01@AEBV01@@Z
3A950 - ??4?$ControllerAIStateT@VControllerCerberus@GAME@@VCerberus@2@@GAME@@QEAAAEAV01@AEBV01@@Z
3A950 - ??4?$ControllerAIStateT@VControllerMegalesios@GAME@@VMegalesios@2@@GAME@@QEAAAEAV01@AEBV01@@Z
3A950 - ??4?$ControllerAIStateT@VControllerMegalesios@GAME@@VMonster@2@@GAME@@QEAAAEAV01@AEBV01@@Z
3A950 - ??4?$ControllerAIStateT@VControllerMonster@GAME@@VMonster@2@@GAME@@QEAAAEAV01@AEBV01@@Z
3A950 - ??4?$ControllerAIStateT@VControllerMonsterHidden@GAME@@VMonster@2@@GAME@@QEAAAEAV01@AEBV01@@Z
3A950 - ??4?$ControllerAIStateT@VControllerMonsterSynergy@GAME@@VMonster@2@@GAME@@QEAAAEAV01@AEBV01@@Z
3A950 - ??4?$ControllerAIStateT@VControllerNpc2@GAME@@VNpc@2@@GAME@@QEAAAEAV01@AEBV01@@Z
3A950 - ??4?$ControllerAIStateT@VControllerNpcHerdAnimal@GAME@@VCharacter@2@@GAME@@QEAAAEAV01@AEBV01@@Z
3A950 - ??4?$ControllerAIStateT@VControllerNpcHerdAnimal@GAME@@VNpc@2@@GAME@@QEAAAEAV01@AEBV01@@Z
3A950 - ??4?$ControllerAIStateT@VControllerNpcHerder@GAME@@VCharacter@2@@GAME@@QEAAAEAV01@AEBV01@@Z
3A950 - ??4?$ControllerAIStateT@VControllerPlayer@GAME@@VPlayer@2@@GAME@@QEAAAEAV01@AEBV01@@Z
3A950 - ??4?$ControllerAIStateT@VControllerSpirit@GAME@@VMonster@2@@GAME@@QEAAAEAV01@AEBV01@@Z
3A950 - ??4?$ControllerAIStateT@VControllerSpiritHost@GAME@@VSpiritHost@2@@GAME@@QEAAAEAV01@AEBV01@@Z
3A950 - ??4?$ControllerAIStateT@VControllerStationaryMonster@GAME@@VMonster@2@@GAME@@QEAAAEAV01@AEBV01@@Z
3A950 - ??4?$ControllerAIStateT@VControllerTerracotta@GAME@@VMonster@2@@GAME@@QEAAAEAV01@AEBV01@@Z
3A950 - ??4?$ControllerAIStateT@VControllerTyphonChained@GAME@@VMonster@2@@GAME@@QEAAAEAV01@AEBV01@@Z
3A950 - ??4?$ControllerMonsterState@VControllerCerberus@GAME@@VCerberus@2@@GAME@@QEAAAEAV01@AEBV01@@Z
3A950 - ??4?$ControllerMonsterState@VControllerMegalesios@GAME@@VMegalesios@2@@GAME@@QEAAAEAV01@AEBV01@@Z
3A950 - ??4?$ControllerMonsterState@VControllerMegalesios@GAME@@VMonster@2@@GAME@@QEAAAEAV01@AEBV01@@Z
3A950 - ??4?$ControllerMonsterState@VControllerMonster@GAME@@VMonster@2@@GAME@@QEAAAEAV01@AEBV01@@Z
3A950 - ??4?$ControllerMonsterState@VControllerMonsterHidden@GAME@@VMonster@2@@GAME@@QEAAAEAV01@AEBV01@@Z
3A950 - ??4?$ControllerMonsterState@VControllerMonsterSynergy@GAME@@VMonster@2@@GAME@@QEAAAEAV01@AEBV01@@Z
3A950 - ??4?$ControllerMonsterState@VControllerSpirit@GAME@@VMonster@2@@GAME@@QEAAAEAV01@AEBV01@@Z
3A950 - ??4?$ControllerMonsterState@VControllerSpiritHost@GAME@@VSpiritHost@2@@GAME@@QEAAAEAV01@AEBV01@@Z
3A950 - ??4?$ControllerMonsterState@VControllerStationaryMonster@GAME@@VMonster@2@@GAME@@QEAAAEAV01@AEBV01@@Z
3A950 - ??4?$ControllerMonsterState@VControllerTerracotta@GAME@@VMonster@2@@GAME@@QEAAAEAV01@AEBV01@@Z
3A950 - ??4?$ControllerMonsterState@VControllerTyphonChained@GAME@@VMonster@2@@GAME@@QEAAAEAV01@AEBV01@@Z
14820 - ??4?$FilterFunction@VCharacterAction@GAME@@@GAME@@QEAAAEAV01@$$QEAV01@@Z
14820 - ??4?$FilterFunction@VCharacterAction@GAME@@@GAME@@QEAAAEAV01@AEBV01@@Z
14820 - ??4?$FilterFunction@VEntity@GAME@@@GAME@@QEAAAEAV01@$$QEAV01@@Z
14820 - ??4?$FilterFunction@VEntity@GAME@@@GAME@@QEAAAEAV01@AEBV01@@Z
14820 - ??4?$Singleton@VQuest2Repository@GAME@@@GAME@@QEAAAEAV01@AEBV01@@Z
453AB0 - ??4Achievement@GAME@@QEAAAEAV01@AEBV01@@Z
451FE0 - ??4AckEntityPacket@GAME@@QEAAAEAV01@AEBV01@@Z
3E9B0 - ??4ActivateSkillConfigCmd@GAME@@QEAAAEAV01@AEBV01@@Z
44E520 - ??4ActivateSkillConfigCmdPacket@GAME@@QEAAAEAV01@AEBV01@@Z
3B420 - ??4AddInventoryItemConfigCmd@GAME@@QEAAAEAV01@AEBV01@@Z
44D240 - ??4AddInventoryItemConfigCmdPacket@GAME@@QEAAAEAV01@AEBV01@@Z
1EA340 - ??4AddPetBonusFxPakPacket@GAME@@QEAAAEAV01@AEBV01@@Z
3B320 - ??4AdjustFactionConfigCmd@GAME@@QEAAAEAV01@AEBV01@@Z
44BD20 - ??4AdjustFactionConfigCmdPacket@GAME@@QEAAAEAV01@AEBV01@@Z
1F0EA0 - ??4AllPlayersBasicInfoPacket@GAME@@QEAAAEAV01@AEBV01@@Z
1F1750 - ??4AllPlayersHeartbeatPacket@GAME@@QEAAAEAV01@AEBV01@@Z
15870 - ??4AmbientShadow@GAME@@QEAAAEAV01@AEBV01@@Z
1C670 - ??4AngerManager@GAME@@QEAAAEAV01@AEBV01@@Z
449340 - ??4AnimationSet@GAME@@QEAAAEAV01@AEBV01@@Z
24980 - ??4AreaTriggerHookPack@GAME@@QEAAAEAV01@AEBV01@@Z
3B320 - ??4AttachItemConfigCmd@GAME@@QEAAAEAV01@AEBV01@@Z
44BD20 - ??4AttachItemConfigCmdPacket@GAME@@QEAAAEAV01@AEBV01@@Z
3F110 - ??4AttachPetAutocastConfigCmd@GAME@@QEAAAEAV01@AEBV01@@Z
44E9D0 - ??4AttachPetAutocastConfigCmdPacket@GAME@@QEAAAEAV01@AEBV01@@Z
452990 - ??4AttackPacket@GAME@@QEAAAEAV01@AEBV01@@Z
328E0 - ??4AttackRandoms@GAME@@QEAAAEAV01@AEBV01@@Z
31A30 - ??4AttributePak@GAME@@QEAAAEAV01@AEBV01@@Z
34870 - ??4AttributeRange@GAME@@QEAAAEAV01@$$QEAV01@@Z
34870 - ??4AttributeRange@GAME@@QEAAAEAV01@AEBV01@@Z
35EF0 - ??4AuraContainer@GAME@@QEAAAEAV01@AEBV01@@Z
44A200 - ??4AuraManager@GAME@@QEAAAEAV01@AEBV01@@Z
1F09E0 - ??4BonusToClientPacket@GAME@@QEAAAEAV01@AEBV01@@Z
1F08D0 - ??4BonusToServerPacket@GAME@@QEAAAEAV01@AEBV01@@Z
2D500 - ??4ChallengeArea@GAME@@QEAAAEAV01@$$QEAV01@@Z
2D370 - ??4ChallengeArea@GAME@@QEAAAEAV01@AEBV01@@Z
92770 - ??4CharAttribute@GAME@@QEAAAEAV01@AEBV01@@Z
44AC70 - ??4CharAttributeAccumulator@GAME@@QEAAAEAV01@AEBV01@@Z
92770 - ??4CharAttributeAttackSpeed@GAME@@QEAAAEAV01@$$QEAV01@@Z
92770 - ??4CharAttributeAttackSpeed@GAME@@QEAAAEAV01@AEBV01@@Z
92770 - ??4CharAttributeAttackSpeedMod@GAME@@QEAAAEAV01@$$QEAV01@@Z
92770 - ??4CharAttributeAttackSpeedMod@GAME@@QEAAAEAV01@AEBV01@@Z
92770 - ??4CharAttributeMod@GAME@@QEAAAEAV01@$$QEAV01@@Z
92770 - ??4CharAttributeMod@GAME@@QEAAAEAV01@AEBV01@@Z
92770 - ??4CharAttributeMod_AttackSpeed@GAME@@QEAAAEAV01@$$QEAV01@@Z
92770 - ??4CharAttributeMod_AttackSpeed@GAME@@QEAAAEAV01@AEBV01@@Z
92770 - ??4CharAttributeMod_Constitution@GAME@@QEAAAEAV01@$$QEAV01@@Z
92770 - ??4CharAttributeMod_Constitution@GAME@@QEAAAEAV01@AEBV01@@Z
92770 - ??4CharAttributeMod_Dexterity@GAME@@QEAAAEAV01@$$QEAV01@@Z
92770 - ??4CharAttributeMod_Dexterity@GAME@@QEAAAEAV01@AEBV01@@Z
92770 - ??4CharAttributeMod_HealIncrease@GAME@@QEAAAEAV01@$$QEAV01@@Z
92770 - ??4CharAttributeMod_HealIncrease@GAME@@QEAAAEAV01@AEBV01@@Z
92770 - ??4CharAttributeMod_Intelligence@GAME@@QEAAAEAV01@$$QEAV01@@Z
92770 - ??4CharAttributeMod_Intelligence@GAME@@QEAAAEAV01@AEBV01@@Z
92770 - ??4CharAttributeMod_Life@GAME@@QEAAAEAV01@$$QEAV01@@Z
92770 - ??4CharAttributeMod_Life@GAME@@QEAAAEAV01@AEBV01@@Z
92770 - ??4CharAttributeMod_LifeRegen@GAME@@QEAAAEAV01@$$QEAV01@@Z
92770 - ??4CharAttributeMod_LifeRegen@GAME@@QEAAAEAV01@AEBV01@@Z
92770 - ??4CharAttributeMod_Mana@GAME@@QEAAAEAV01@$$QEAV01@@Z
92770 - ??4CharAttributeMod_Mana@GAME@@QEAAAEAV01@AEBV01@@Z
92770 - ??4CharAttributeMod_ManaLimitReserve@GAME@@QEAAAEAV01@$$QEAV01@@Z
92770 - ??4CharAttributeMod_ManaLimitReserve@GAME@@QEAAAEAV01@AEBV01@@Z
92770 - ??4CharAttributeMod_ManaLimitReserveReduction@GAME@@QEAAAEAV01@$$QEAV01@@Z
92770 - ??4CharAttributeMod_ManaLimitReserveReduction@GAME@@QEAAAEAV01@AEBV01@@Z
92770 - ??4CharAttributeMod_ManaRegen@GAME@@QEAAAEAV01@$$QEAV01@@Z
92770 - ??4CharAttributeMod_ManaRegen@GAME@@QEAAAEAV01@AEBV01@@Z
92770 - ??4CharAttributeMod_RunSpeed@GAME@@QEAAAEAV01@$$QEAV01@@Z
92770 - ??4CharAttributeMod_RunSpeed@GAME@@QEAAAEAV01@AEBV01@@Z
92770 - ??4CharAttributeMod_SpellCastSpeed@GAME@@QEAAAEAV01@$$QEAV01@@Z
92770 - ??4CharAttributeMod_SpellCastSpeed@GAME@@QEAAAEAV01@AEBV01@@Z
92770 - ??4CharAttributeMod_Strength@GAME@@QEAAAEAV01@$$QEAV01@@Z
92770 - ??4CharAttributeMod_Strength@GAME@@QEAAAEAV01@AEBV01@@Z
92770 - ??4CharAttributeMod_TotalSpeed@GAME@@QEAAAEAV01@$$QEAV01@@Z
92770 - ??4CharAttributeMod_TotalSpeed@GAME@@QEAAAEAV01@AEBV01@@Z
92770 - ??4CharAttributeOtherSpeed@GAME@@QEAAAEAV01@$$QEAV01@@Z
92770 - ??4CharAttributeOtherSpeed@GAME@@QEAAAEAV01@AEBV01@@Z
92770 - ??4CharAttributeOtherSpeedMod@GAME@@QEAAAEAV01@$$QEAV01@@Z
92770 - ??4CharAttributeOtherSpeedMod@GAME@@QEAAAEAV01@AEBV01@@Z
92770 - ??4CharAttributePriMod@GAME@@QEAAAEAV01@$$QEAV01@@Z
92770 - ??4CharAttributePriMod@GAME@@QEAAAEAV01@AEBV01@@Z
92770 - ??4CharAttributeSecMod@GAME@@QEAAAEAV01@$$QEAV01@@Z
92770 - ??4CharAttributeSecMod@GAME@@QEAAAEAV01@AEBV01@@Z
31950 - ??4CharAttributeStore@GAME@@QEAAAEAV01@AEBV01@@Z
31950 - ??4CharAttributeStore_Bio@GAME@@QEAAAEAV01@$$QEAV01@@Z
31950 - ??4CharAttributeStore_Bio@GAME@@QEAAAEAV01@AEBV01@@Z
31950 - ??4CharAttributeStore_Equipment@GAME@@QEAAAEAV01@$$QEAV01@@Z
31950 - ??4CharAttributeStore_Equipment@GAME@@QEAAAEAV01@AEBV01@@Z
31950 - ??4CharAttributeStore_EquipmentPenaltyReduction@GAME@@QEAAAEAV01@$$QEAV01@@Z
31950 - ??4CharAttributeStore_EquipmentPenaltyReduction@GAME@@QEAAAEAV01@AEBV01@@Z
31950 - ??4CharAttributeStore_Max@GAME@@QEAAAEAV01@$$QEAV01@@Z
31950 - ??4CharAttributeStore_Max@GAME@@QEAAAEAV01@AEBV01@@Z
31950 - ??4CharAttributeStore_Min@GAME@@QEAAAEAV01@$$QEAV01@@Z
31950 - ??4CharAttributeStore_Min@GAME@@QEAAAEAV01@AEBV01@@Z
31950 - ??4CharAttributeStore_Skill@GAME@@QEAAAEAV01@$$QEAV01@@Z
31950 - ??4CharAttributeStore_Skill@GAME@@QEAAAEAV01@AEBV01@@Z
31950 - ??4CharAttributeStore_SkillPenalty@GAME@@QEAAAEAV01@$$QEAV01@@Z
31950 - ??4CharAttributeStore_SkillPenalty@GAME@@QEAAAEAV01@AEBV01@@Z
31950 - ??4CharAttributeStore_SkillPenaltyReduction@GAME@@QEAAAEAV01@$$QEAV01@@Z
31950 - ??4CharAttributeStore_SkillPenaltyReduction@GAME@@QEAAAEAV01@AEBV01@@Z
92770 - ??4CharAttributeVal@GAME@@QEAAAEAV01@$$QEAV01@@Z
92770 - ??4CharAttributeVal@GAME@@QEAAAEAV01@AEBV01@@Z
92770 - ??4CharAttributeValPri@GAME@@QEAAAEAV01@$$QEAV01@@Z
92770 - ??4CharAttributeValPri@GAME@@QEAAAEAV01@AEBV01@@Z
92770 - ??4CharAttributeValSec@GAME@@QEAAAEAV01@$$QEAV01@@Z
92770 - ??4CharAttributeValSec@GAME@@QEAAAEAV01@AEBV01@@Z
92770 - ??4CharAttributeValSpeed@GAME@@QEAAAEAV01@$$QEAV01@@Z
92770 - ??4CharAttributeValSpeed@GAME@@QEAAAEAV01@AEBV01@@Z
92770 - ??4CharAttributeVal_ArmorDexterityReqReduction@GAME@@QEAAAEAV01@$$QEAV01@@Z
92770 - ??4CharAttributeVal_ArmorDexterityReqReduction@GAME@@QEAAAEAV01@AEBV01@@Z
92770 - ??4CharAttributeVal_ArmorIntelligenceReqReduction@GAME@@QEAAAEAV01@$$QEAV01@@Z
92770 - ??4CharAttributeVal_ArmorIntelligenceReqReduction@GAME@@QEAAAEAV01@AEBV01@@Z
92770 - ??4CharAttributeVal_ArmorStrengthReqReduction@GAME@@QEAAAEAV01@$$QEAV01@@Z
92770 - ??4CharAttributeVal_ArmorStrengthReqReduction@GAME@@QEAAAEAV01@AEBV01@@Z
92770 - ??4CharAttributeVal_AttackSpeed@GAME@@QEAAAEAV01@$$QEAV01@@Z
92770 - ??4CharAttributeVal_AttackSpeed@GAME@@QEAAAEAV01@AEBV01@@Z
92770 - ??4CharAttributeVal_BaseAttackSpeed@GAME@@QEAAAEAV01@$$QEAV01@@Z
92770 - ??4CharAttributeVal_BaseAttackSpeed@GAME@@QEAAAEAV01@AEBV01@@Z
92770 - ??4CharAttributeVal_Constitution@GAME@@QEAAAEAV01@$$QEAV01@@Z
92770 - ??4CharAttributeVal_Constitution@GAME@@QEAAAEAV01@AEBV01@@Z
92770 - ??4CharAttributeVal_DefensiveAbility@GAME@@QEAAAEAV01@$$QEAV01@@Z
92770 - ??4CharAttributeVal_DefensiveAbility@GAME@@QEAAAEAV01@AEBV01@@Z
92770 - ??4CharAttributeVal_DefensiveAbilityModifier@GAME@@QEAAAEAV01@$$QEAV01@@Z
92770 - ??4CharAttributeVal_DefensiveAbilityModifier@GAME@@QEAAAEAV01@AEBV01@@Z
92770 - ??4CharAttributeVal_DefensiveBlockRecoveryReduction@GAME@@QEAAAEAV01@$$QEAV01@@Z
92770 - ??4CharAttributeVal_DefensiveBlockRecoveryReduction@GAME@@QEAAAEAV01@AEBV01@@Z
92770 - ??4CharAttributeVal_DeflectProjectile@GAME@@QEAAAEAV01@$$QEAV01@@Z
92770 - ??4CharAttributeVal_DeflectProjectile@GAME@@QEAAAEAV01@AEBV01@@Z
92770 - ??4CharAttributeVal_Dexterity@GAME@@QEAAAEAV01@$$QEAV01@@Z
92770 - ??4CharAttributeVal_Dexterity@GAME@@QEAAAEAV01@AEBV01@@Z
92770 - ??4CharAttributeVal_DodgePercent@GAME@@QEAAAEAV01@$$QEAV01@@Z
92770 - ??4CharAttributeVal_DodgePercent@GAME@@QEAAAEAV01@AEBV01@@Z
92770 - ??4CharAttributeVal_EnergyAbsorptionPercent@GAME@@QEAAAEAV01@$$QEAV01@@Z
92770 - ??4CharAttributeVal_EnergyAbsorptionPercent@GAME@@QEAAAEAV01@AEBV01@@Z
92770 - ??4CharAttributeVal_GlobalReqReduction@GAME@@QEAAAEAV01@$$QEAV01@@Z
92770 - ??4CharAttributeVal_GlobalReqReduction@GAME@@QEAAAEAV01@AEBV01@@Z
92770 - ??4CharAttributeVal_HuntingDexterityReqReduction@GAME@@QEAAAEAV01@$$QEAV01@@Z
92770 - ??4CharAttributeVal_HuntingDexterityReqReduction@GAME@@QEAAAEAV01@AEBV01@@Z
92770 - ??4CharAttributeVal_HuntingIntelligenceReqReduction@GAME@@QEAAAEAV01@$$QEAV01@@Z
92770 - ??4CharAttributeVal_HuntingIntelligenceReqReduction@GAME@@QEAAAEAV01@AEBV01@@Z
92770 - ??4CharAttributeVal_HuntingStrengthReqReduction@GAME@@QEAAAEAV01@$$QEAV01@@Z
92770 - ??4CharAttributeVal_HuntingStrengthReqReduction@GAME@@QEAAAEAV01@AEBV01@@Z
92770 - ??4CharAttributeVal_IncreasedExperience@GAME@@QEAAAEAV01@$$QEAV01@@Z
92770 - ??4CharAttributeVal_IncreasedExperience@GAME@@QEAAAEAV01@AEBV01@@Z
92770 - ??4CharAttributeVal_Intelligence@GAME@@QEAAAEAV01@$$QEAV01@@Z
92770 - ??4CharAttributeVal_Intelligence@GAME@@QEAAAEAV01@AEBV01@@Z
92770 - ??4CharAttributeVal_JewelryDexterityReqReduction@GAME@@QEAAAEAV01@$$QEAV01@@Z
92770 - ??4CharAttributeVal_JewelryDexterityReqReduction@GAME@@QEAAAEAV01@AEBV01@@Z
92770 - ??4CharAttributeVal_JewelryIntelligenceReqReduction@GAME@@QEAAAEAV01@$$QEAV01@@Z
92770 - ??4CharAttributeVal_JewelryIntelligenceReqReduction@GAME@@QEAAAEAV01@AEBV01@@Z
92770 - ??4CharAttributeVal_JewelryStrengthReqReduction@GAME@@QEAAAEAV01@$$QEAV01@@Z
92770 - ??4CharAttributeVal_JewelryStrengthReqReduction@GAME@@QEAAAEAV01@AEBV01@@Z
92770 - ??4CharAttributeVal_LevelReqReduction@GAME@@QEAAAEAV01@$$QEAV01@@Z
92770 - ??4CharAttributeVal_LevelReqReduction@GAME@@QEAAAEAV01@AEBV01@@Z
92770 - ??4CharAttributeVal_Life@GAME@@QEAAAEAV01@$$QEAV01@@Z
92770 - ??4CharAttributeVal_Life@GAME@@QEAAAEAV01@AEBV01@@Z
92770 - ??4CharAttributeVal_LifeRegen@GAME@@QEAAAEAV01@$$QEAV01@@Z
92770 - ??4CharAttributeVal_LifeRegen@GAME@@QEAAAEAV01@AEBV01@@Z
92770 - ??4CharAttributeVal_LightRadius@GAME@@QEAAAEAV01@$$QEAV01@@Z
92770 - ??4CharAttributeVal_LightRadius@GAME@@QEAAAEAV01@AEBV01@@Z
92770 - ??4CharAttributeVal_Mana@GAME@@QEAAAEAV01@$$QEAV01@@Z
92770 - ??4CharAttributeVal_Mana@GAME@@QEAAAEAV01@AEBV01@@Z
92770 - ??4CharAttributeVal_ManaLimitReserve@GAME@@QEAAAEAV01@$$QEAV01@@Z
92770 - ??4CharAttributeVal_ManaLimitReserve@GAME@@QEAAAEAV01@AEBV01@@Z
92770 - ??4CharAttributeVal_ManaLimitReserveReduction@GAME@@QEAAAEAV01@$$QEAV01@@Z
92770 - ??4CharAttributeVal_ManaLimitReserveReduction@GAME@@QEAAAEAV01@AEBV01@@Z
92770 - ??4CharAttributeVal_ManaRegen@GAME@@QEAAAEAV01@$$QEAV01@@Z
92770 - ??4CharAttributeVal_ManaRegen@GAME@@QEAAAEAV01@AEBV01@@Z
92770 - ??4CharAttributeVal_MeleeDexterityReqReduction@GAME@@QEAAAEAV01@$$QEAV01@@Z
92770 - ??4CharAttributeVal_MeleeDexterityReqReduction@GAME@@QEAAAEAV01@AEBV01@@Z
92770 - ??4CharAttributeVal_MeleeIntelligenceReqReduction@GAME@@QEAAAEAV01@$$QEAV01@@Z
92770 - ??4CharAttributeVal_MeleeIntelligenceReqReduction@GAME@@QEAAAEAV01@AEBV01@@Z
92770 - ??4CharAttributeVal_MeleeStrengthReqReduction@GAME@@QEAAAEAV01@$$QEAV01@@Z
92770 - ??4CharAttributeVal_MeleeStrengthReqReduction@GAME@@QEAAAEAV01@AEBV01@@Z
92770 - ??4CharAttributeVal_OffensiveAbility@GAME@@QEAAAEAV01@$$QEAV01@@Z
92770 - ??4CharAttributeVal_OffensiveAbility@GAME@@QEAAAEAV01@AEBV01@@Z
92770 - ??4CharAttributeVal_OffensiveAbilityModifier@GAME@@QEAAAEAV01@$$QEAV01@@Z
92770 - ??4CharAttributeVal_OffensiveAbilityModifier@GAME@@QEAAAEAV01@AEBV01@@Z
92770 - ??4CharAttributeVal_RunSpeed@GAME@@QEAAAEAV01@$$QEAV01@@Z
92770 - ??4CharAttributeVal_RunSpeed@GAME@@QEAAAEAV01@AEBV01@@Z
92770 - ??4CharAttributeVal_ShieldDexterityReqReduction@GAME@@QEAAAEAV01@$$QEAV01@@Z
92770 - ??4CharAttributeVal_ShieldDexterityReqReduction@GAME@@QEAAAEAV01@AEBV01@@Z
92770 - ??4CharAttributeVal_ShieldIntelligenceReqReduction@GAME@@QEAAAEAV01@$$QEAV01@@Z
92770 - ??4CharAttributeVal_ShieldIntelligenceReqReduction@GAME@@QEAAAEAV01@AEBV01@@Z
92770 - ??4CharAttributeVal_ShieldStrengthReqReduction@GAME@@QEAAAEAV01@$$QEAV01@@Z
92770 - ??4CharAttributeVal_ShieldStrengthReqReduction@GAME@@QEAAAEAV01@AEBV01@@Z
92770 - ??4CharAttributeVal_SpellCastSpeed@GAME@@QEAAAEAV01@$$QEAV01@@Z
92770 - ??4CharAttributeVal_SpellCastSpeed@GAME@@QEAAAEAV01@AEBV01@@Z
92770 - ??4CharAttributeVal_StaffDexterityReqReduction@GAME@@QEAAAEAV01@$$QEAV01@@Z
92770 - ??4CharAttributeVal_StaffDexterityReqReduction@GAME@@QEAAAEAV01@AEBV01@@Z
92770 - ??4CharAttributeVal_StaffIntelligenceReqReduction@GAME@@QEAAAEAV01@$$QEAV01@@Z
92770 - ??4CharAttributeVal_StaffIntelligenceReqReduction@GAME@@QEAAAEAV01@AEBV01@@Z
92770 - ??4CharAttributeVal_StaffStrengthReqReduction@GAME@@QEAAAEAV01@$$QEAV01@@Z
92770 - ??4CharAttributeVal_StaffStrengthReqReduction@GAME@@QEAAAEAV01@AEBV01@@Z
92770 - ??4CharAttributeVal_Strength@GAME@@QEAAAEAV01@$$QEAV01@@Z
92770 - ??4CharAttributeVal_Strength@GAME@@QEAAAEAV01@AEBV01@@Z
92770 - ??4CharAttributeVal_Weapon2HDexterityReqReduction@GAME@@QEAAAEAV01@$$QEAV01@@Z
92770 - ??4CharAttributeVal_Weapon2HDexterityReqReduction@GAME@@QEAAAEAV01@AEBV01@@Z
92770 - ??4CharAttributeVal_Weapon2HIntelligenceReqReduction@GAME@@QEAAAEAV01@$$QEAV01@@Z
92770 - ??4CharAttributeVal_Weapon2HIntelligenceReqReduction@GAME@@QEAAAEAV01@AEBV01@@Z
92770 - ??4CharAttributeVal_Weapon2HStrengthReqReduction@GAME@@QEAAAEAV01@$$QEAV01@@Z
92770 - ??4CharAttributeVal_Weapon2HStrengthReqReduction@GAME@@QEAAAEAV01@AEBV01@@Z
92770 - ??4CharAttributeVal_WeaponDexterityReqReduction@GAME@@QEAAAEAV01@$$QEAV01@@Z
92770 - ??4CharAttributeVal_WeaponDexterityReqReduction@GAME@@QEAAAEAV01@AEBV01@@Z
92770 - ??4CharAttributeVal_WeaponIntelligenceReqReduction@GAME@@QEAAAEAV01@$$QEAV01@@Z
92770 - ??4CharAttributeVal_WeaponIntelligenceReqReduction@GAME@@QEAAAEAV01@AEBV01@@Z
92770 - ??4CharAttributeVal_WeaponStrengthReqReduction@GAME@@QEAAAEAV01@$$QEAV01@@Z
92770 - ??4CharAttributeVal_WeaponStrengthReqReduction@GAME@@QEAAAEAV01@AEBV01@@Z
3B420 - ??4CharPickUpConfigCmd@GAME@@QEAAAEAV01@AEBV01@@Z
3A790 - ??4CharacterActionHandler@GAME@@QEAAAEAV01@AEBV01@@Z
24980 - ??4CharacterHookPack@GAME@@QEAAAEAV01@AEBV01@@Z
44EC40 - ??4CharacterMovementManager@GAME@@QEAAAEAV01@AEBV01@@Z
453080 - ??4ChatActionPacket@GAME@@QEAAAEAV01@AEBV01@@Z
1E6220 - ??4ChatCommandUseSkillPacket@GAME@@QEAAAEAV01@AEBV01@@Z
24980 - ??4ChestHookPack@GAME@@QEAAAEAV01@AEBV01@@Z
3DBF0 - ??4CleanseShrineConfigCmd@GAME@@QEAAAEAV01@AEBV01@@Z
44DC60 - ??4CleanseShrineConfigCmdPacket@GAME@@QEAAAEAV01@AEBV01@@Z
1E5990 - ??4CleanseShrinePacket@GAME@@QEAAAEAV01@AEBV01@@Z
1E6E60 - ??4ClearMutatorsPacket@GAME@@QEAAAEAV01@AEBV01@@Z
CF420 - ??4CombatAttributeAccumulator@GAME@@QEAAAEAV01@AEBV01@@Z
15680 - ??4CombatDisplayAccumulator@GAME@@QEAAAEAV01@AEBV01@@Z
44C0F0 - ??4CompleteRelicsConfigCmdPacket@GAME@@QEAAAEAV01@AEBV01@@Z
1EA870 - ??4ControlPlayerRespawnPacket@GAME@@QEAAAEAV01@AEBV01@@Z
44ED70 - ??4Controller@GAME@@QEAAAEAV01@AEBV01@@Z
14820 - ??4ControllerAIState@GAME@@QEAAAEAV01@AEBV01@@Z
3AA70 - ??4ControllerAIStateData@GAME@@QEAAAEAV01@AEBV01@@Z
3A950 - ??4ControllerAIStatePreStart@GAME@@QEAAAEAV01@AEBV01@@Z
44F560 - ??4ControllerBaseCharacter@GAME@@QEAAAEAV01@AEBV01@@Z
AE580 - ??4ControllerCerberusStateAttack@GAME@@QEAAAEAV01@AEBV01@@Z
AE190 - ??4ControllerCerberusStateRoar@GAME@@QEAAAEAV01@AEBV01@@Z
AE580 - ??4ControllerGraeaeStateAttack@GAME@@QEAAAEAV01@AEBV01@@Z
3A950 - ??4ControllerGraeaeStateDead@GAME@@QEAAAEAV01@AEBV01@@Z
3A950 - ??4ControllerGraeaeStateDying@GAME@@QEAAAEAV01@AEBV01@@Z
AE290 - ??4ControllerGraeaeStateIdle@GAME@@QEAAAEAV01@AEBV01@@Z
AE290 - ??4ControllerGraeaeStateToggleEye@GAME@@QEAAAEAV01@AEBV01@@Z
3A950 - ??4ControllerMegalesiosStateLaunchBursts@GAME@@QEAAAEAV01@AEBV01@@Z
3A950 - ??4ControllerMegalesiosStateStartup@GAME@@QEAAAEAV01@AEBV01@@Z
3A950 - ??4ControllerMonsterStateAlertBeforePursue@GAME@@QEAAAEAV01@AEBV01@@Z
AE580 - ??4ControllerMonsterStateAttack@GAME@@QEAAAEAV01@AEBV01@@Z
3A950 - ??4ControllerMonsterStateCharge@GAME@@QEAAAEAV01@AEBV01@@Z
AE290 - ??4ControllerMonsterStateConfused@GAME@@QEAAAEAV01@AEBV01@@Z
3A950 - ??4ControllerMonsterStateDead@GAME@@QEAAAEAV01@AEBV01@@Z
AEA50 - ??4ControllerMonsterStateDefendLeader@GAME@@QEAAAEAV01@AEBV01@@Z
3A950 - ??4ControllerMonsterStateDodgeAttack@GAME@@QEAAAEAV01@AEBV01@@Z
3A950 - ??4ControllerMonsterStateDying@GAME@@QEAAAEAV01@AEBV01@@Z
3A950 - ??4ControllerMonsterStateEmote@GAME@@QEAAAEAV01@AEBV01@@Z
AE6C0 - ??4ControllerMonsterStateFlee@GAME@@QEAAAEAV01@AEBV01@@Z
AE190 - ??4ControllerMonsterStateFollowLeader@GAME@@QEAAAEAV01@AEBV01@@Z
AE190 - ??4ControllerMonsterStateGettingUp@GAME@@QEAAAEAV01@AEBV01@@Z
AE290 - ??4ControllerMonsterStateHidden@GAME@@QEAAAEAV01@AEBV01@@Z
AE290 - ??4ControllerMonsterStateIdle@GAME@@QEAAAEAV01@AEBV01@@Z
3A950 - ??4ControllerMonsterStateImmobile@GAME@@QEAAAEAV01@AEBV01@@Z
3A950 - ??4ControllerMonsterStateJumpAttack@GAME@@QEAAAEAV01@AEBV01@@Z
3A950 - ??4ControllerMonsterStateKnockedDown@GAME@@QEAAAEAV01@AEBV01@@Z
3A950 - ??4ControllerMonsterStateMove@GAME@@QEAAAEAV01@AEBV01@@Z
AE440 - ??4ControllerMonsterStateNavigateObstacle@GAME@@QEAAAEAV01@AEBV01@@Z
3A950 - ??4ControllerMonsterStatePanic@GAME@@QEAAAEAV01@AEBV01@@Z
AE290 - ??4ControllerMonsterStateParalyze@GAME@@QEAAAEAV01@AEBV01@@Z
AE290 - ??4ControllerMonsterStatePatrol@GAME@@QEAAAEAV01@AEBV01@@Z
AE310 - ??4ControllerMonsterStatePursue@GAME@@QEAAAEAV01@AEBV01@@Z
3A950 - ??4ControllerMonsterStateQuestMove@GAME@@QEAAAEAV01@AEBV01@@Z
3A950 - ??4ControllerMonsterStateQuestPlayAnimation@GAME@@QEAAAEAV01@AEBV01@@Z
3A950 - ??4ControllerMonsterStateQuestUseSkill@GAME@@QEAAAEAV01@AEBV01@@Z
3A950 - ??4ControllerMonsterStateQuestWalk@GAME@@QEAAAEAV01@AEBV01@@Z
AE640 - ??4ControllerMonsterStateRepositionForAttack@GAME@@QEAAAEAV01@AEBV01@@Z
3A950 - ??4ControllerMonsterStateReturn@GAME@@QEAAAEAV01@AEBV01@@Z
3A950 - ??4ControllerMonsterStateReturnFast@GAME@@QEAAAEAV01@AEBV01@@Z
3A950 - ??4ControllerMonsterStateRoam@GAME@@QEAAAEAV01@AEBV01@@Z
AEA50 - ??4ControllerMonsterStateScared@GAME@@QEAAAEAV01@AEBV01@@Z
3A950 - ??4ControllerMonsterStateSleep@GAME@@QEAAAEAV01@AEBV01@@Z
AE190 - ??4ControllerMonsterStateStartup@GAME@@QEAAAEAV01@AEBV01@@Z
3A950 - ??4ControllerMonsterStateStunned@GAME@@QEAAAEAV01@AEBV01@@Z
3A950 - ??4ControllerMonsterStateTakeHit@GAME@@QEAAAEAV01@AEBV01@@Z
AE190 - ??4ControllerMonsterStateTrapped@GAME@@QEAAAEAV01@AEBV01@@Z
3A950 - ??4ControllerMonsterStateUseSkillOnAlly@GAME@@QEAAAEAV01@AEBV01@@Z
3A950 - ??4ControllerMonsterStateUseSkillOnPoint@GAME@@QEAAAEAV01@AEBV01@@Z
AE850 - ??4ControllerMonsterStateWaitToAttack@GAME@@QEAAAEAV01@AEBV01@@Z
3A950 - ??4ControllerMonsterStateWander@GAME@@QEAAAEAV01@AEBV01@@Z
AE290 - ??4ControllerMonsterStateWanderPause@GAME@@QEAAAEAV01@AEBV01@@Z
3A950 - ??4ControllerMonsterSynergyStateDying@GAME@@QEAAAEAV01@AEBV01@@Z
3A950 - ??4ControllerMonsterSynergyStateSuperAttack@GAME@@QEAAAEAV01@AEBV01@@Z
AEA50 - ??4ControllerNpcAnimalStateFollowHerd@GAME@@QEAAAEAV01@AEBV01@@Z
3A950 - ??4ControllerNpcAnimalStateWiggle@GAME@@QEAAAEAV01@AEBV01@@Z
3A950 - ??4ControllerNpcStateAlert@GAME@@QEAAAEAV01@AEBV01@@Z
3A950 - ??4ControllerNpcStateBase@GAME@@QEAAAEAV01@AEBV01@@Z
3A950 - ??4ControllerNpcStateChat@GAME@@QEAAAEAV01@AEBV01@@Z
3A950 - ??4ControllerNpcStateDirectHerd@GAME@@QEAAAEAV01@AEBV01@@Z
AE290 - ??4ControllerNpcStateIdle@GAME@@QEAAAEAV01@AEBV01@@Z
1081E0 - ??4ControllerNpcStateLongIdle@GAME@@QEAAAEAV01@AEBV01@@Z
3A950 - ??4ControllerNpcStateQuestMove@GAME@@QEAAAEAV01@AEBV01@@Z
AE290 - ??4ControllerNpcStateQuestOrient@GAME@@QEAAAEAV01@AEBV01@@Z
3A950 - ??4ControllerNpcStateQuestPlayAnimation@GAME@@QEAAAEAV01@AEBV01@@Z
3A950 - ??4ControllerNpcStateQuestWalk@GAME@@QEAAAEAV01@AEBV01@@Z
3A950 - ??4ControllerNpcStateStartup@GAME@@QEAAAEAV01@AEBV01@@Z
3A950 - ??4ControllerNpcStateUseSkillOnAlly@GAME@@QEAAAEAV01@AEBV01@@Z
108290 - ??4ControllerNpcStateWander@GAME@@QEAAAEAV01@AEBV01@@Z
108310 - ??4ControllerNpcStateWatchAttraction@GAME@@QEAAAEAV01@AEBV01@@Z
AE580 - ??4ControllerOrmenosStateAttack@GAME@@QEAAAEAV01@AEBV01@@Z
3A950 - ??4ControllerPlayerState@GAME@@QEAAAEAV01@AEBV01@@Z
3A950 - ??4ControllerPlayerStateChargeToUseSkill@GAME@@QEAAAEAV01@AEBV01@@Z
3A950 - ??4ControllerPlayerStateDying@GAME@@QEAAAEAV01@AEBV01@@Z
AE290 - ??4ControllerPlayerStateIdle@GAME@@QEAAAEAV01@AEBV01@@Z
3A950 - ??4ControllerPlayerStateImmobilized@GAME@@QEAAAEAV01@AEBV01@@Z
3A950 - ??4ControllerPlayerStateJumpToUseSkill@GAME@@QEAAAEAV01@AEBV01@@Z
3A950 - ??4ControllerPlayerStateKnockedDown@GAME@@QEAAAEAV01@AEBV01@@Z
3A950 - ??4ControllerPlayerStateLongIdle@GAME@@QEAAAEAV01@AEBV01@@Z
108310 - ??4ControllerPlayerStateMoveAndUseSkill@GAME@@QEAAAEAV01@AEBV01@@Z
111B60 - ??4ControllerPlayerStateMoveTo@GAME@@QEAAAEAV01@AEBV01@@Z
3A950 - ??4ControllerPlayerStateMoveToActorBase@GAME@@QEAAAEAV01@AEBV01@@Z
3A950 - ??4ControllerPlayerStateMoveToFixedItem@GAME@@QEAAAEAV01@AEBV01@@Z
3A950 - ??4ControllerPlayerStateMoveToItem@GAME@@QEAAAEAV01@AEBV01@@Z
3A950 - ??4ControllerPlayerStateMoveToNpc@GAME@@QEAAAEAV01@AEBV01@@Z
3A950 - ??4ControllerPlayerStateMoveToUseSkill@GAME@@QEAAAEAV01@AEBV01@@Z
3A950 - ??4ControllerPlayerStatePickupItem@GAME@@QEAAAEAV01@AEBV01@@Z
3A950 - ??4ControllerPlayerStateRespawning@GAME@@QEAAAEAV01@AEBV01@@Z
3A950 - ??4ControllerPlayerStateSleep@GAME@@QEAAAEAV01@AEBV01@@Z
3A950 - ??4ControllerPlayerStateStartup@GAME@@QEAAAEAV01@AEBV01@@Z
AE290 - ??4ControllerPlayerStateStunned@GAME@@QEAAAEAV01@AEBV01@@Z
3A950 - ??4ControllerPlayerStateTalkToNpc@GAME@@QEAAAEAV01@AEBV01@@Z
3A950 - ??4ControllerPlayerStateTrapped@GAME@@QEAAAEAV01@AEBV01@@Z
3A950 - ??4ControllerPlayerStateUseFixedItem@GAME@@QEAAAEAV01@AEBV01@@Z
108310 - ??4ControllerPlayerStateUseSkill@GAME@@QEAAAEAV01@AEBV01@@Z
3A950 - ??4ControllerPlayerStateUseSkillWhileTrapped@GAME@@QEAAAEAV01@AEBV01@@Z
3A950 - ??4ControllerSpiritHostState@GAME@@QEAAAEAV01@$$QEAV01@@Z
3A950 - ??4ControllerSpiritHostState@GAME@@QEAAAEAV01@AEBV01@@Z
3A950 - ??4ControllerSpiritHostStateAnimate@GAME@@QEAAAEAV01@AEBV01@@Z
3A950 - ??4ControllerSpiritHostStateStartup@GAME@@QEAAAEAV01@AEBV01@@Z
3A950 - ??4ControllerSpiritState@GAME@@QEAAAEAV01@$$QEAV01@@Z
3A950 - ??4ControllerSpiritState@GAME@@QEAAAEAV01@AEBV01@@Z
3A950 - ??4ControllerSpiritStateAttackToAnimate@GAME@@QEAAAEAV01@AEBV01@@Z
E4880 - ??4ControllerSpiritStateIdle@GAME@@QEAAAEAV01@AEBV01@@Z
AE290 - ??4ControllerSpiritStatePursueToAnimate@GAME@@QEAAAEAV01@AEBV01@@Z
AE190 - ??4ControllerSpiritStateStartup@GAME@@QEAAAEAV01@AEBV01@@Z
3A950 - ??4ControllerTerracottaStateAttackMarch@GAME@@QEAAAEAV01@AEBV01@@Z
3A950 - ??4ControllerTerracottaStateStartup@GAME@@QEAAAEAV01@AEBV01@@Z
44BAB0 - ??4Conversation@GAME@@QEAAAEAV01@AEBV01@@Z
44B9D0 - ??4ConversationStep@GAME@@QEAAAEAV01@AEBV01@@Z
44AB10 - ??4ConversionAttributeAccumulator@GAME@@QEAAAEAV01@AEBV01@@Z
3CEB0 - ??4CreateArtifactConfigCmd@GAME@@QEAAAEAV01@AEBV01@@Z
44D650 - ??4CreateArtifactConfigCmdPacket@GAME@@QEAAAEAV01@AEBV01@@Z
1E5820 - ??4CreateEntityPacket@GAME@@QEAAAEAV01@AEBV01@@Z
1E6D00 - ??4CreateGravestonePacket@GAME@@QEAAAEAV01@AEBV01@@Z
1E5630 - ??4CreateItemPacket@GAME@@QEAAAEAV01@AEBV01@@Z
1E6B50 - ??4CreateItemTeleportPacket@GAME@@QEAAAEAV01@AEBV01@@Z
3C660 - ??4CreateProjectileConfigCmd@GAME@@QEAAAEAV01@AEBV01@@Z
44CCB0 - ??4CreateProjectileConfigCmdPacket@GAME@@QEAAAEAV01@AEBV01@@Z
3E210 - ??4CreateRemoveSkillBuffConfigCmd@GAME@@QEAAAEAV01@AEBV01@@Z
44C340 - ??4CreateRemoveSkillBuffConfigCmdPacket@GAME@@QEAAAEAV01@AEBV01@@Z
42230 - ??4CursorHandler@GAME@@QEAAAEAV01@AEBV01@@Z
131E40 - ??4CursorHandlerAttributeReset@GAME@@QEAAAEAV01@AEBV01@@Z
131E40 - ??4CursorHandlerDevotionReset@GAME@@QEAAAEAV01@AEBV01@@Z
1328A0 - ??4CursorHandlerEnchant@GAME@@QEAAAEAV01@AEBV01@@Z
131E40 - ??4CursorHandlerFactionBooster@GAME@@QEAAAEAV01@AEBV01@@Z
134AA0 - ??4CursorHandlerHotSlotOption@GAME@@QEAAAEAV01@AEBV01@@Z
42380 - ??4CursorHandlerItemMove@GAME@@QEAAAEAV01@AEBV01@@Z
1382E0 - ??4CursorHandlerItemUse@GAME@@QEAAAEAV01@AEBV01@@Z
138490 - ??4CursorHandlerRelicCombine@GAME@@QEAAAEAV01@AEBV01@@Z
139B50 - ??4CursorHandlerTransmute@GAME@@QEAAAEAV01@AEBV01@@Z
14E200 - ??4DamageAttribute@GAME@@QEAAAEAV01@AEBV01@@Z
14E190 - ??4DamageAttributeAbs@GAME@@QEAAAEAV01@$$QEAV01@@Z
142D50 - ??4DamageAttributeAbs@GAME@@QEAAAEAV01@AEBV01@@Z
142DB0 - ??4DamageAttributeAbsBase@GAME@@QEAAAEAV01@$$QEAV01@@Z
142D50 - ??4DamageAttributeAbsBase@GAME@@QEAAAEAV01@AEBV01@@Z
142DB0 - ??4DamageAttributeAbsBaseElemental@GAME@@QEAAAEAV01@$$QEAV01@@Z
142D50 - ??4DamageAttributeAbsBaseElemental@GAME@@QEAAAEAV01@AEBV01@@Z
142DB0 - ??4DamageAttributeAbsBase_Aether@GAME@@QEAAAEAV01@$$QEAV01@@Z
142D50 - ??4DamageAttributeAbsBase_Aether@GAME@@QEAAAEAV01@AEBV01@@Z
142DB0 - ??4DamageAttributeAbsBase_Chaos@GAME@@QEAAAEAV01@$$QEAV01@@Z
142D50 - ??4DamageAttributeAbsBase_Chaos@GAME@@QEAAAEAV01@AEBV01@@Z
142DB0 - ??4DamageAttributeAbsBase_Cold@GAME@@QEAAAEAV01@$$QEAV01@@Z
142D50 - ??4DamageAttributeAbsBase_Cold@GAME@@QEAAAEAV01@AEBV01@@Z
142DB0 - ??4DamageAttributeAbsBase_Fire@GAME@@QEAAAEAV01@$$QEAV01@@Z
142D50 - ??4DamageAttributeAbsBase_Fire@GAME@@QEAAAEAV01@AEBV01@@Z
142DB0 - ??4DamageAttributeAbsBase_Life@GAME@@QEAAAEAV01@$$QEAV01@@Z
142D50 - ??4DamageAttributeAbsBase_Life@GAME@@QEAAAEAV01@AEBV01@@Z
142DB0 - ??4DamageAttributeAbsBase_Lightning@GAME@@QEAAAEAV01@$$QEAV01@@Z
142D50 - ??4DamageAttributeAbsBase_Lightning@GAME@@QEAAAEAV01@AEBV01@@Z
142DB0 - ??4DamageAttributeAbsBase_Poison@GAME@@QEAAAEAV01@$$QEAV01@@Z
142D50 - ??4DamageAttributeAbsBase_Poison@GAME@@QEAAAEAV01@AEBV01@@Z
142DB0 - ??4DamageAttributeAbsBonus@GAME@@QEAAAEAV01@$$QEAV01@@Z
142D50 - ??4DamageAttributeAbsBonus@GAME@@QEAAAEAV01@AEBV01@@Z
142DB0 - ??4DamageAttributeAbsBonusElemental@GAME@@QEAAAEAV01@$$QEAV01@@Z
142D50 - ??4DamageAttributeAbsBonusElemental@GAME@@QEAAAEAV01@AEBV01@@Z
14D6F0 - ??4DamageAttributeAbsMod@GAME@@QEAAAEAV01@$$QEAV01@@Z
145C80 - ??4DamageAttributeAbsMod@GAME@@QEAAAEAV01@AEBV01@@Z
145CC0 - ??4DamageAttributeAbsModBase@GAME@@QEAAAEAV01@$$QEAV01@@Z
145C80 - ??4DamageAttributeAbsModBase@GAME@@QEAAAEAV01@AEBV01@@Z
145CC0 - ??4DamageAttributeAbsModBonus@GAME@@QEAAAEAV01@$$QEAV01@@Z
145C80 - ??4DamageAttributeAbsModBonus@GAME@@QEAAAEAV01@AEBV01@@Z
145CC0 - ??4DamageAttributeAbsMod_Aether@GAME@@QEAAAEAV01@$$QEAV01@@Z
145C80 - ??4DamageAttributeAbsMod_Aether@GAME@@QEAAAEAV01@AEBV01@@Z
145CC0 - ??4DamageAttributeAbsMod_Bleeding@GAME@@QEAAAEAV01@$$QEAV01@@Z
145C80 - ??4DamageAttributeAbsMod_Bleeding@GAME@@QEAAAEAV01@AEBV01@@Z
145CC0 - ??4DamageAttributeAbsMod_Chaos@GAME@@QEAAAEAV01@$$QEAV01@@Z
145C80 - ??4DamageAttributeAbsMod_Chaos@GAME@@QEAAAEAV01@AEBV01@@Z
145CC0 - ??4DamageAttributeAbsMod_Cold@GAME@@QEAAAEAV01@$$QEAV01@@Z
145C80 - ??4DamageAttributeAbsMod_Cold@GAME@@QEAAAEAV01@AEBV01@@Z
145CC0 - ??4DamageAttributeAbsMod_CritDamageModifier@GAME@@QEAAAEAV01@$$QEAV01@@Z
145C80 - ??4DamageAttributeAbsMod_CritDamageModifier@GAME@@QEAAAEAV01@AEBV01@@Z
145CC0 - ??4DamageAttributeAbsMod_DamageMultiplier@GAME@@QEAAAEAV01@$$QEAV01@@Z
145C80 - ??4DamageAttributeAbsMod_DamageMultiplier@GAME@@QEAAAEAV01@AEBV01@@Z
145CC0 - ??4DamageAttributeAbsMod_Elemental@GAME@@QEAAAEAV01@$$QEAV01@@Z
145C80 - ??4DamageAttributeAbsMod_Elemental@GAME@@QEAAAEAV01@AEBV01@@Z
145CC0 - ??4DamageAttributeAbsMod_Fire@GAME@@QEAAAEAV01@$$QEAV01@@Z
145C80 - ??4DamageAttributeAbsMod_Fire@GAME@@QEAAAEAV01@AEBV01@@Z
145CC0 - ??4DamageAttributeAbsMod_Freeze@GAME@@QEAAAEAV01@$$QEAV01@@Z
145C80 - ??4DamageAttributeAbsMod_Freeze@GAME@@QEAAAEAV01@AEBV01@@Z
145CC0 - ??4DamageAttributeAbsMod_Knockdown@GAME@@QEAAAEAV01@$$QEAV01@@Z
145C80 - ??4DamageAttributeAbsMod_Knockdown@GAME@@QEAAAEAV01@AEBV01@@Z
145CC0 - ??4DamageAttributeAbsMod_Life@GAME@@QEAAAEAV01@$$QEAV01@@Z
145C80 - ??4DamageAttributeAbsMod_Life@GAME@@QEAAAEAV01@AEBV01@@Z
145CC0 - ??4DamageAttributeAbsMod_Lightning@GAME@@QEAAAEAV01@$$QEAV01@@Z
145C80 - ??4DamageAttributeAbsMod_Lightning@GAME@@QEAAAEAV01@AEBV01@@Z
145CC0 - ??4DamageAttributeAbsMod_ManaBurn@GAME@@QEAAAEAV01@$$QEAV01@@Z
145C80 - ??4DamageAttributeAbsMod_ManaBurn@GAME@@QEAAAEAV01@AEBV01@@Z
145CC0 - ??4DamageAttributeAbsMod_Petrify@GAME@@QEAAAEAV01@$$QEAV01@@Z
145C80 - ??4DamageAttributeAbsMod_Petrify@GAME@@QEAAAEAV01@AEBV01@@Z
145CC0 - ??4DamageAttributeAbsMod_Physical@GAME@@QEAAAEAV01@$$QEAV01@@Z
145C80 - ??4DamageAttributeAbsMod_Physical@GAME@@QEAAAEAV01@AEBV01@@Z
145CC0 - ??4DamageAttributeAbsMod_Pierce@GAME@@QEAAAEAV01@$$QEAV01@@Z
145C80 - ??4DamageAttributeAbsMod_Pierce@GAME@@QEAAAEAV01@AEBV01@@Z
145CC0 - ??4DamageAttributeAbsMod_PierceRatio@GAME@@QEAAAEAV01@$$QEAV01@@Z
145C80 - ??4DamageAttributeAbsMod_PierceRatio@GAME@@QEAAAEAV01@AEBV01@@Z
145CC0 - ??4DamageAttributeAbsMod_Poison@GAME@@QEAAAEAV01@$$QEAV01@@Z
145C80 - ??4DamageAttributeAbsMod_Poison@GAME@@QEAAAEAV01@AEBV01@@Z
145CC0 - ??4DamageAttributeAbsMod_Sleep@GAME@@QEAAAEAV01@$$QEAV01@@Z
145C80 - ??4DamageAttributeAbsMod_Sleep@GAME@@QEAAAEAV01@AEBV01@@Z
145CC0 - ??4DamageAttributeAbsMod_Stun@GAME@@QEAAAEAV01@$$QEAV01@@Z
145C80 - ??4DamageAttributeAbsMod_Stun@GAME@@QEAAAEAV01@AEBV01@@Z
145CC0 - ??4DamageAttributeAbsMod_TotalDamageModifier@GAME@@QEAAAEAV01@$$QEAV01@@Z
145C80 - ??4DamageAttributeAbsMod_TotalDamageModifier@GAME@@QEAAAEAV01@AEBV01@@Z
145CC0 - ??4DamageAttributeAbsMod_Trap@GAME@@QEAAAEAV01@$$QEAV01@@Z
145C80 - ??4DamageAttributeAbsMod_Trap@GAME@@QEAAAEAV01@AEBV01@@Z
142DB0 - ??4DamageAttributeAbs_Aether@GAME@@QEAAAEAV01@$$QEAV01@@Z
142D50 - ??4DamageAttributeAbs_Aether@GAME@@QEAAAEAV01@AEBV01@@Z
142DB0 - ??4DamageAttributeAbs_BonusPhysical@GAME@@QEAAAEAV01@$$QEAV01@@Z
142D50 - ??4DamageAttributeAbs_BonusPhysical@GAME@@QEAAAEAV01@AEBV01@@Z
142DB0 - ??4DamageAttributeAbs_Chaos@GAME@@QEAAAEAV01@$$QEAV01@@Z
142D50 - ??4DamageAttributeAbs_Chaos@GAME@@QEAAAEAV01@AEBV01@@Z
142DB0 - ??4DamageAttributeAbs_Cold@GAME@@QEAAAEAV01@$$QEAV01@@Z
142D50 - ??4DamageAttributeAbs_Cold@GAME@@QEAAAEAV01@AEBV01@@Z
142DB0 - ??4DamageAttributeAbs_Confusion@GAME@@QEAAAEAV01@$$QEAV01@@Z
142D50 - ??4DamageAttributeAbs_Confusion@GAME@@QEAAAEAV01@AEBV01@@Z
142DB0 - ??4DamageAttributeAbs_Convert@GAME@@QEAAAEAV01@$$QEAV01@@Z
142D50 - ??4DamageAttributeAbs_Convert@GAME@@QEAAAEAV01@AEBV01@@Z
142DB0 - ??4DamageAttributeAbs_Disruption@GAME@@QEAAAEAV01@$$QEAV01@@Z
142D50 - ??4DamageAttributeAbs_Disruption@GAME@@QEAAAEAV01@AEBV01@@Z
142DB0 - ??4DamageAttributeAbs_ElementalDamage@GAME@@QEAAAEAV01@$$QEAV01@@Z
142D50 - ??4DamageAttributeAbs_ElementalDamage@GAME@@QEAAAEAV01@AEBV01@@Z
142DB0 - ??4DamageAttributeAbs_Fear@GAME@@QEAAAEAV01@$$QEAV01@@Z
142D50 - ??4DamageAttributeAbs_Fear@GAME@@QEAAAEAV01@AEBV01@@Z
142DB0 - ??4DamageAttributeAbs_Fire@GAME@@QEAAAEAV01@$$QEAV01@@Z
142D50 - ??4DamageAttributeAbs_Fire@GAME@@QEAAAEAV01@AEBV01@@Z
142DB0 - ??4DamageAttributeAbs_Life@GAME@@QEAAAEAV01@$$QEAV01@@Z
142D50 - ??4DamageAttributeAbs_Life@GAME@@QEAAAEAV01@AEBV01@@Z
142DB0 - ??4DamageAttributeAbs_LifeLeech@GAME@@QEAAAEAV01@$$QEAV01@@Z
142D50 - ??4DamageAttributeAbs_LifeLeech@GAME@@QEAAAEAV01@AEBV01@@Z
142DB0 - ??4DamageAttributeAbs_Lightning@GAME@@QEAAAEAV01@$$QEAV01@@Z
142D50 - ??4DamageAttributeAbs_Lightning@GAME@@QEAAAEAV01@AEBV01@@Z
14EF10 - ??4DamageAttributeAbs_ManaBurn@GAME@@QEAAAEAV01@$$QEAV01@@Z
14EE90 - ??4DamageAttributeAbs_ManaBurn@GAME@@QEAAAEAV01@AEBV01@@Z
142DB0 - ??4DamageAttributeAbs_PercentCurrentLife@GAME@@QEAAAEAV01@$$QEAV01@@Z
142D50 - ??4DamageAttributeAbs_PercentCurrentLife@GAME@@QEAAAEAV01@AEBV01@@Z
142DB0 - ??4DamageAttributeAbs_Pierce@GAME@@QEAAAEAV01@$$QEAV01@@Z
142D50 - ??4DamageAttributeAbs_Pierce@GAME@@QEAAAEAV01@AEBV01@@Z
142DB0 - ??4DamageAttributeAbs_Poison@GAME@@QEAAAEAV01@$$QEAV01@@Z
142D50 - ??4DamageAttributeAbs_Poison@GAME@@QEAAAEAV01@AEBV01@@Z
142DB0 - ??4DamageAttributeAbs_Taunt@GAME@@QEAAAEAV01@$$QEAV01@@Z
142D50 - ??4DamageAttributeAbs_Taunt@GAME@@QEAAAEAV01@AEBV01@@Z
144030 - ??4DamageAttributeDur@GAME@@QEAAAEAV01@$$QEAV01@@Z
143FE0 - ??4DamageAttributeDur@GAME@@QEAAAEAV01@AEBV01@@Z
144030 - ??4DamageAttributeDurBase@GAME@@QEAAAEAV01@$$QEAV01@@Z
143FE0 - ??4DamageAttributeDurBase@GAME@@QEAAAEAV01@AEBV01@@Z
144030 - ??4DamageAttributeDurBaseElemental@GAME@@QEAAAEAV01@$$QEAV01@@Z
143FE0 - ??4DamageAttributeDurBaseElemental@GAME@@QEAAAEAV01@AEBV01@@Z
144030 - ??4DamageAttributeDurBonus@GAME@@QEAAAEAV01@$$QEAV01@@Z
143FE0 - ??4DamageAttributeDurBonus@GAME@@QEAAAEAV01@AEBV01@@Z
144030 - ??4DamageAttributeDurBonusElemental@GAME@@QEAAAEAV01@$$QEAV01@@Z
143FE0 - ??4DamageAttributeDurBonusElemental@GAME@@QEAAAEAV01@AEBV01@@Z
144030 - ??4DamageAttributeDurFixed@GAME@@QEAAAEAV01@$$QEAV01@@Z
143FE0 - ??4DamageAttributeDurFixed@GAME@@QEAAAEAV01@AEBV01@@Z
147590 - ??4DamageAttributeDurMod@GAME@@QEAAAEAV01@$$QEAV01@@Z
147540 - ??4DamageAttributeDurMod@GAME@@QEAAAEAV01@AEBV01@@Z
147590 - ??4DamageAttributeDurModBase@GAME@@QEAAAEAV01@$$QEAV01@@Z
147540 - ??4DamageAttributeDurModBase@GAME@@QEAAAEAV01@AEBV01@@Z
147590 - ??4DamageAttributeDurModBonus@GAME@@QEAAAEAV01@$$QEAV01@@Z
147540 - ??4DamageAttributeDurModBonus@GAME@@QEAAAEAV01@AEBV01@@Z
147590 - ??4DamageAttributeDurMod_Aether@GAME@@QEAAAEAV01@$$QEAV01@@Z
147540 - ??4DamageAttributeDurMod_Aether@GAME@@QEAAAEAV01@AEBV01@@Z
147590 - ??4DamageAttributeDurMod_AttackSpeed@GAME@@QEAAAEAV01@$$QEAV01@@Z
147540 - ??4DamageAttributeDurMod_AttackSpeed@GAME@@QEAAAEAV01@AEBV01@@Z
147590 - ??4DamageAttributeDurMod_Bleeding@GAME@@QEAAAEAV01@$$QEAV01@@Z
147540 - ??4DamageAttributeDurMod_Bleeding@GAME@@QEAAAEAV01@AEBV01@@Z
147590 - ??4DamageAttributeDurMod_Chaos@GAME@@QEAAAEAV01@$$QEAV01@@Z
147540 - ??4DamageAttributeDurMod_Chaos@GAME@@QEAAAEAV01@AEBV01@@Z
147590 - ??4DamageAttributeDurMod_Cold@GAME@@QEAAAEAV01@$$QEAV01@@Z
147540 - ??4DamageAttributeDurMod_Cold@GAME@@QEAAAEAV01@AEBV01@@Z
147590 - ??4DamageAttributeDurMod_DefensiveAbility@GAME@@QEAAAEAV01@$$QEAV01@@Z
147540 - ??4DamageAttributeDurMod_DefensiveAbility@GAME@@QEAAAEAV01@AEBV01@@Z
147590 - ??4DamageAttributeDurMod_Fire@GAME@@QEAAAEAV01@$$QEAV01@@Z
147540 - ??4DamageAttributeDurMod_Fire@GAME@@QEAAAEAV01@AEBV01@@Z
147590 - ??4DamageAttributeDurMod_Life@GAME@@QEAAAEAV01@$$QEAV01@@Z
147540 - ??4DamageAttributeDurMod_Life@GAME@@QEAAAEAV01@AEBV01@@Z
147590 - ??4DamageAttributeDurMod_LifeLeach@GAME@@QEAAAEAV01@$$QEAV01@@Z
147540 - ??4DamageAttributeDurMod_LifeLeach@GAME@@QEAAAEAV01@AEBV01@@Z
147590 - ??4DamageAttributeDurMod_Lightning@GAME@@QEAAAEAV01@$$QEAV01@@Z
147540 - ??4DamageAttributeDurMod_Lightning@GAME@@QEAAAEAV01@AEBV01@@Z
147590 - ??4DamageAttributeDurMod_ManaLeach@GAME@@QEAAAEAV01@$$QEAV01@@Z
147540 - ??4DamageAttributeDurMod_ManaLeach@GAME@@QEAAAEAV01@AEBV01@@Z
147590 - ??4DamageAttributeDurMod_OffensiveAbility@GAME@@QEAAAEAV01@$$QEAV01@@Z
147540 - ??4DamageAttributeDurMod_OffensiveAbility@GAME@@QEAAAEAV01@AEBV01@@Z
147590 - ??4DamageAttributeDurMod_OffensiveReduction@GAME@@QEAAAEAV01@$$QEAV01@@Z
147540 - ??4DamageAttributeDurMod_OffensiveReduction@GAME@@QEAAAEAV01@AEBV01@@Z
147590 - ??4DamageAttributeDurMod_Physical@GAME@@QEAAAEAV01@$$QEAV01@@Z
147540 - ??4DamageAttributeDurMod_Physical@GAME@@QEAAAEAV01@AEBV01@@Z
147590 - ??4DamageAttributeDurMod_Poison@GAME@@QEAAAEAV01@$$QEAV01@@Z
147540 - ??4DamageAttributeDurMod_Poison@GAME@@QEAAAEAV01@AEBV01@@Z
147590 - ??4DamageAttributeDurMod_RunSpeed@GAME@@QEAAAEAV01@$$QEAV01@@Z
147540 - ??4DamageAttributeDurMod_RunSpeed@GAME@@QEAAAEAV01@AEBV01@@Z
147590 - ??4DamageAttributeDurMod_SpellCastSpeed@GAME@@QEAAAEAV01@$$QEAV01@@Z
147540 - ??4DamageAttributeDurMod_SpellCastSpeed@GAME@@QEAAAEAV01@AEBV01@@Z
144030 - ??4DamageAttributeDur_Aether@GAME@@QEAAAEAV01@$$QEAV01@@Z
143FE0 - ??4DamageAttributeDur_Aether@GAME@@QEAAAEAV01@AEBV01@@Z
144030 - ??4DamageAttributeDur_AttackSpeed@GAME@@QEAAAEAV01@$$QEAV01@@Z
143FE0 - ??4DamageAttributeDur_AttackSpeed@GAME@@QEAAAEAV01@AEBV01@@Z
144030 - ??4DamageAttributeDur_Bleeding@GAME@@QEAAAEAV01@$$QEAV01@@Z
143FE0 - ??4DamageAttributeDur_Bleeding@GAME@@QEAAAEAV01@AEBV01@@Z
144030 - ??4DamageAttributeDur_Chaos@GAME@@QEAAAEAV01@$$QEAV01@@Z
143FE0 - ??4DamageAttributeDur_Chaos@GAME@@QEAAAEAV01@AEBV01@@Z
144030 - ??4DamageAttributeDur_Cold@GAME@@QEAAAEAV01@$$QEAV01@@Z
143FE0 - ??4DamageAttributeDur_Cold@GAME@@QEAAAEAV01@AEBV01@@Z
144030 - ??4DamageAttributeDur_DefensiveAbility@GAME@@QEAAAEAV01@$$QEAV01@@Z
143FE0 - ??4DamageAttributeDur_DefensiveAbility@GAME@@QEAAAEAV01@AEBV01@@Z
144030 - ??4DamageAttributeDur_DefensiveReduction@GAME@@QEAAAEAV01@$$QEAV01@@Z
143FE0 - ??4DamageAttributeDur_DefensiveReduction@GAME@@QEAAAEAV01@AEBV01@@Z
144030 - ??4DamageAttributeDur_ElementalReductionPercent@GAME@@QEAAAEAV01@$$QEAV01@@Z
143FE0 - ??4DamageAttributeDur_ElementalReductionPercent@GAME@@QEAAAEAV01@AEBV01@@Z
144030 - ??4DamageAttributeDur_ElementalResistanceReductionAbsolute@GAME@@QEAAAEAV01@$$QEAV01@@Z
143FE0 - ??4DamageAttributeDur_ElementalResistanceReductionAbsolute@GAME@@QEAAAEAV01@AEBV01@@Z
144030 - ??4DamageAttributeDur_ElementalResistanceReductionPercent@GAME@@QEAAAEAV01@$$QEAV01@@Z
143FE0 - ??4DamageAttributeDur_ElementalResistanceReductionPercent@GAME@@QEAAAEAV01@AEBV01@@Z
144030 - ??4DamageAttributeDur_Fire@GAME@@QEAAAEAV01@$$QEAV01@@Z
143FE0 - ??4DamageAttributeDur_Fire@GAME@@QEAAAEAV01@AEBV01@@Z
144030 - ??4DamageAttributeDur_Fumble@GAME@@QEAAAEAV01@$$QEAV01@@Z
143FE0 - ??4DamageAttributeDur_Fumble@GAME@@QEAAAEAV01@AEBV01@@Z
144030 - ??4DamageAttributeDur_Life@GAME@@QEAAAEAV01@$$QEAV01@@Z
143FE0 - ??4DamageAttributeDur_Life@GAME@@QEAAAEAV01@AEBV01@@Z
144030 - ??4DamageAttributeDur_LifeLeach@GAME@@QEAAAEAV01@$$QEAV01@@Z
143FE0 - ??4DamageAttributeDur_LifeLeach@GAME@@QEAAAEAV01@AEBV01@@Z
144030 - ??4DamageAttributeDur_Lightning@GAME@@QEAAAEAV01@$$QEAV01@@Z
143FE0 - ??4DamageAttributeDur_Lightning@GAME@@QEAAAEAV01@AEBV01@@Z
144030 - ??4DamageAttributeDur_ManaLeach@GAME@@QEAAAEAV01@$$QEAV01@@Z
143FE0 - ??4DamageAttributeDur_ManaLeach@GAME@@QEAAAEAV01@AEBV01@@Z
144030 - ??4DamageAttributeDur_OffensiveAbility@GAME@@QEAAAEAV01@$$QEAV01@@Z
143FE0 - ??4DamageAttributeDur_OffensiveAbility@GAME@@QEAAAEAV01@AEBV01@@Z
144030 - ??4DamageAttributeDur_OffensiveReduction@GAME@@QEAAAEAV01@$$QEAV01@@Z
143FE0 - ??4DamageAttributeDur_OffensiveReduction@GAME@@QEAAAEAV01@AEBV01@@Z
144030 - ??4DamageAttributeDur_Physical@GAME@@QEAAAEAV01@$$QEAV01@@Z
143FE0 - ??4DamageAttributeDur_Physical@GAME@@QEAAAEAV01@AEBV01@@Z
144030 - ??4DamageAttributeDur_PhysicalReductionPercent@GAME@@QEAAAEAV01@$$QEAV01@@Z
143FE0 - ??4DamageAttributeDur_PhysicalReductionPercent@GAME@@QEAAAEAV01@AEBV01@@Z
144030 - ??4DamageAttributeDur_PhysicalResistanceReductionAbsolute@GAME@@QEAAAEAV01@$$QEAV01@@Z
143FE0 - ??4DamageAttributeDur_PhysicalResistanceReductionAbsolute@GAME@@QEAAAEAV01@AEBV01@@Z
144030 - ??4DamageAttributeDur_PhysicalResistanceReductionPercent@GAME@@QEAAAEAV01@$$QEAV01@@Z
143FE0 - ??4DamageAttributeDur_PhysicalResistanceReductionPercent@GAME@@QEAAAEAV01@AEBV01@@Z
144030 - ??4DamageAttributeDur_Poison@GAME@@QEAAAEAV01@$$QEAV01@@Z
143FE0 - ??4DamageAttributeDur_Poison@GAME@@QEAAAEAV01@AEBV01@@Z
144030 - ??4DamageAttributeDur_ProjectileFumble@GAME@@QEAAAEAV01@$$QEAV01@@Z
143FE0 - ??4DamageAttributeDur_ProjectileFumble@GAME@@QEAAAEAV01@AEBV01@@Z
144030 - ??4DamageAttributeDur_RunSpeed@GAME@@QEAAAEAV01@$$QEAV01@@Z
143FE0 - ??4DamageAttributeDur_RunSpeed@GAME@@QEAAAEAV01@AEBV01@@Z
144030 - ??4DamageAttributeDur_SpellCastSpeed@GAME@@QEAAAEAV01@$$QEAV01@@Z
143FE0 - ??4DamageAttributeDur_SpellCastSpeed@GAME@@QEAAAEAV01@AEBV01@@Z
144030 - ??4DamageAttributeDur_TotalDamageReductionAbsolute@GAME@@QEAAAEAV01@$$QEAV01@@Z
143FE0 - ??4DamageAttributeDur_TotalDamageReductionAbsolute@GAME@@QEAAAEAV01@AEBV01@@Z
144030 - ??4DamageAttributeDur_TotalDamageReductionPercent@GAME@@QEAAAEAV01@$$QEAV01@@Z
143FE0 - ??4DamageAttributeDur_TotalDamageReductionPercent@GAME@@QEAAAEAV01@AEBV01@@Z
144030 - ??4DamageAttributeDur_TotalResistanceReductionAbsolute@GAME@@QEAAAEAV01@$$QEAV01@@Z
143FE0 - ??4DamageAttributeDur_TotalResistanceReductionAbsolute@GAME@@QEAAAEAV01@AEBV01@@Z
144030 - ??4DamageAttributeDur_TotalResistanceReductionPercent@GAME@@QEAAAEAV01@$$QEAV01@@Z
143FE0 - ??4DamageAttributeDur_TotalResistanceReductionPercent@GAME@@QEAAAEAV01@AEBV01@@Z
144030 - ??4DamageAttributeDur_TotalSpeed@GAME@@QEAAAEAV01@$$QEAV01@@Z
143FE0 - ??4DamageAttributeDur_TotalSpeed@GAME@@QEAAAEAV01@AEBV01@@Z
142DB0 - ??4DamageAttributeInfluence@GAME@@QEAAAEAV01@$$QEAV01@@Z
142D50 - ??4DamageAttributeInfluence@GAME@@QEAAAEAV01@AEBV01@@Z
142DB0 - ??4DamageAttributeInfluenceHidden@GAME@@QEAAAEAV01@$$QEAV01@@Z
142D50 - ??4DamageAttributeInfluenceHidden@GAME@@QEAAAEAV01@AEBV01@@Z
142DB0 - ??4DamageAttributeReflex@GAME@@QEAAAEAV01@$$QEAV01@@Z
142D50 - ??4DamageAttributeReflex@GAME@@QEAAAEAV01@AEBV01@@Z
142DB0 - ??4DamageAttributeReflex_Freeze@GAME@@QEAAAEAV01@$$QEAV01@@Z
142D50 - ??4DamageAttributeReflex_Freeze@GAME@@QEAAAEAV01@AEBV01@@Z
142DB0 - ??4DamageAttributeReflex_Knockdown@GAME@@QEAAAEAV01@$$QEAV01@@Z
142D50 - ??4DamageAttributeReflex_Knockdown@GAME@@QEAAAEAV01@AEBV01@@Z
142DB0 - ??4DamageAttributeReflex_Petrify@GAME@@QEAAAEAV01@$$QEAV01@@Z
142D50 - ??4DamageAttributeReflex_Petrify@GAME@@QEAAAEAV01@AEBV01@@Z
142DB0 - ??4DamageAttributeReflex_Sleep@GAME@@QEAAAEAV01@$$QEAV01@@Z
142D50 - ??4DamageAttributeReflex_Sleep@GAME@@QEAAAEAV01@AEBV01@@Z
142DB0 - ??4DamageAttributeReflex_Stun@GAME@@QEAAAEAV01@$$QEAV01@@Z
142D50 - ??4DamageAttributeReflex_Stun@GAME@@QEAAAEAV01@AEBV01@@Z
142DB0 - ??4DamageAttributeReflex_Trap@GAME@@QEAAAEAV01@$$QEAV01@@Z
142D50 - ??4DamageAttributeReflex_Trap@GAME@@QEAAAEAV01@AEBV01@@Z
319B0 - ??4DamageAttributeStore@GAME@@QEAAAEAV01@AEBV01@@Z
31990 - ??4DamageAttributeStore_Equipment@GAME@@QEAAAEAV01@$$QEAV01@@Z
31990 - ??4DamageAttributeStore_Equipment@GAME@@QEAAAEAV01@AEBV01@@Z
31990 - ??4DamageAttributeStore_Max@GAME@@QEAAAEAV01@$$QEAV01@@Z
31990 - ??4DamageAttributeStore_Max@GAME@@QEAAAEAV01@AEBV01@@Z
31990 - ??4DamageAttributeStore_Min@GAME@@QEAAAEAV01@$$QEAV01@@Z
31990 - ??4DamageAttributeStore_Min@GAME@@QEAAAEAV01@AEBV01@@Z
31990 - ??4DamageAttributeStore_Skill@GAME@@QEAAAEAV01@$$QEAV01@@Z
31990 - ??4DamageAttributeStore_Skill@GAME@@QEAAAEAV01@AEBV01@@Z
14E780 - ??4DamageAttribute_BasePhysical@GAME@@QEAAAEAV01@AEBV01@@Z
14EB50 - ??4DamageAttribute_Physical@GAME@@QEAAAEAV01@$$QEAV01@@Z
14EB00 - ??4DamageAttribute_Physical@GAME@@QEAAAEAV01@AEBV01@@Z
3FE20 - ??4DeathHandler@GAME@@QEAAAEAV01@AEBV01@@Z
44C690 - ??4DecBaseDexterityConfigCmdPacket@GAME@@QEAAAEAV01@AEBV01@@Z
44C690 - ??4DecBaseIntelligenceConfigCmdPacket@GAME@@QEAAAEAV01@AEBV01@@Z
44BDC0 - ??4DecBaseLifeConfigCmdPacket@GAME@@QEAAAEAV01@AEBV01@@Z
44C690 - ??4DecBaseManaConfigCmdPacket@GAME@@QEAAAEAV01@AEBV01@@Z
44C690 - ??4DecBaseStrengthConfigCmdPacket@GAME@@QEAAAEAV01@AEBV01@@Z
3B860 - ??4DecrementBaseDexterityConfigCmd@GAME@@QEAAAEAV01@AEBV01@@Z
3B860 - ??4DecrementBaseIntelligenceConfigCmd@GAME@@QEAAAEAV01@AEBV01@@Z
3B420 - ??4DecrementBaseLifeConfigCmd@GAME@@QEAAAEAV01@AEBV01@@Z
3B860 - ??4DecrementBaseManaConfigCmd@GAME@@QEAAAEAV01@AEBV01@@Z
3B860 - ??4DecrementBaseStrengthConfigCmd@GAME@@QEAAAEAV01@AEBV01@@Z
3FF10 - ??4DefaultDeathHandler@GAME@@QEAAAEAV01@AEBV01@@Z
1912B0 - ??4DefenseAttribute@GAME@@QEAAAEAV01@AEBV01@@Z
18BE10 - ??4DefenseAttributeAbs@GAME@@QEAAAEAV01@$$QEAV01@@Z
18BDF0 - ??4DefenseAttributeAbs@GAME@@QEAAAEAV01@AEBV01@@Z
18BE10 - ??4DefenseAttributeAbsMod@GAME@@QEAAAEAV01@$$QEAV01@@Z
18BDF0 - ??4DefenseAttributeAbsMod@GAME@@QEAAAEAV01@AEBV01@@Z
18BE10 - ??4DefenseAttributeAbsMod_Absorption@GAME@@QEAAAEAV01@$$QEAV01@@Z
18BDF0 - ??4DefenseAttributeAbsMod_Absorption@GAME@@QEAAAEAV01@AEBV01@@Z
18BE10 - ??4DefenseAttributeAbsMod_Aether@GAME@@QEAAAEAV01@$$QEAV01@@Z
18BDF0 - ??4DefenseAttributeAbsMod_Aether@GAME@@QEAAAEAV01@AEBV01@@Z
18BE10 - ??4DefenseAttributeAbsMod_Bleeding@GAME@@QEAAAEAV01@$$QEAV01@@Z
18BDF0 - ??4DefenseAttributeAbsMod_Bleeding@GAME@@QEAAAEAV01@AEBV01@@Z
18BE10 - ??4DefenseAttributeAbsMod_Chaos@GAME@@QEAAAEAV01@$$QEAV01@@Z
18BDF0 - ??4DefenseAttributeAbsMod_Chaos@GAME@@QEAAAEAV01@AEBV01@@Z
18BE10 - ??4DefenseAttributeAbsMod_Cold@GAME@@QEAAAEAV01@$$QEAV01@@Z
18BDF0 - ??4DefenseAttributeAbsMod_Cold@GAME@@QEAAAEAV01@AEBV01@@Z
18BE10 - ??4DefenseAttributeAbsMod_Elemental@GAME@@QEAAAEAV01@$$QEAV01@@Z
18BDF0 - ??4DefenseAttributeAbsMod_Elemental@GAME@@QEAAAEAV01@AEBV01@@Z
18BE10 - ??4DefenseAttributeAbsMod_Fire@GAME@@QEAAAEAV01@$$QEAV01@@Z
18BDF0 - ??4DefenseAttributeAbsMod_Fire@GAME@@QEAAAEAV01@AEBV01@@Z
18BE10 - ??4DefenseAttributeAbsMod_Knockdown@GAME@@QEAAAEAV01@$$QEAV01@@Z
18BDF0 - ??4DefenseAttributeAbsMod_Knockdown@GAME@@QEAAAEAV01@AEBV01@@Z
18BE10 - ??4DefenseAttributeAbsMod_Life@GAME@@QEAAAEAV01@$$QEAV01@@Z
18BDF0 - ??4DefenseAttributeAbsMod_Life@GAME@@QEAAAEAV01@AEBV01@@Z
18BE10 - ??4DefenseAttributeAbsMod_LifeLeach@GAME@@QEAAAEAV01@$$QEAV01@@Z
18BDF0 - ??4DefenseAttributeAbsMod_LifeLeach@GAME@@QEAAAEAV01@AEBV01@@Z
18BE10 - ??4DefenseAttributeAbsMod_Lightning@GAME@@QEAAAEAV01@$$QEAV01@@Z
18BDF0 - ??4DefenseAttributeAbsMod_Lightning@GAME@@QEAAAEAV01@AEBV01@@Z
18BE10 - ??4DefenseAttributeAbsMod_ManaLeach@GAME@@QEAAAEAV01@$$QEAV01@@Z
18BDF0 - ??4DefenseAttributeAbsMod_ManaLeach@GAME@@QEAAAEAV01@AEBV01@@Z
18BE10 - ??4DefenseAttributeAbsMod_Physical@GAME@@QEAAAEAV01@$$QEAV01@@Z
18BDF0 - ??4DefenseAttributeAbsMod_Physical@GAME@@QEAAAEAV01@AEBV01@@Z
18BE10 - ??4DefenseAttributeAbsMod_Pierce@GAME@@QEAAAEAV01@$$QEAV01@@Z
18BDF0 - ??4DefenseAttributeAbsMod_Pierce@GAME@@QEAAAEAV01@AEBV01@@Z
18BE10 - ??4DefenseAttributeAbsMod_Poison@GAME@@QEAAAEAV01@$$QEAV01@@Z
18BDF0 - ??4DefenseAttributeAbsMod_Poison@GAME@@QEAAAEAV01@AEBV01@@Z
18BE10 - ??4DefenseAttributeAbsMod_Protection@GAME@@QEAAAEAV01@$$QEAV01@@Z
18BDF0 - ??4DefenseAttributeAbsMod_Protection@GAME@@QEAAAEAV01@AEBV01@@Z
18BE10 - ??4DefenseAttributeAbsMod_Sleep@GAME@@QEAAAEAV01@$$QEAV01@@Z
18BDF0 - ??4DefenseAttributeAbsMod_Sleep@GAME@@QEAAAEAV01@AEBV01@@Z
18BE10 - ??4DefenseAttributeAbsMod_Stun@GAME@@QEAAAEAV01@$$QEAV01@@Z
18BDF0 - ??4DefenseAttributeAbsMod_Stun@GAME@@QEAAAEAV01@AEBV01@@Z
18B7C0 - ??4DefenseAttributeAbsRestricted@GAME@@QEAAAEAV01@$$QEAV01@@Z
18B780 - ??4DefenseAttributeAbsRestricted@GAME@@QEAAAEAV01@AEBV01@@Z
18BE10 - ??4DefenseAttributeAbs_Aether@GAME@@QEAAAEAV01@$$QEAV01@@Z
18BDF0 - ??4DefenseAttributeAbs_Aether@GAME@@QEAAAEAV01@AEBV01@@Z
18BE10 - ??4DefenseAttributeAbs_Bleeding@GAME@@QEAAAEAV01@$$QEAV01@@Z
18BDF0 - ??4DefenseAttributeAbs_Bleeding@GAME@@QEAAAEAV01@AEBV01@@Z
18BE10 - ??4DefenseAttributeAbs_Chaos@GAME@@QEAAAEAV01@$$QEAV01@@Z
18BDF0 - ??4DefenseAttributeAbs_Chaos@GAME@@QEAAAEAV01@AEBV01@@Z
18BE10 - ??4DefenseAttributeAbs_Cold@GAME@@QEAAAEAV01@$$QEAV01@@Z
18BDF0 - ??4DefenseAttributeAbs_Cold@GAME@@QEAAAEAV01@AEBV01@@Z
18B7C0 - ??4DefenseAttributeAbs_Confusion@GAME@@QEAAAEAV01@$$QEAV01@@Z
18B780 - ??4DefenseAttributeAbs_Confusion@GAME@@QEAAAEAV01@AEBV01@@Z
18B7C0 - ??4DefenseAttributeAbs_Convert@GAME@@QEAAAEAV01@$$QEAV01@@Z
18B780 - ??4DefenseAttributeAbs_Convert@GAME@@QEAAAEAV01@AEBV01@@Z
18B7C0 - ??4DefenseAttributeAbs_Disruption@GAME@@QEAAAEAV01@$$QEAV01@@Z
18B780 - ??4DefenseAttributeAbs_Disruption@GAME@@QEAAAEAV01@AEBV01@@Z
18BE10 - ??4DefenseAttributeAbs_ElementalResistance@GAME@@QEAAAEAV01@$$QEAV01@@Z
18BDF0 - ??4DefenseAttributeAbs_ElementalResistance@GAME@@QEAAAEAV01@AEBV01@@Z
18B7C0 - ??4DefenseAttributeAbs_Fear@GAME@@QEAAAEAV01@$$QEAV01@@Z
18B780 - ??4DefenseAttributeAbs_Fear@GAME@@QEAAAEAV01@AEBV01@@Z
18BE10 - ??4DefenseAttributeAbs_Fire@GAME@@QEAAAEAV01@$$QEAV01@@Z
18BDF0 - ??4DefenseAttributeAbs_Fire@GAME@@QEAAAEAV01@AEBV01@@Z
18B7C0 - ??4DefenseAttributeAbs_Freeze@GAME@@QEAAAEAV01@$$QEAV01@@Z
18B780 - ??4DefenseAttributeAbs_Freeze@GAME@@QEAAAEAV01@AEBV01@@Z
18B7C0 - ??4DefenseAttributeAbs_Knockdown@GAME@@QEAAAEAV01@$$QEAV01@@Z
18B780 - ??4DefenseAttributeAbs_Knockdown@GAME@@QEAAAEAV01@AEBV01@@Z
18BE10 - ??4DefenseAttributeAbs_Life@GAME@@QEAAAEAV01@$$QEAV01@@Z
18BDF0 - ??4DefenseAttributeAbs_Life@GAME@@QEAAAEAV01@AEBV01@@Z
18B7C0 - ??4DefenseAttributeAbs_LifeLeach@GAME@@QEAAAEAV01@$$QEAV01@@Z
18B780 - ??4DefenseAttributeAbs_LifeLeach@GAME@@QEAAAEAV01@AEBV01@@Z
18BE10 - ??4DefenseAttributeAbs_Lightning@GAME@@QEAAAEAV01@$$QEAV01@@Z
18BDF0 - ??4DefenseAttributeAbs_Lightning@GAME@@QEAAAEAV01@AEBV01@@Z
18B7C0 - ??4DefenseAttributeAbs_ManaBurn@GAME@@QEAAAEAV01@$$QEAV01@@Z
18B780 - ??4DefenseAttributeAbs_ManaBurn@GAME@@QEAAAEAV01@AEBV01@@Z
18B7C0 - ??4DefenseAttributeAbs_ManaBurnRatio@GAME@@QEAAAEAV01@$$QEAV01@@Z
18B780 - ??4DefenseAttributeAbs_ManaBurnRatio@GAME@@QEAAAEAV01@AEBV01@@Z
18B7C0 - ??4DefenseAttributeAbs_ManaLeach@GAME@@QEAAAEAV01@$$QEAV01@@Z
18B780 - ??4DefenseAttributeAbs_ManaLeach@GAME@@QEAAAEAV01@AEBV01@@Z
18B7C0 - ??4DefenseAttributeAbs_PercentCurrentLife@GAME@@QEAAAEAV01@$$QEAV01@@Z
18B780 - ??4DefenseAttributeAbs_PercentCurrentLife@GAME@@QEAAAEAV01@AEBV01@@Z
18B7C0 - ??4DefenseAttributeAbs_PercentReflectionResistance@GAME@@QEAAAEAV01@$$QEAV01@@Z
18B780 - ??4DefenseAttributeAbs_PercentReflectionResistance@GAME@@QEAAAEAV01@AEBV01@@Z
18B7C0 - ??4DefenseAttributeAbs_Petrify@GAME@@QEAAAEAV01@$$QEAV01@@Z
18B780 - ??4DefenseAttributeAbs_Petrify@GAME@@QEAAAEAV01@AEBV01@@Z
18BE10 - ??4DefenseAttributeAbs_Physical@GAME@@QEAAAEAV01@$$QEAV01@@Z
18BDF0 - ??4DefenseAttributeAbs_Physical@GAME@@QEAAAEAV01@AEBV01@@Z
18BE10 - ??4DefenseAttributeAbs_Pierce@GAME@@QEAAAEAV01@$$QEAV01@@Z
18BDF0 - ??4DefenseAttributeAbs_Pierce@GAME@@QEAAAEAV01@AEBV01@@Z
18BE10 - ??4DefenseAttributeAbs_Poison@GAME@@QEAAAEAV01@$$QEAV01@@Z
18BDF0 - ??4DefenseAttributeAbs_Poison@GAME@@QEAAAEAV01@AEBV01@@Z
18B7C0 - ??4DefenseAttributeAbs_Sleep@GAME@@QEAAAEAV01@$$QEAV01@@Z
18B780 - ??4DefenseAttributeAbs_Sleep@GAME@@QEAAAEAV01@AEBV01@@Z
18B7C0 - ??4DefenseAttributeAbs_Stun@GAME@@QEAAAEAV01@$$QEAV01@@Z
18B780 - ??4DefenseAttributeAbs_Stun@GAME@@QEAAAEAV01@AEBV01@@Z
18B7C0 - ??4DefenseAttributeAbs_Taunt@GAME@@QEAAAEAV01@$$QEAV01@@Z
18B780 - ??4DefenseAttributeAbs_Taunt@GAME@@QEAAAEAV01@AEBV01@@Z
18B7C0 - ??4DefenseAttributeAbs_TotalSpeed@GAME@@QEAAAEAV01@$$QEAV01@@Z
18B780 - ??4DefenseAttributeAbs_TotalSpeed@GAME@@QEAAAEAV01@AEBV01@@Z
18B7C0 - ??4DefenseAttributeAbs_Trap@GAME@@QEAAAEAV01@$$QEAV01@@Z
18B780 - ??4DefenseAttributeAbs_Trap@GAME@@QEAAAEAV01@AEBV01@@Z
18BE10 - ??4DefenseAttributeDefenseCap@GAME@@QEAAAEAV01@$$QEAV01@@Z
18BDF0 - ??4DefenseAttributeDefenseCap@GAME@@QEAAAEAV01@AEBV01@@Z
18BE10 - ??4DefenseAttributeDefenseCap_Aether@GAME@@QEAAAEAV01@$$QEAV01@@Z
18BDF0 - ??4DefenseAttributeDefenseCap_Aether@GAME@@QEAAAEAV01@AEBV01@@Z
18BE10 - ??4DefenseAttributeDefenseCap_All@GAME@@QEAAAEAV01@$$QEAV01@@Z
18BDF0 - ??4DefenseAttributeDefenseCap_All@GAME@@QEAAAEAV01@AEBV01@@Z
18BE10 - ??4DefenseAttributeDefenseCap_Bleeding@GAME@@QEAAAEAV01@$$QEAV01@@Z
18BDF0 - ??4DefenseAttributeDefenseCap_Bleeding@GAME@@QEAAAEAV01@AEBV01@@Z
18BE10 - ??4DefenseAttributeDefenseCap_Chaos@GAME@@QEAAAEAV01@$$QEAV01@@Z
18BDF0 - ??4DefenseAttributeDefenseCap_Chaos@GAME@@QEAAAEAV01@AEBV01@@Z
18BE10 - ??4DefenseAttributeDefenseCap_Cold@GAME@@QEAAAEAV01@$$QEAV01@@Z
18BDF0 - ??4DefenseAttributeDefenseCap_Cold@GAME@@QEAAAEAV01@AEBV01@@Z
18BE10 - ??4DefenseAttributeDefenseCap_Disruption@GAME@@QEAAAEAV01@$$QEAV01@@Z
18BDF0 - ??4DefenseAttributeDefenseCap_Disruption@GAME@@QEAAAEAV01@AEBV01@@Z
18BE10 - ??4DefenseAttributeDefenseCap_Fire@GAME@@QEAAAEAV01@$$QEAV01@@Z
18BDF0 - ??4DefenseAttributeDefenseCap_Fire@GAME@@QEAAAEAV01@AEBV01@@Z
18BE10 - ??4DefenseAttributeDefenseCap_Freeze@GAME@@QEAAAEAV01@$$QEAV01@@Z
18BDF0 - ??4DefenseAttributeDefenseCap_Freeze@GAME@@QEAAAEAV01@AEBV01@@Z
18BE10 - ??4DefenseAttributeDefenseCap_Life@GAME@@QEAAAEAV01@$$QEAV01@@Z
18BDF0 - ??4DefenseAttributeDefenseCap_Life@GAME@@QEAAAEAV01@AEBV01@@Z
18BE10 - ??4DefenseAttributeDefenseCap_LifeLeach@GAME@@QEAAAEAV01@$$QEAV01@@Z
18BDF0 - ??4DefenseAttributeDefenseCap_LifeLeach@GAME@@QEAAAEAV01@AEBV01@@Z
18BE10 - ??4DefenseAttributeDefenseCap_Lightning@GAME@@QEAAAEAV01@$$QEAV01@@Z
18BDF0 - ??4DefenseAttributeDefenseCap_Lightning@GAME@@QEAAAEAV01@AEBV01@@Z
18BE10 - ??4DefenseAttributeDefenseCap_ManaLeach@GAME@@QEAAAEAV01@$$QEAV01@@Z
18BDF0 - ??4DefenseAttributeDefenseCap_ManaLeach@GAME@@QEAAAEAV01@AEBV01@@Z
18BE10 - ??4DefenseAttributeDefenseCap_Petrify@GAME@@QEAAAEAV01@$$QEAV01@@Z
18BDF0 - ??4DefenseAttributeDefenseCap_Petrify@GAME@@QEAAAEAV01@AEBV01@@Z
18BE10 - ??4DefenseAttributeDefenseCap_Physical@GAME@@QEAAAEAV01@$$QEAV01@@Z
18BDF0 - ??4DefenseAttributeDefenseCap_Physical@GAME@@QEAAAEAV01@AEBV01@@Z
18BE10 - ??4DefenseAttributeDefenseCap_Pierce@GAME@@QEAAAEAV01@$$QEAV01@@Z
18BDF0 - ??4DefenseAttributeDefenseCap_Pierce@GAME@@QEAAAEAV01@AEBV01@@Z
18BE10 - ??4DefenseAttributeDefenseCap_Poison@GAME@@QEAAAEAV01@$$QEAV01@@Z
18BDF0 - ??4DefenseAttributeDefenseCap_Poison@GAME@@QEAAAEAV01@AEBV01@@Z
18BE10 - ??4DefenseAttributeDefenseCap_Sleep@GAME@@QEAAAEAV01@$$QEAV01@@Z
18BDF0 - ??4DefenseAttributeDefenseCap_Sleep@GAME@@QEAAAEAV01@AEBV01@@Z
18BE10 - ??4DefenseAttributeDefenseCap_Stun@GAME@@QEAAAEAV01@$$QEAV01@@Z
18BDF0 - ??4DefenseAttributeDefenseCap_Stun@GAME@@QEAAAEAV01@AEBV01@@Z
18BE10 - ??4DefenseAttributeDefenseCap_Trap@GAME@@QEAAAEAV01@$$QEAV01@@Z
18BDF0 - ??4DefenseAttributeDefenseCap_Trap@GAME@@QEAAAEAV01@AEBV01@@Z
18BE10 - ??4DefenseAttributeDur@GAME@@QEAAAEAV01@$$QEAV01@@Z
18BDF0 - ??4DefenseAttributeDur@GAME@@QEAAAEAV01@AEBV01@@Z
18BE10 - ??4DefenseAttributeDurMod@GAME@@QEAAAEAV01@$$QEAV01@@Z
18BDF0 - ??4DefenseAttributeDurMod@GAME@@QEAAAEAV01@AEBV01@@Z
18BE10 - ??4DefenseAttributeDurMod_Aether@GAME@@QEAAAEAV01@$$QEAV01@@Z
18BDF0 - ??4DefenseAttributeDurMod_Aether@GAME@@QEAAAEAV01@AEBV01@@Z
18BE10 - ??4DefenseAttributeDurMod_Bleeding@GAME@@QEAAAEAV01@$$QEAV01@@Z
18BDF0 - ??4DefenseAttributeDurMod_Bleeding@GAME@@QEAAAEAV01@AEBV01@@Z
18BE10 - ??4DefenseAttributeDurMod_Chaos@GAME@@QEAAAEAV01@$$QEAV01@@Z
18BDF0 - ??4DefenseAttributeDurMod_Chaos@GAME@@QEAAAEAV01@AEBV01@@Z
18BE10 - ??4DefenseAttributeDurMod_Cold@GAME@@QEAAAEAV01@$$QEAV01@@Z
18BDF0 - ??4DefenseAttributeDurMod_Cold@GAME@@QEAAAEAV01@AEBV01@@Z
18BE10 - ??4DefenseAttributeDurMod_Fire@GAME@@QEAAAEAV01@$$QEAV01@@Z
18BDF0 - ??4DefenseAttributeDurMod_Fire@GAME@@QEAAAEAV01@AEBV01@@Z
18BE10 - ??4DefenseAttributeDurMod_Life@GAME@@QEAAAEAV01@$$QEAV01@@Z
18BDF0 - ??4DefenseAttributeDurMod_Life@GAME@@QEAAAEAV01@AEBV01@@Z
18BE10 - ??4DefenseAttributeDurMod_LifeLeach@GAME@@QEAAAEAV01@$$QEAV01@@Z
18BDF0 - ??4DefenseAttributeDurMod_LifeLeach@GAME@@QEAAAEAV01@AEBV01@@Z
18BE10 - ??4DefenseAttributeDurMod_Lightning@GAME@@QEAAAEAV01@$$QEAV01@@Z
18BDF0 - ??4DefenseAttributeDurMod_Lightning@GAME@@QEAAAEAV01@AEBV01@@Z
18BE10 - ??4DefenseAttributeDurMod_ManaLeach@GAME@@QEAAAEAV01@$$QEAV01@@Z
18BDF0 - ??4DefenseAttributeDurMod_ManaLeach@GAME@@QEAAAEAV01@AEBV01@@Z
18BE10 - ??4DefenseAttributeDurMod_Physical@GAME@@QEAAAEAV01@$$QEAV01@@Z
18BDF0 - ??4DefenseAttributeDurMod_Physical@GAME@@QEAAAEAV01@AEBV01@@Z
18BE10 - ??4DefenseAttributeDurMod_Poison@GAME@@QEAAAEAV01@$$QEAV01@@Z
18BDF0 - ??4DefenseAttributeDurMod_Poison@GAME@@QEAAAEAV01@AEBV01@@Z
18BE10 - ??4DefenseAttributeDur_Aether@GAME@@QEAAAEAV01@$$QEAV01@@Z
18BDF0 - ??4DefenseAttributeDur_Aether@GAME@@QEAAAEAV01@AEBV01@@Z
18BE10 - ??4DefenseAttributeDur_Bleeding@GAME@@QEAAAEAV01@$$QEAV01@@Z
18BDF0 - ??4DefenseAttributeDur_Bleeding@GAME@@QEAAAEAV01@AEBV01@@Z
18BE10 - ??4DefenseAttributeDur_Chaos@GAME@@QEAAAEAV01@$$QEAV01@@Z
18BDF0 - ??4DefenseAttributeDur_Chaos@GAME@@QEAAAEAV01@AEBV01@@Z
18BE10 - ??4DefenseAttributeDur_Cold@GAME@@QEAAAEAV01@$$QEAV01@@Z
18BDF0 - ??4DefenseAttributeDur_Cold@GAME@@QEAAAEAV01@AEBV01@@Z
18BE10 - ??4DefenseAttributeDur_Fire@GAME@@QEAAAEAV01@$$QEAV01@@Z
18BDF0 - ??4DefenseAttributeDur_Fire@GAME@@QEAAAEAV01@AEBV01@@Z
18BE10 - ??4DefenseAttributeDur_Life@GAME@@QEAAAEAV01@$$QEAV01@@Z
18BDF0 - ??4DefenseAttributeDur_Life@GAME@@QEAAAEAV01@AEBV01@@Z
18BE10 - ??4DefenseAttributeDur_LifeLeach@GAME@@QEAAAEAV01@$$QEAV01@@Z
18BDF0 - ??4DefenseAttributeDur_LifeLeach@GAME@@QEAAAEAV01@AEBV01@@Z
18BE10 - ??4DefenseAttributeDur_Lightning@GAME@@QEAAAEAV01@$$QEAV01@@Z
18BDF0 - ??4DefenseAttributeDur_Lightning@GAME@@QEAAAEAV01@AEBV01@@Z
18BE10 - ??4DefenseAttributeDur_ManaLeach@GAME@@QEAAAEAV01@$$QEAV01@@Z
18BDF0 - ??4DefenseAttributeDur_ManaLeach@GAME@@QEAAAEAV01@AEBV01@@Z
18BE10 - ??4DefenseAttributeDur_Physical@GAME@@QEAAAEAV01@$$QEAV01@@Z
18BDF0 - ??4DefenseAttributeDur_Physical@GAME@@QEAAAEAV01@AEBV01@@Z
18BE10 - ??4DefenseAttributeDur_Poison@GAME@@QEAAAEAV01@$$QEAV01@@Z
18BDF0 - ??4DefenseAttributeDur_Poison@GAME@@QEAAAEAV01@AEBV01@@Z
18BE10 - ??4DefenseAttributeMisc_BlockAmountModifier@GAME@@QEAAAEAV01@$$QEAV01@@Z
18BDF0 - ??4DefenseAttributeMisc_BlockAmountModifier@GAME@@QEAAAEAV01@AEBV01@@Z
18BE10 - ??4DefenseAttributeMisc_BlockModifier@GAME@@QEAAAEAV01@$$QEAV01@@Z
18BDF0 - ??4DefenseAttributeMisc_BlockModifier@GAME@@QEAAAEAV01@AEBV01@@Z
18BE10 - ??4DefenseAttributeMisc_Reflect@GAME@@QEAAAEAV01@$$QEAV01@@Z
18BDF0 - ??4DefenseAttributeMisc_Reflect@GAME@@QEAAAEAV01@AEBV01@@Z
18BE10 - ??4DefenseAttributeMisc_ReflectModifier@GAME@@QEAAAEAV01@$$QEAV01@@Z
18BDF0 - ??4DefenseAttributeMisc_ReflectModifier@GAME@@QEAAAEAV01@AEBV01@@Z
31950 - ??4DefenseAttributeStore@GAME@@QEAAAEAV01@AEBV01@@Z
31950 - ??4DefenseAttributeStore_Character@GAME@@QEAAAEAV01@$$QEAV01@@Z
31950 - ??4DefenseAttributeStore_Character@GAME@@QEAAAEAV01@AEBV01@@Z
31950 - ??4DefenseAttributeStore_Equipment@GAME@@QEAAAEAV01@$$QEAV01@@Z
31950 - ??4DefenseAttributeStore_Equipment@GAME@@QEAAAEAV01@AEBV01@@Z
31950 - ??4DefenseAttributeStore_Max@GAME@@QEAAAEAV01@$$QEAV01@@Z
31950 - ??4DefenseAttributeStore_Max@GAME@@QEAAAEAV01@AEBV01@@Z
31950 - ??4DefenseAttributeStore_Min@GAME@@QEAAAEAV01@$$QEAV01@@Z
31950 - ??4DefenseAttributeStore_Min@GAME@@QEAAAEAV01@AEBV01@@Z
31950 - ??4DefenseAttributeStore_Skill@GAME@@QEAAAEAV01@$$QEAV01@@Z
31950 - ??4DefenseAttributeStore_Skill@GAME@@QEAAAEAV01@AEBV01@@Z
191A30 - ??4DefenseAttribute_BaseProtectionAbsorption@GAME@@QEAAAEAV01@$$QEAV01@@Z
191970 - ??4DefenseAttribute_BaseProtectionAbsorption@GAME@@QEAAAEAV01@AEBV01@@Z
191C80 - ??4DefenseAttribute_SkillProtectionAbsorption@GAME@@QEAAAEAV01@$$QEAV01@@Z
191C60 - ??4DefenseAttribute_SkillProtectionAbsorption@GAME@@QEAAAEAV01@AEBV01@@Z
191240 - ??4DefenseAttribute_Typical@GAME@@QEAAAEAV01@$$QEAV01@@Z
191300 - ??4DefenseAttribute_Typical@GAME@@QEAAAEAV01@AEBV01@@Z
1E6E60 - ??4DestroyGravestonePacket@GAME@@QEAAAEAV01@AEBV01@@Z
1E6FB0 - ??4DestroyItemTeleportPacket@GAME@@QEAAAEAV01@AEBV01@@Z
24980 - ??4DestructibleHookPack@GAME@@QEAAAEAV01@AEBV01@@Z
3B420 - ??4DetachItemConfigCmd@GAME@@QEAAAEAV01@AEBV01@@Z
44BDC0 - ??4DetachItemConfigCmdPacket@GAME@@QEAAAEAV01@AEBV01@@Z
453900 - ??4DialogManager@GAME@@QEAAAEAV01@AEBV01@@Z
452FD0 - ??4DiePacket@GAME@@QEAAAEAV01@AEBV01@@Z
1E6E60 - ??4DifficultyRampUpdatePacket@GAME@@QEAAAEAV01@AEBV01@@Z
1E5990 - ??4DisengageContainerPacket@GAME@@QEAAAEAV01@AEBV01@@Z
1E5990 - ??4DisengageEndlessShrinePacket@GAME@@QEAAAEAV01@AEBV01@@Z
1E5990 - ??4DisengageNpcPacket@GAME@@QEAAAEAV01@AEBV01@@Z
1E5990 - ??4DisengageShrinePacket@GAME@@QEAAAEAV01@AEBV01@@Z
40120 - ??4DissolveActorDeathHandler@GAME@@QEAAAEAV01@AEBV01@@Z
1F0310 - ??4DungeonProgressToClientPacket@GAME@@QEAAAEAV01@AEBV01@@Z
1F03B0 - ??4DungeonProgressToServerPacket@GAME@@QEAAAEAV01@AEBV01@@Z
1E5990 - ??4DungeonSoundPacket@GAME@@QEAAAEAV01@AEBV01@@Z
44A0F0 - ??4DurationDamageManager@GAME@@QEAAAEAV01@AEBV01@@Z
3D970 - ??4EnchanterDismantleConfigCmd@GAME@@QEAAAEAV01@AEBV01@@Z
44D930 - ??4EnchanterDismantleConfigCmdPacket@GAME@@QEAAAEAV01@AEBV01@@Z
3D850 - ??4EnchanterRecoveryConfigCmd@GAME@@QEAAAEAV01@AEBV01@@Z
44D930 - ??4EnchanterRecoveryConfigCmdPacket@GAME@@QEAAAEAV01@AEBV01@@Z
3DAC0 - ??4EnchanterTinkerConfigCmd@GAME@@QEAAAEAV01@AEBV01@@Z
44DAD0 - ??4EnchanterTinkerConfigCmdPacket@GAME@@QEAAAEAV01@AEBV01@@Z
451950 - ??4EndlessDungeon_Generator@GAME@@QEAAAEAV01@AEBV01@@Z
1E5990 - ??4EngageContainerRequestPacket@GAME@@QEAAAEAV01@AEBV01@@Z
1E5990 - ??4EngageContainerResponsePacket@GAME@@QEAAAEAV01@AEBV01@@Z
1E5990 - ??4EngageEndlessShrineRequestPacket@GAME@@QEAAAEAV01@AEBV01@@Z
1E5BC0 - ??4EngageEndlessShrineResponsePacket@GAME@@QEAAAEAV01@AEBV01@@Z
453080 - ??4EngageNpcPacket@GAME@@QEAAAEAV01@AEBV01@@Z
1E7D80 - ??4EngageNpcRequestPacket@GAME@@QEAAAEAV01@AEBV01@@Z
1E7D80 - ??4EngageNpcResponsePacket@GAME@@QEAAAEAV01@AEBV01@@Z
1E5990 - ??4EngageShrineRequestPacket@GAME@@QEAAAEAV01@AEBV01@@Z
1E5BC0 - ??4EngageShrineResponsePacket@GAME@@QEAAAEAV01@AEBV01@@Z
14820 - ??4EnumConverter@GAME@@QEAAAEAU01@$$QEAU01@@Z
14820 - ??4EnumConverter@GAME@@QEAAAEAU01@AEBU01@@Z
44A1C0 - ??4EquipManagerContainer@GAME@@QEAAAEAV01@AEBV01@@Z
447CC0 - ??4EquipmentCtrl@GAME@@QEAAAEAV01@AEBV01@@Z
1E5990 - ??4ExperienceNotificationPacket@GAME@@QEAAAEAV01@AEBV01@@Z
1F71F0 - ??4FactionPack@GAME@@QEAAAEAV01@AEBV01@@Z
1F0860 - ??4FactionToClientPacket@GAME@@QEAAAEAV01@AEBV01@@Z
40240 - ??4FadeActorDeathHandler@GAME@@QEAAAEAV01@AEBV01@@Z
14820 - ??4FilterCharacterAction@GAME@@QEAAAEAV01@$$QEAV01@@Z
14820 - ??4FilterCharacterAction@GAME@@QEAAAEAV01@AEBV01@@Z
14820 - ??4FilterGetAllPlayers@GAME@@QEAAAEAV01@$$QEAV01@@Z
14820 - ??4FilterGetAllPlayers@GAME@@QEAAAEAV01@AEBV01@@Z
14820 - ??4FilterGetPlayerSpawnPoint@GAME@@QEAAAEAV01@$$QEAV01@@Z
14820 - ??4FilterGetPlayerSpawnPoint@GAME@@QEAAAEAV01@AEBV01@@Z
14820 - ??4FilterMountAction@GAME@@QEAAAEAV01@$$QEAV01@@Z
14820 - ??4FilterMountAction@GAME@@QEAAAEAV01@AEBV01@@Z
14820 - ??4FilterMountedCharacterAction@GAME@@QEAAAEAV01@$$QEAV01@@Z
14820 - ??4FilterMountedCharacterAction@GAME@@QEAAAEAV01@AEBV01@@Z
1FE4F0 - ??4FixedItemContainerController@GAME@@QEAAAEAV01@AEBV01@@Z
1FFCF0 - ??4FixedItemController@GAME@@QEAAAEAV01@AEBV01@@Z
200930 - ??4FixedItemDoorController@GAME@@QEAAAEAV01@AEBV01@@Z
204560 - ??4FixedItemShrineController@GAME@@QEAAAEAV01@AEBV01@@Z
AF900 - ??4FixedItemSkill@GAME@@QEAAAEAV01@AEBV01@@Z
1FD1E0 - ??4FixedItemSkillTargetConfigCmd@GAME@@QEAAAEAV01@AEBV01@@Z
44E000 - ??4FixedItemSkillTargetConfigCmdPacket@GAME@@QEAAAEAV01@AEBV01@@Z
AFAB0 - ??4FixedItemSkill_Buff@GAME@@QEAAAEAV01@AEBV01@@Z
AFC40 - ??4FixedItemSkill_SpawnMonster@GAME@@QEAAAEAV01@AEBV01@@Z
3AFE0 - ??4FixedItemStateChangeConfigCmd@GAME@@QEAAAEAV01@AEBV01@@Z
44DF10 - ??4FixedItemStateChangeConfigCmdPacket@GAME@@QEAAAEAV01@AEBV01@@Z
1FD1E0 - ??4FixedItemTargetConfigCmd@GAME@@QEAAAEAV01@AEBV01@@Z
44E000 - ??4FixedItemTargetConfigCmdPacket@GAME@@QEAAAEAV01@AEBV01@@Z
1E5990 - ??4FloorProgressToClientPacket@GAME@@QEAAAEAV01@AEBV01@@Z
4521C0 - ??4FrustumUpdatePacket@GAME@@QEAAAEAV01@AEBV01@@Z
1E6E60 - ??4GameBalanceUpdatePacket@GAME@@QEAAAEAV01@AEBV01@@Z
453B70 - ??4GameController@GAME@@QEAAAEAV01@AEBV01@@Z
1ECB40 - ??4GameEngineInboundInterface@GAME@@QEAAAEAV01@AEBV01@@Z
1EBB00 - ??4GameEngineNetworkInterface@GAME@@QEAAAEAV01@AEBV01@@Z
1ECB40 - ??4GameEngineOutboundInterface@GAME@@QEAAAEAV01@AEBV01@@Z
1E6E60 - ??4GameWonPacket@GAME@@QEAAAEAV01@AEBV01@@Z
44A3A0 - ??4GarmentManager@GAME@@QEAAAEAV01@AEBV01@@Z
1E5990 - ??4GiveGoldPacket@GAME@@QEAAAEAV01@AEBV01@@Z
2CBE0 - ??4GoldGenerator@GAME@@QEAAAEAV01@AEBV01@@Z
41BE0 - ??4HotSlotOption@GAME@@QEAAAEAV01@AEBV01@@Z
41BE0 - ??4HotSlotOptionPotion@GAME@@QEAAAEAV01@AEBV01@@Z
258400 - ??4HotSlotOptionScroll@GAME@@QEAAAEAV01@AEBV01@@Z
134BC0 - ??4HotSlotOptionSkill@GAME@@QEAAAEAV01@AEBV01@@Z
452460 - ??4IdleActionPacket@GAME@@QEAAAEAV01@AEBV01@@Z
452D80 - ??4ImmobilizePacket@GAME@@QEAAAEAV01@AEBV01@@Z
44C690 - ??4IncBaseDexterityConfigCmdPacket@GAME@@QEAAAEAV01@AEBV01@@Z
44C690 - ??4IncBaseIntelligenceConfigCmdPacket@GAME@@QEAAAEAV01@AEBV01@@Z
44BDC0 - ??4IncBaseLifeConfigCmdPacket@GAME@@QEAAAEAV01@AEBV01@@Z
44BDC0 - ??4IncBaseManaConfigCmdPacket@GAME@@QEAAAEAV01@AEBV01@@Z
44C690 - ??4IncBaseStrengthConfigCmdPacket@GAME@@QEAAAEAV01@AEBV01@@Z
3B860 - ??4IncrementBaseDexterityConfigCmd@GAME@@QEAAAEAV01@AEBV01@@Z
3B860 - ??4IncrementBaseIntelligenceConfigCmd@GAME@@QEAAAEAV01@AEBV01@@Z
3B420 - ??4IncrementBaseLifeConfigCmd@GAME@@QEAAAEAV01@AEBV01@@Z
3B420 - ??4IncrementBaseManaConfigCmd@GAME@@QEAAAEAV01@AEBV01@@Z
3B860 - ??4IncrementBaseStrengthConfigCmd@GAME@@QEAAAEAV01@AEBV01@@Z
211160 - ??4InspectHelperPacket@GAME@@QEAAAEAV01@AEBV01@@Z
1E5990 - ??4InspectRequestPacket@GAME@@QEAAAEAV01@AEBV01@@Z
24980 - ??4InteractableHookPack@GAME@@QEAAAEAV01@AEBV01@@Z
4483A0 - ??4Inventory@GAME@@QEAAAEAV01@AEBV01@@Z
137EF0 - ??4InventorySack@GAME@@QEAAAEAV01@AEBV01@@Z
1E5990 - ??4InvitePartyConfigCmdPacket@GAME@@QEAAAEAV01@AEBV01@@Z
24980 - ??4ItemHookPack@GAME@@QEAAAEAV01@AEBV01@@Z
40720 - ??4ItemSet@GAME@@QEAAAEAV01@AEBV01@@Z
1E5990 - ??4JoinPartyConfigCmdPacket@GAME@@QEAAAEAV01@AEBV01@@Z
452B10 - ??4JumpToAttackPacket@GAME@@QEAAAEAV01@AEBV01@@Z
452460 - ??4LongIdleActionPacket@GAME@@QEAAAEAV01@AEBV01@@Z
453080 - ??4LookAtActionPacket@GAME@@QEAAAEAV01@AEBV01@@Z
AFFD0 - ??4LootBase@GAME@@QEAAAEAV01@AEBV01@@Z
28FE20 - ??4LootItemTableRandomizer@GAME@@QEAAAEAV01@AEBV01@@Z
28E8D0 - ??4LootItemTableRandomizer_Dyn@GAME@@QEAAAEAV01@AEBV01@@Z
B0230 - ??4LootItemTable_DynWeight@GAME@@QEAAAEAV01@AEBV01@@Z
B0480 - ??4LootItemTable_FixedWeight@GAME@@QEAAAEAV01@AEBV01@@Z
44B850 - ??4LootLoader@GAME@@QEAAAEAV01@AEBV01@@Z
B0640 - ??4LootMasterTable@GAME@@QEAAAEAV01@AEBV01@@Z
A2030 - ??4LootRandomizerTable@GAME@@QEAAAEAV01@AEBV01@@Z
BC6A0 - ??4LootRandomizerTable_Dynamic@GAME@@QEAAAEAV01@AEBV01@@Z
B0880 - ??4LootTable@GAME@@QEAAAEAV01@AEBV01@@Z
1E4D40 - ??4MarketArmor@GAME@@QEAAAEAV01@AEBV01@@Z
1E4D40 - ??4MarketArmor_Chest@GAME@@QEAAAEAV01@AEBV01@@Z
1E4D40 - ??4MarketArmor_Feet@GAME@@QEAAAEAV01@AEBV01@@Z
1E4D40 - ??4MarketArmor_Hands@GAME@@QEAAAEAV01@AEBV01@@Z
1E4D40 - ??4MarketArmor_Head@GAME@@QEAAAEAV01@AEBV01@@Z
1E4D40 - ??4MarketArmor_Legs@GAME@@QEAAAEAV01@AEBV01@@Z
1E4D40 - ??4MarketArmor_Shield@GAME@@QEAAAEAV01@AEBV01@@Z
1E4D40 - ??4MarketArmor_Shoulders@GAME@@QEAAAEAV01@AEBV01@@Z
1E4D40 - ??4MarketArmor_Used@GAME@@QEAAAEAV01@AEBV01@@Z
1E4D40 - ??4MarketArmor_Waist@GAME@@QEAAAEAV01@AEBV01@@Z
1E7210 - ??4MarketC2SPurchaseRequestPacket@GAME@@QEAAAEAV01@AEBV01@@Z
1E7210 - ??4MarketC2SSellBackPacket@GAME@@QEAAAEAV01@AEBV01@@Z
1E6E60 - ??4MarketC2SUpdateRequestPacket@GAME@@QEAAAEAV01@AEBV01@@Z
1E4D40 - ??4MarketMiniMart@GAME@@QEAAAEAV01@AEBV01@@Z
1E4D40 - ??4MarketMisc_Amulet@GAME@@QEAAAEAV01@AEBV01@@Z
1E4D40 - ??4MarketMisc_List@GAME@@QEAAAEAV01@AEBV01@@Z
1E4D40 - ??4MarketMisc_Medal@GAME@@QEAAAEAV01@AEBV01@@Z
1E4D40 - ??4MarketMisc_Potion@GAME@@QEAAAEAV01@AEBV01@@Z
1E4D40 - ??4MarketMisc_Ring@GAME@@QEAAAEAV01@AEBV01@@Z
1E4D40 - ??4MarketMisc_Scroll@GAME@@QEAAAEAV01@AEBV01@@Z
1E4D40 - ??4MarketMisc_Static@GAME@@QEAAAEAV01@AEBV01@@Z
1E4D40 - ??4MarketMisc_Used@GAME@@QEAAAEAV01@AEBV01@@Z
1E5BC0 - ??4MarketS2CPurchaseConfirmationPacket@GAME@@QEAAAEAV01@AEBV01@@Z
1E7580 - ??4MarketS2CPurchaseDeniedPacket@GAME@@QEAAAEAV01@AEBV01@@Z
1E5BC0 - ??4MarketS2CStatusUpdatePacket@GAME@@QEAAAEAV01@AEBV01@@Z
1E7840 - ??4MarketS2CUpdatePacket@GAME@@QEAAAEAV01@AEBV01@@Z
1E4D40 - ??4MarketWeapon@GAME@@QEAAAEAV01@AEBV01@@Z
1E4D40 - ??4MarketWeapon_Axe@GAME@@QEAAAEAV01@AEBV01@@Z
1E4D40 - ??4MarketWeapon_Dagger@GAME@@QEAAAEAV01@AEBV01@@Z
1E4D40 - ??4MarketWeapon_Mace@GAME@@QEAAAEAV01@AEBV01@@Z
1E4D40 - ??4MarketWeapon_Ranged1h@GAME@@QEAAAEAV01@AEBV01@@Z
1E4D40 - ??4MarketWeapon_Ranged2h@GAME@@QEAAAEAV01@AEBV01@@Z
1E4D40 - ??4MarketWeapon_Scepter@GAME@@QEAAAEAV01@AEBV01@@Z
1E4D40 - ??4MarketWeapon_Spear@GAME@@QEAAAEAV01@AEBV01@@Z
1E4D40 - ??4MarketWeapon_Staff@GAME@@QEAAAEAV01@AEBV01@@Z
1E4D40 - ??4MarketWeapon_Sword@GAME@@QEAAAEAV01@AEBV01@@Z
1E4D40 - ??4MarketWeapon_Used1@GAME@@QEAAAEAV01@AEBV01@@Z
1E4D40 - ??4MarketWeapon_Used2@GAME@@QEAAAEAV01@AEBV01@@Z
1E7C40 - ??4MonsterUseControllerPacket@GAME@@QEAAAEAV01@AEBV01@@Z
452C90 - ??4MoveAttackPacket@GAME@@QEAAAEAV01@AEBV01@@Z
4525D0 - ??4MoveToPacket@GAME@@QEAAAEAV01@AEBV01@@Z
453CC0 - ??4Mutator@GAME@@QEAAAEAV01@AEBV01@@Z
1E6E60 - ??4MutatorRequestPacket@GAME@@QEAAAEAV01@AEBV01@@Z
1E5990 - ??4NRLoaderStatePacket@GAME@@QEAAAEAV01@AEBV01@@Z
451FE0 - ??4NackEntityPacket@GAME@@QEAAAEAV01@AEBV01@@Z
1EA870 - ??4NpcTalkPacket@GAME@@QEAAAEAV01@AEBV01@@Z
44B740 - ??4PFxManager@GAME@@QEAAAEAV01@AEBV01@@Z
3F830 - ??4ParametersCombat@GAME@@QEAAAEAV01@$$QEAV01@@Z
3F6E0 - ??4ParametersCombat@GAME@@QEAAAEAV01@AEBV01@@Z
3FC90 - ??4ParametersCombatDisplay@GAME@@QEAAAEAV01@$$QEAV01@@Z
3FBC0 - ??4ParametersCombatDisplay@GAME@@QEAAAEAV01@AEBV01@@Z
44BBB0 - ??4PartyManager@GAME@@QEAAAEAV01@AEBV01@@Z
453680 - ??4PartyRequestResponsePacket@GAME@@QEAAAEAV01@AEBV01@@Z
452800 - ??4PickUpItemPacket@GAME@@QEAAAEAV01@AEBV01@@Z
44C1A0 - ??4PickupItemConfigCmdPacket@GAME@@QEAAAEAV01@AEBV01@@Z
4531A0 - ??4PlayAnimationActionPacket@GAME@@QEAAAEAV01@AEBV01@@Z
403F0 - ??4PlayEffectDeathHandler@GAME@@QEAAAEAV01@AEBV01@@Z
3B420 - ??4PlaySoundConfigCmd@GAME@@QEAAAEAV01@AEBV01@@Z
44BDC0 - ??4PlaySoundConfigCmdPacket@GAME@@QEAAAEAV01@AEBV01@@Z
3FE20 - ??4PlaySoundDeathHandler@GAME@@QEAAAEAV01@AEBV01@@Z
4477E0 - ??4PlayStats@GAME@@QEAAAEAV01@AEBV01@@Z
1F0400 - ??4PlayVideoCommandPacket@GAME@@QEAAAEAV01@AEBV01@@Z
1F0470 - ??4PlayVideoRequestPacket@GAME@@QEAAAEAV01@AEBV01@@Z
446FE0 - ??4PlayerInfo@GAME@@QEAAAEAU01@$$QEAU01@@Z
446FD0 - ??4PlayerInfo@GAME@@QEAAAEAU01@AEBU01@@Z
41D80 - ??4PlayerInventoryCtrl@GAME@@QEAAAEAV01@AEBV01@@Z
453830 - ??4PlayerManagerServer@GAME@@QEAAAEAV01@AEBV01@@Z
1F1210 - ??4PlayerNetBasicInfo@GAME@@QEAAAEAU01@AEBU01@@Z
3233F0 - ??4PlayerNetBasicInfo@GAME@@QEAAXAEBUPlayerNetHeartbeatInfo@1@@Z
323370 - ??4PlayerNetHeartbeatInfo@GAME@@QEAAAEAU01@$$QEAU01@@Z
1F1370 - ??4PlayerNetHeartbeatInfo@GAME@@QEAAAEAU01@AEBU01@@Z
4522B0 - ??4PlayerPositionUpdatePacket@GAME@@QEAAAEAV01@AEBV01@@Z
1E9E20 - ??4PostPetSpawnPacket@GAME@@QEAAAEAV01@AEBV01@@Z
33A3D0 - ??4ProxyAccessoryPool@GAME@@QEAAAEAV01@AEBV01@@Z
25040 - ??4Quest2@GAME@@QEAAAEAV01@AEBV01@@Z
24CE0 - ??4Quest2Event@GAME@@QEAAAEAV01@AEBV01@@Z
24BD0 - ??4Quest2Objective@GAME@@QEAAAEAV01@AEBV01@@Z
24E80 - ??4Quest2Task@GAME@@QEAAAEAV01@AEBV01@@Z
3EB20 - ??4QuestAnimationCompletedConfigCmd@GAME@@QEAAAEAV01@AEBV01@@Z
44E650 - ??4QuestAnimationCompletedConfigCmdPacket@GAME@@QEAAAEAV01@AEBV01@@Z
1E9060 - ??4QuestCommandBeginQuestTaskPacket@GAME@@QEAAAEAV01@AEBV01@@Z
1E92E0 - ??4QuestCommandCompleteQuestPacket@GAME@@QEAAAEAV01@AEBV01@@Z
1E9060 - ??4QuestCommandCompleteQuestTaskPacket@GAME@@QEAAAEAV01@AEBV01@@Z
1E83B0 - ??4QuestCommandDeclareTokensPacket@GAME@@QEAAAEAV01@AEBV01@@Z
1E99F0 - ??4QuestCommandDestroyDestructiblePacket@GAME@@QEAAAEAV01@AEBV01@@Z
1E7C40 - ??4QuestCommandEnableMonsterSkillsPacket@GAME@@QEAAAEAV01@AEBV01@@Z
1E92E0 - ??4QuestCommandEventPacket@GAME@@QEAAAEAV01@AEBV01@@Z
1E9450 - ??4QuestCommandGiveTokenPacket@GAME@@QEAAAEAV01@AEBV01@@Z
1E92E0 - ??4QuestCommandGlobalEventPacket@GAME@@QEAAAEAV01@AEBV01@@Z
1E7C40 - ??4QuestCommandLockChestPacket@GAME@@QEAAAEAV01@AEBV01@@Z
1E7C40 - ??4QuestCommandLockDoorPacket@GAME@@QEAAAEAV01@AEBV01@@Z
1E8570 - ??4QuestCommandMovePacket@GAME@@QEAAAEAV01@AEBV01@@Z
1E7C40 - ??4QuestCommandOpenDoorPacket@GAME@@QEAAAEAV01@AEBV01@@Z
1E7C40 - ??4QuestCommandOpenDynGridEntrancePacket@GAME@@QEAAAEAV01@AEBV01@@Z
1E88D0 - ??4QuestCommandPlayAnimationPacket@GAME@@QEAAAEAV01@AEBV01@@Z
1E9450 - ??4QuestCommandRemoveTokenPacket@GAME@@QEAAAEAV01@AEBV01@@Z
1E9BA0 - ??4QuestCommandTakeItemPacket@GAME@@QEAAAEAV01@AEBV01@@Z
1E92E0 - ??4QuestCommandUiNotifyPacket@GAME@@QEAAAEAV01@AEBV01@@Z
1E6220 - ??4QuestCommandUseSkillPacket@GAME@@QEAAAEAV01@AEBV01@@Z
1E8710 - ??4QuestCommandWalkPacket@GAME@@QEAAAEAV01@AEBV01@@Z
1F1790 - ??4QuestMessagePacket@GAME@@QEAAAEAV01@AEBV01@@Z
3EB20 - ??4QuestMoveCompletedConfigCmd@GAME@@QEAAAEAV01@AEBV01@@Z
44E650 - ??4QuestMoveCompletedConfigCmdPacket@GAME@@QEAAAEAV01@AEBV01@@Z
3B320 - ??4ReclaimDevotionPointConfigCmd@GAME@@QEAAAEAV01@AEBV01@@Z
44BD20 - ??4ReclaimDevotionPointConfigCmdPacket@GAME@@QEAAAEAV01@AEBV01@@Z
3B860 - ??4ReleaseImmobilizeConfigCmd@GAME@@QEAAAEAV01@AEBV01@@Z
44C690 - ??4ReleaseImmobilizeConfigCmdPacket@GAME@@QEAAAEAV01@AEBV01@@Z
3B860 - ??4ReleaseKnockdownConfigCmd@GAME@@QEAAAEAV01@AEBV01@@Z
44C690 - ??4ReleaseKnockdownConfigCmdPacket@GAME@@QEAAAEAV01@AEBV01@@Z
3B420 - ??4ReleasePetConfigCmd@GAME@@QEAAAEAV01@AEBV01@@Z
44BDC0 - ??4ReleasePetConfigCmdPacket@GAME@@QEAAAEAV01@AEBV01@@Z
3B860 - ??4ReleaseSleepConfigCmd@GAME@@QEAAAEAV01@AEBV01@@Z
44C690 - ??4ReleaseSleepConfigCmdPacket@GAME@@QEAAAEAV01@AEBV01@@Z
3B860 - ??4ReleaseStunConfigCmd@GAME@@QEAAAEAV01@AEBV01@@Z
44C690 - ??4ReleaseStunConfigCmdPacket@GAME@@QEAAAEAV01@AEBV01@@Z
3B860 - ??4ReleaseTrapConfigCmd@GAME@@QEAAAEAV01@AEBV01@@Z
44C690 - ??4ReleaseTrapConfigCmdPacket@GAME@@QEAAAEAV01@AEBV01@@Z
1F0660 - ??4RemoteMessagePacket@GAME@@QEAAAEAV01@AEBV01@@Z
1F0600 - ??4RemoteWMessagePacket@GAME@@QEAAAEAV01@AEBV01@@Z
3B420 - ??4RemoveInventoryItemConfigCmd@GAME@@QEAAAEAV01@AEBV01@@Z
44BDC0 - ??4RemoveInventoryItemConfigCmdPacket@GAME@@QEAAAEAV01@AEBV01@@Z
1E5990 - ??4RemovePetBonusFxPakPacket@GAME@@QEAAAEAV01@AEBV01@@Z
1EA1C0 - ??4RemovePetBonusPacket@GAME@@QEAAAEAV01@AEBV01@@Z
3B320 - ??4RequestAllyAttackConfigCmd@GAME@@QEAAAEAV01@AEBV01@@Z
44E1A0 - ??4RequestAllyAttackConfigCmdPacket@GAME@@QEAAAEAV01@AEBV01@@Z
3E640 - ??4RequestAllyMoveConfigCmd@GAME@@QEAAAEAV01@AEBV01@@Z
44E280 - ??4RequestAllyMoveConfigCmdPacket@GAME@@QEAAAEAV01@AEBV01@@Z
1E6E60 - ??4RequestDungeonDataPacket@GAME@@QEAAAEAV01@AEBV01@@Z
1E6E60 - ??4RequestSurvivalModeDataPacket@GAME@@QEAAAEAV01@AEBV01@@Z
3B860 - ??4ResetAttributePointsConfigCmd@GAME@@QEAAAEAV01@AEBV01@@Z
44C690 - ??4ResetAttributesConfigCmdPacket@GAME@@QEAAAEAV01@AEBV01@@Z
453390 - ??4RespawnPacket@GAME@@QEAAAEAV01@AEBV01@@Z
145CC0 - ??4RetaliationAttributeAbsMod_Aether@GAME@@QEAAAEAV01@$$QEAV01@@Z
145C80 - ??4RetaliationAttributeAbsMod_Aether@GAME@@QEAAAEAV01@AEBV01@@Z
145CC0 - ??4RetaliationAttributeAbsMod_Chaos@GAME@@QEAAAEAV01@$$QEAV01@@Z
145C80 - ??4RetaliationAttributeAbsMod_Chaos@GAME@@QEAAAEAV01@AEBV01@@Z
145CC0 - ??4RetaliationAttributeAbsMod_Cold@GAME@@QEAAAEAV01@$$QEAV01@@Z
145C80 - ??4RetaliationAttributeAbsMod_Cold@GAME@@QEAAAEAV01@AEBV01@@Z
145CC0 - ??4RetaliationAttributeAbsMod_DamageMultiplier@GAME@@QEAAAEAV01@$$QEAV01@@Z
145C80 - ??4RetaliationAttributeAbsMod_DamageMultiplier@GAME@@QEAAAEAV01@AEBV01@@Z
145CC0 - ??4RetaliationAttributeAbsMod_Elemental@GAME@@QEAAAEAV01@$$QEAV01@@Z
145C80 - ??4RetaliationAttributeAbsMod_Elemental@GAME@@QEAAAEAV01@AEBV01@@Z
145CC0 - ??4RetaliationAttributeAbsMod_Fire@GAME@@QEAAAEAV01@$$QEAV01@@Z
145C80 - ??4RetaliationAttributeAbsMod_Fire@GAME@@QEAAAEAV01@AEBV01@@Z
145CC0 - ??4RetaliationAttributeAbsMod_Knockdown@GAME@@QEAAAEAV01@$$QEAV01@@Z
145C80 - ??4RetaliationAttributeAbsMod_Knockdown@GAME@@QEAAAEAV01@AEBV01@@Z
145CC0 - ??4RetaliationAttributeAbsMod_Life@GAME@@QEAAAEAV01@$$QEAV01@@Z
145C80 - ??4RetaliationAttributeAbsMod_Life@GAME@@QEAAAEAV01@AEBV01@@Z
145CC0 - ??4RetaliationAttributeAbsMod_Lightning@GAME@@QEAAAEAV01@$$QEAV01@@Z
145C80 - ??4RetaliationAttributeAbsMod_Lightning@GAME@@QEAAAEAV01@AEBV01@@Z
145CC0 - ??4RetaliationAttributeAbsMod_Physical@GAME@@QEAAAEAV01@$$QEAV01@@Z
145C80 - ??4RetaliationAttributeAbsMod_Physical@GAME@@QEAAAEAV01@AEBV01@@Z
145CC0 - ??4RetaliationAttributeAbsMod_Pierce@GAME@@QEAAAEAV01@$$QEAV01@@Z
145C80 - ??4RetaliationAttributeAbsMod_Pierce@GAME@@QEAAAEAV01@AEBV01@@Z
145CC0 - ??4RetaliationAttributeAbsMod_PierceRatio@GAME@@QEAAAEAV01@$$QEAV01@@Z
145C80 - ??4RetaliationAttributeAbsMod_PierceRatio@GAME@@QEAAAEAV01@AEBV01@@Z
145CC0 - ??4RetaliationAttributeAbsMod_Poison@GAME@@QEAAAEAV01@$$QEAV01@@Z
145C80 - ??4RetaliationAttributeAbsMod_Poison@GAME@@QEAAAEAV01@AEBV01@@Z
145CC0 - ??4RetaliationAttributeAbsMod_Sleep@GAME@@QEAAAEAV01@$$QEAV01@@Z
145C80 - ??4RetaliationAttributeAbsMod_Sleep@GAME@@QEAAAEAV01@AEBV01@@Z
145CC0 - ??4RetaliationAttributeAbsMod_Stun@GAME@@QEAAAEAV01@$$QEAV01@@Z
145C80 - ??4RetaliationAttributeAbsMod_Stun@GAME@@QEAAAEAV01@AEBV01@@Z
145CC0 - ??4RetaliationAttributeAbsMod_TotalDamageModifier@GAME@@QEAAAEAV01@$$QEAV01@@Z
145C80 - ??4RetaliationAttributeAbsMod_TotalDamageModifier@GAME@@QEAAAEAV01@AEBV01@@Z
142DB0 - ??4RetaliationAttributeAbs_Aether@GAME@@QEAAAEAV01@$$QEAV01@@Z
142D50 - ??4RetaliationAttributeAbs_Aether@GAME@@QEAAAEAV01@AEBV01@@Z
142DB0 - ??4RetaliationAttributeAbs_Chaos@GAME@@QEAAAEAV01@$$QEAV01@@Z
142D50 - ??4RetaliationAttributeAbs_Chaos@GAME@@QEAAAEAV01@AEBV01@@Z
142DB0 - ??4RetaliationAttributeAbs_Cold@GAME@@QEAAAEAV01@$$QEAV01@@Z
142D50 - ??4RetaliationAttributeAbs_Cold@GAME@@QEAAAEAV01@AEBV01@@Z
142DB0 - ??4RetaliationAttributeAbs_Confusion@GAME@@QEAAAEAV01@$$QEAV01@@Z
142D50 - ??4RetaliationAttributeAbs_Confusion@GAME@@QEAAAEAV01@AEBV01@@Z
142DB0 - ??4RetaliationAttributeAbs_Convert@GAME@@QEAAAEAV01@$$QEAV01@@Z
142D50 - ??4RetaliationAttributeAbs_Convert@GAME@@QEAAAEAV01@AEBV01@@Z
142DB0 - ??4RetaliationAttributeAbs_ElementalDamage@GAME@@QEAAAEAV01@$$QEAV01@@Z
142D50 - ??4RetaliationAttributeAbs_ElementalDamage@GAME@@QEAAAEAV01@AEBV01@@Z
142DB0 - ??4RetaliationAttributeAbs_Fear@GAME@@QEAAAEAV01@$$QEAV01@@Z
142D50 - ??4RetaliationAttributeAbs_Fear@GAME@@QEAAAEAV01@AEBV01@@Z
142DB0 - ??4RetaliationAttributeAbs_Fire@GAME@@QEAAAEAV01@$$QEAV01@@Z
142D50 - ??4RetaliationAttributeAbs_Fire@GAME@@QEAAAEAV01@AEBV01@@Z
142DB0 - ??4RetaliationAttributeAbs_Life@GAME@@QEAAAEAV01@$$QEAV01@@Z
142D50 - ??4RetaliationAttributeAbs_Life@GAME@@QEAAAEAV01@AEBV01@@Z
142DB0 - ??4RetaliationAttributeAbs_Lightning@GAME@@QEAAAEAV01@$$QEAV01@@Z
142D50 - ??4RetaliationAttributeAbs_Lightning@GAME@@QEAAAEAV01@AEBV01@@Z
142DB0 - ??4RetaliationAttributeAbs_PercentCurrentLife@GAME@@QEAAAEAV01@$$QEAV01@@Z
142D50 - ??4RetaliationAttributeAbs_PercentCurrentLife@GAME@@QEAAAEAV01@AEBV01@@Z
142DB0 - ??4RetaliationAttributeAbs_Physical@GAME@@QEAAAEAV01@$$QEAV01@@Z
142D50 - ??4RetaliationAttributeAbs_Physical@GAME@@QEAAAEAV01@AEBV01@@Z
142DB0 - ??4RetaliationAttributeAbs_Pierce@GAME@@QEAAAEAV01@$$QEAV01@@Z
142D50 - ??4RetaliationAttributeAbs_Pierce@GAME@@QEAAAEAV01@AEBV01@@Z
142DB0 - ??4RetaliationAttributeAbs_Poison@GAME@@QEAAAEAV01@$$QEAV01@@Z
142D50 - ??4RetaliationAttributeAbs_Poison@GAME@@QEAAAEAV01@AEBV01@@Z
144030 - ??4RetaliationAttributeDurBonus@GAME@@QEAAAEAV01@$$QEAV01@@Z
143FE0 - ??4RetaliationAttributeDurBonus@GAME@@QEAAAEAV01@AEBV01@@Z
147590 - ??4RetaliationAttributeDurMod_Aether@GAME@@QEAAAEAV01@$$QEAV01@@Z
147540 - ??4RetaliationAttributeDurMod_Aether@GAME@@QEAAAEAV01@AEBV01@@Z
147590 - ??4RetaliationAttributeDurMod_AttackSpeed@GAME@@QEAAAEAV01@$$QEAV01@@Z
147540 - ??4RetaliationAttributeDurMod_AttackSpeed@GAME@@QEAAAEAV01@AEBV01@@Z
147590 - ??4RetaliationAttributeDurMod_Bleeding@GAME@@QEAAAEAV01@$$QEAV01@@Z
147540 - ??4RetaliationAttributeDurMod_Bleeding@GAME@@QEAAAEAV01@AEBV01@@Z
147590 - ??4RetaliationAttributeDurMod_Chaos@GAME@@QEAAAEAV01@$$QEAV01@@Z
147540 - ??4RetaliationAttributeDurMod_Chaos@GAME@@QEAAAEAV01@AEBV01@@Z
147590 - ??4RetaliationAttributeDurMod_Cold@GAME@@QEAAAEAV01@$$QEAV01@@Z
147540 - ??4RetaliationAttributeDurMod_Cold@GAME@@QEAAAEAV01@AEBV01@@Z
147590 - ??4RetaliationAttributeDurMod_DefensiveAbility@GAME@@QEAAAEAV01@$$QEAV01@@Z
147540 - ??4RetaliationAttributeDurMod_DefensiveAbility@GAME@@QEAAAEAV01@AEBV01@@Z
147590 - ??4RetaliationAttributeDurMod_Fire@GAME@@QEAAAEAV01@$$QEAV01@@Z
147540 - ??4RetaliationAttributeDurMod_Fire@GAME@@QEAAAEAV01@AEBV01@@Z
147590 - ??4RetaliationAttributeDurMod_Life@GAME@@QEAAAEAV01@$$QEAV01@@Z
147540 - ??4RetaliationAttributeDurMod_Life@GAME@@QEAAAEAV01@AEBV01@@Z
147590 - ??4RetaliationAttributeDurMod_LifeLeach@GAME@@QEAAAEAV01@$$QEAV01@@Z
147540 - ??4RetaliationAttributeDurMod_LifeLeach@GAME@@QEAAAEAV01@AEBV01@@Z
147590 - ??4RetaliationAttributeDurMod_Lightning@GAME@@QEAAAEAV01@$$QEAV01@@Z
147540 - ??4RetaliationAttributeDurMod_Lightning@GAME@@QEAAAEAV01@AEBV01@@Z
147590 - ??4RetaliationAttributeDurMod_ManaLeach@GAME@@QEAAAEAV01@$$QEAV01@@Z
147540 - ??4RetaliationAttributeDurMod_ManaLeach@GAME@@QEAAAEAV01@AEBV01@@Z
147590 - ??4RetaliationAttributeDurMod_OffensiveAbility@GAME@@QEAAAEAV01@$$QEAV01@@Z
147540 - ??4RetaliationAttributeDurMod_OffensiveAbility@GAME@@QEAAAEAV01@AEBV01@@Z
147590 - ??4RetaliationAttributeDurMod_OffensiveReduction@GAME@@QEAAAEAV01@$$QEAV01@@Z
147540 - ??4RetaliationAttributeDurMod_OffensiveReduction@GAME@@QEAAAEAV01@AEBV01@@Z
147590 - ??4RetaliationAttributeDurMod_Physical@GAME@@QEAAAEAV01@$$QEAV01@@Z
147540 - ??4RetaliationAttributeDurMod_Physical@GAME@@QEAAAEAV01@AEBV01@@Z
147590 - ??4RetaliationAttributeDurMod_Poison@GAME@@QEAAAEAV01@$$QEAV01@@Z
147540 - ??4RetaliationAttributeDurMod_Poison@GAME@@QEAAAEAV01@AEBV01@@Z
147590 - ??4RetaliationAttributeDurMod_RunSpeed@GAME@@QEAAAEAV01@$$QEAV01@@Z
147540 - ??4RetaliationAttributeDurMod_RunSpeed@GAME@@QEAAAEAV01@AEBV01@@Z
147590 - ??4RetaliationAttributeDurMod_SpellCastSpeed@GAME@@QEAAAEAV01@$$QEAV01@@Z
147540 - ??4RetaliationAttributeDurMod_SpellCastSpeed@GAME@@QEAAAEAV01@AEBV01@@Z
144030 - ??4RetaliationAttributeDur_Aether@GAME@@QEAAAEAV01@$$QEAV01@@Z
143FE0 - ??4RetaliationAttributeDur_Aether@GAME@@QEAAAEAV01@AEBV01@@Z
144030 - ??4RetaliationAttributeDur_AttackSpeed@GAME@@QEAAAEAV01@$$QEAV01@@Z
143FE0 - ??4RetaliationAttributeDur_AttackSpeed@GAME@@QEAAAEAV01@AEBV01@@Z
144030 - ??4RetaliationAttributeDur_Bleeding@GAME@@QEAAAEAV01@$$QEAV01@@Z
143FE0 - ??4RetaliationAttributeDur_Bleeding@GAME@@QEAAAEAV01@AEBV01@@Z
144030 - ??4RetaliationAttributeDur_Chaos@GAME@@QEAAAEAV01@$$QEAV01@@Z
143FE0 - ??4RetaliationAttributeDur_Chaos@GAME@@QEAAAEAV01@AEBV01@@Z
144030 - ??4RetaliationAttributeDur_Cold@GAME@@QEAAAEAV01@$$QEAV01@@Z
143FE0 - ??4RetaliationAttributeDur_Cold@GAME@@QEAAAEAV01@AEBV01@@Z
144030 - ??4RetaliationAttributeDur_DefensiveAbility@GAME@@QEAAAEAV01@$$QEAV01@@Z
143FE0 - ??4RetaliationAttributeDur_DefensiveAbility@GAME@@QEAAAEAV01@AEBV01@@Z
144030 - ??4RetaliationAttributeDur_Fire@GAME@@QEAAAEAV01@$$QEAV01@@Z
143FE0 - ??4RetaliationAttributeDur_Fire@GAME@@QEAAAEAV01@AEBV01@@Z
144030 - ??4RetaliationAttributeDur_Life@GAME@@QEAAAEAV01@$$QEAV01@@Z
143FE0 - ??4RetaliationAttributeDur_Life@GAME@@QEAAAEAV01@AEBV01@@Z
144030 - ??4RetaliationAttributeDur_LifeLeach@GAME@@QEAAAEAV01@$$QEAV01@@Z
143FE0 - ??4RetaliationAttributeDur_LifeLeach@GAME@@QEAAAEAV01@AEBV01@@Z
144030 - ??4RetaliationAttributeDur_Lightning@GAME@@QEAAAEAV01@$$QEAV01@@Z
143FE0 - ??4RetaliationAttributeDur_Lightning@GAME@@QEAAAEAV01@AEBV01@@Z
144030 - ??4RetaliationAttributeDur_ManaLeach@GAME@@QEAAAEAV01@$$QEAV01@@Z
143FE0 - ??4RetaliationAttributeDur_ManaLeach@GAME@@QEAAAEAV01@AEBV01@@Z
144030 - ??4RetaliationAttributeDur_OffensiveAbility@GAME@@QEAAAEAV01@$$QEAV01@@Z
143FE0 - ??4RetaliationAttributeDur_OffensiveAbility@GAME@@QEAAAEAV01@AEBV01@@Z
144030 - ??4RetaliationAttributeDur_OffensiveReduction@GAME@@QEAAAEAV01@$$QEAV01@@Z
143FE0 - ??4RetaliationAttributeDur_OffensiveReduction@GAME@@QEAAAEAV01@AEBV01@@Z
144030 - ??4RetaliationAttributeDur_Physical@GAME@@QEAAAEAV01@$$QEAV01@@Z
143FE0 - ??4RetaliationAttributeDur_Physical@GAME@@QEAAAEAV01@AEBV01@@Z
144030 - ??4RetaliationAttributeDur_Poison@GAME@@QEAAAEAV01@$$QEAV01@@Z
143FE0 - ??4RetaliationAttributeDur_Poison@GAME@@QEAAAEAV01@AEBV01@@Z
144030 - ??4RetaliationAttributeDur_RunSpeed@GAME@@QEAAAEAV01@$$QEAV01@@Z
143FE0 - ??4RetaliationAttributeDur_RunSpeed@GAME@@QEAAAEAV01@AEBV01@@Z
144030 - ??4RetaliationAttributeDur_SpellCastSpeed@GAME@@QEAAAEAV01@$$QEAV01@@Z
143FE0 - ??4RetaliationAttributeDur_SpellCastSpeed@GAME@@QEAAAEAV01@AEBV01@@Z
142DB0 - ??4RetaliationAttributeInfluence@GAME@@QEAAAEAV01@$$QEAV01@@Z
142D50 - ??4RetaliationAttributeInfluence@GAME@@QEAAAEAV01@AEBV01@@Z
142DB0 - ??4RetaliationAttributeReflex@GAME@@QEAAAEAV01@$$QEAV01@@Z
142D50 - ??4RetaliationAttributeReflex@GAME@@QEAAAEAV01@AEBV01@@Z
142DB0 - ??4RetaliationAttributeReflex_Freeze@GAME@@QEAAAEAV01@$$QEAV01@@Z
142D50 - ??4RetaliationAttributeReflex_Freeze@GAME@@QEAAAEAV01@AEBV01@@Z
142DB0 - ??4RetaliationAttributeReflex_Knockdown@GAME@@QEAAAEAV01@$$QEAV01@@Z
142D50 - ??4RetaliationAttributeReflex_Knockdown@GAME@@QEAAAEAV01@AEBV01@@Z
142DB0 - ??4RetaliationAttributeReflex_Petrify@GAME@@QEAAAEAV01@$$QEAV01@@Z
142D50 - ??4RetaliationAttributeReflex_Petrify@GAME@@QEAAAEAV01@AEBV01@@Z
142DB0 - ??4RetaliationAttributeReflex_Sleep@GAME@@QEAAAEAV01@$$QEAV01@@Z
142D50 - ??4RetaliationAttributeReflex_Sleep@GAME@@QEAAAEAV01@AEBV01@@Z
142DB0 - ??4RetaliationAttributeReflex_Stun@GAME@@QEAAAEAV01@$$QEAV01@@Z
142D50 - ??4RetaliationAttributeReflex_Stun@GAME@@QEAAAEAV01@AEBV01@@Z
142DB0 - ??4RetaliationAttributeReflex_Trap@GAME@@QEAAAEAV01@$$QEAV01@@Z
142D50 - ??4RetaliationAttributeReflex_Trap@GAME@@QEAAAEAV01@AEBV01@@Z
31990 - ??4RetaliationAttributeStore@GAME@@QEAAAEAV01@$$QEAV01@@Z
31990 - ??4RetaliationAttributeStore@GAME@@QEAAAEAV01@AEBV01@@Z
31990 - ??4RetaliationAttributeStore_Equipment@GAME@@QEAAAEAV01@$$QEAV01@@Z
31990 - ??4RetaliationAttributeStore_Equipment@GAME@@QEAAAEAV01@AEBV01@@Z
31990 - ??4RetaliationAttributeStore_Max@GAME@@QEAAAEAV01@$$QEAV01@@Z
31990 - ??4RetaliationAttributeStore_Max@GAME@@QEAAAEAV01@AEBV01@@Z
31990 - ??4RetaliationAttributeStore_Min@GAME@@QEAAAEAV01@$$QEAV01@@Z
31990 - ??4RetaliationAttributeStore_Min@GAME@@QEAAAEAV01@AEBV01@@Z
31990 - ??4RetaliationAttributeStore_Skill@GAME@@QEAAAEAV01@$$QEAV01@@Z
31990 - ??4RetaliationAttributeStore_Skill@GAME@@QEAAAEAV01@AEBV01@@Z
452460 - ??4RotateActionPacket@GAME@@QEAAAEAV01@AEBV01@@Z
12C9F0 - ??4ScriptableAction@GAME@@QEAAAEAV01@AEBV01@@Z
44AB10 - ??4ScriptableActionCollection@GAME@@QEAAAEAV01@AEBV01@@Z
12B230 - ??4ScriptableAction_BeginQuestTask@GAME@@QEAAAEAV01@$$QEAV01@@Z
12B1E0 - ??4ScriptableAction_BeginQuestTask@GAME@@QEAAAEAV01@AEBV01@@Z
3795D0 - ??4ScriptableAction_CastSkill@GAME@@QEAAAEAV01@$$QEAV01@@Z
379590 - ??4ScriptableAction_CastSkill@GAME@@QEAAAEAV01@AEBV01@@Z
3488D0 - ??4ScriptableAction_GenerateRandomValue@GAME@@QEAAAEAV01@AEBV01@@Z
270770 - ??4ScriptableAction_GiveAttribPoint@GAME@@QEAAAEAV01@$$QEAV01@@Z
270770 - ??4ScriptableAction_GiveAttribPoint@GAME@@QEAAAEAV01@AEBV01@@Z
270770 - ??4ScriptableAction_GiveDevotion@GAME@@QEAAAEAV01@$$QEAV01@@Z
270770 - ??4ScriptableAction_GiveDevotion@GAME@@QEAAAEAV01@AEBV01@@Z
270770 - ??4ScriptableAction_GiveExperience@GAME@@QEAAAEAV01@$$QEAV01@@Z
270770 - ??4ScriptableAction_GiveExperience@GAME@@QEAAAEAV01@AEBV01@@Z
379230 - ??4ScriptableAction_GiveItem@GAME@@QEAAAEAV01@AEBV01@@Z
270770 - ??4ScriptableAction_GiveLevel@GAME@@QEAAAEAV01@$$QEAV01@@Z
270770 - ??4ScriptableAction_GiveLevel@GAME@@QEAAAEAV01@AEBV01@@Z
270770 - ??4ScriptableAction_GiveMoney@GAME@@QEAAAEAV01@$$QEAV01@@Z
270770 - ??4ScriptableAction_GiveMoney@GAME@@QEAAAEAV01@AEBV01@@Z
3793A0 - ??4ScriptableAction_GiveRandomItem@GAME@@QEAAAEAV01@AEBV01@@Z
270770 - ??4ScriptableAction_GiveSkillPoint@GAME@@QEAAAEAV01@$$QEAV01@@Z
270770 - ??4ScriptableAction_GiveSkillPoint@GAME@@QEAAAEAV01@AEBV01@@Z
270770 - ??4ScriptableAction_GiveTribute@GAME@@QEAAAEAV01@$$QEAV01@@Z
270770 - ??4ScriptableAction_GiveTribute@GAME@@QEAAAEAV01@AEBV01@@Z
379870 - ??4ScriptableAction_PlayVideo@GAME@@QEAAAEAV01@$$QEAV01@@Z
379820 - ??4ScriptableAction_PlayVideo@GAME@@QEAAAEAV01@AEBV01@@Z
270770 - ??4ScriptableAction_UnlockTutorial@GAME@@QEAAAEAV01@$$QEAV01@@Z
270770 - ??4ScriptableAction_UnlockTutorial@GAME@@QEAAAEAV01@AEBV01@@Z
380470 - ??4ScriptableCondition@GAME@@QEAAAEAV01@AEBV01@@Z
44B900 - ??4ScriptableConditionCollection@GAME@@QEAAAEAV01@AEBV01@@Z
37FB60 - ??4ScriptableCondition_HasFaction@GAME@@QEAAAEAV01@$$QEAV01@@Z
37FAF0 - ??4ScriptableCondition_HasFaction@GAME@@QEAAAEAV01@AEBV01@@Z
451F60 - ??4ServerSpawnCompletePacket@GAME@@QEAAAEAV01@AEBV01@@Z
3E750 - ??4SetCausesAngerConfigCmd@GAME@@QEAAAEAV01@AEBV01@@Z
44E400 - ??4SetCausesAngerConfigCmdPacket@GAME@@QEAAAEAV01@AEBV01@@Z
1F02A0 - ??4SetDungeonTimerPacket@GAME@@QEAAAEAV01@AEBV01@@Z
3B420 - ??4SetFactionConfigCmd@GAME@@QEAAAEAV01@AEBV01@@Z
44BDC0 - ??4SetFactionConfigCmdPacket@GAME@@QEAAAEAV01@AEBV01@@Z
3E750 - ??4SetInvincibleConfigCmd@GAME@@QEAAAEAV01@AEBV01@@Z
44E400 - ??4SetInvincibleConfigCmdPacket@GAME@@QEAAAEAV01@AEBV01@@Z
1EA570 - ??4SetMutatorPacket@GAME@@QEAAAEAV01@AEBV01@@Z
1EA000 - ??4SetPetBonusPacket@GAME@@QEAAAEAV01@AEBV01@@Z
1E6E60 - ??4SetSurvivalRestartsPacket@GAME@@QEAAAEAV01@AEBV01@@Z
1F0520 - ??4SetSurvivalTimerPacket@GAME@@QEAAAEAV01@AEBV01@@Z
1E6E60 - ??4SetSurvivalWaveTierPacket@GAME@@QEAAAEAV01@AEBV01@@Z
3E750 - ??4ShowCharacterConfigCmd@GAME@@QEAAAEAV01@AEBV01@@Z
44E400 - ??4ShowCharacterConfigCmdPacket@GAME@@QEAAAEAV01@AEBV01@@Z
1E7C40 - ??4ShowEntityPacket@GAME@@QEAAAEAV01@AEBV01@@Z
24980 - ??4ShrineHookPack@GAME@@QEAAAEAV01@AEBV01@@Z
1E5FF0 - ??4ShrineRewardPacket@GAME@@QEAAAEAV01@AEBV01@@Z
1F12F0 - ??4SinglePlayerBasicInfoPacket@GAME@@QEAAAEAV01@AEBV01@@Z
1F1330 - ??4SinglePlayerHeartbeatPacket@GAME@@QEAAAEAV01@AEBV01@@Z
6BFA0 - ??4Skill@GAME@@QEAAAEAV01@AEBV01@@Z
40BE0 - ??4SkillActivated@GAME@@QEAAAEAV01@AEBV01@@Z
410E0 - ??4SkillActivatedBuffOther@GAME@@QEAAAEAV01@$$QEAV01@@Z
410E0 - ??4SkillActivatedBuffOther@GAME@@QEAAAEAV01@AEBV01@@Z
40FF0 - ??4SkillActivatedBuffSelf@GAME@@QEAAAEAV01@$$QEAV01@@Z
40FF0 - ??4SkillActivatedBuffSelf@GAME@@QEAAAEAV01@AEBV01@@Z
40EC0 - ??4SkillActivatedSpell@GAME@@QEAAAEAV01@AEBV01@@Z
40D70 - ??4SkillActivatedWeapon@GAME@@QEAAAEAV01@$$QEAV01@@Z
40D70 - ??4SkillActivatedWeapon@GAME@@QEAAAEAV01@AEBV01@@Z
41200 - ??4SkillActivatedWeaponPool@GAME@@QEAAAEAV01@$$QEAV01@@Z
41200 - ??4SkillActivatedWeaponPool@GAME@@QEAAAEAV01@AEBV01@@Z
410E0 - ??4SkillActivated_Suicide@GAME@@QEAAAEAV01@AEBV01@@Z
446F10 - ??4SkillActiveState@GAME@@QEAAAEAV01@AEBV01@@Z
3CB00 - ??4SkillActiveStateUpdateConfigCmd@GAME@@QEAAAEAV01@AEBV01@@Z
44D0C0 - ??4SkillActiveStateUpdateConfigCmdPacket@GAME@@QEAAAEAV01@AEBV01@@Z
40A0C0 - ??4SkillAttribute@GAME@@QEAAAEAV01@AEBV01@@Z
446F60 - ??4SkillAttributeAccumulator@GAME@@QEAAAEAV01@AEBV01@@Z
409CA0 - ??4SkillAttributeMod@GAME@@QEAAAEAV01@$$QEAV01@@Z
409CA0 - ??4SkillAttributeMod@GAME@@QEAAAEAV01@AEBV01@@Z
409CA0 - ??4SkillAttributeMod_CooldownReduction@GAME@@QEAAAEAV01@$$QEAV01@@Z
409CA0 - ??4SkillAttributeMod_CooldownReduction@GAME@@QEAAAEAV01@AEBV01@@Z
409CA0 - ??4SkillAttributeMod_ManaCostReduction@GAME@@QEAAAEAV01@$$QEAV01@@Z
409CA0 - ??4SkillAttributeMod_ManaCostReduction@GAME@@QEAAAEAV01@AEBV01@@Z
31950 - ??4SkillAttributeStore@GAME@@QEAAAEAV01@AEBV01@@Z
31950 - ??4SkillAttributeStore_Equipment@GAME@@QEAAAEAV01@$$QEAV01@@Z
31950 - ??4SkillAttributeStore_Equipment@GAME@@QEAAAEAV01@AEBV01@@Z
31950 - ??4SkillAttributeStore_Max@GAME@@QEAAAEAV01@$$QEAV01@@Z
31950 - ??4SkillAttributeStore_Max@GAME@@QEAAAEAV01@AEBV01@@Z
31950 - ??4SkillAttributeStore_Min@GAME@@QEAAAEAV01@$$QEAV01@@Z
31950 - ??4SkillAttributeStore_Min@GAME@@QEAAAEAV01@AEBV01@@Z
31950 - ??4SkillAttributeStore_Skill@GAME@@QEAAAEAV01@$$QEAV01@@Z
31950 - ??4SkillAttributeStore_Skill@GAME@@QEAAAEAV01@AEBV01@@Z
409CA0 - ??4SkillAttributeVal@GAME@@QEAAAEAV01@$$QEAV01@@Z
409CA0 - ??4SkillAttributeVal@GAME@@QEAAAEAV01@AEBV01@@Z
409CA0 - ??4SkillAttributeVal_CooldownReduction@GAME@@QEAAAEAV01@$$QEAV01@@Z
409CA0 - ??4SkillAttributeVal_CooldownReduction@GAME@@QEAAAEAV01@AEBV01@@Z
409CA0 - ??4SkillAttributeVal_ManaCostReduction@GAME@@QEAAAEAV01@$$QEAV01@@Z
409CA0 - ??4SkillAttributeVal_ManaCostReduction@GAME@@QEAAAEAV01@AEBV01@@Z
409CA0 - ??4SkillAttributeVal_ProjectileSpeedModifier@GAME@@QEAAAEAV01@$$QEAV01@@Z
409CA0 - ??4SkillAttributeVal_ProjectileSpeedModifier@GAME@@QEAAAEAV01@AEBV01@@Z
3B320 - ??4SkillAugmentUpdateConfigCmd@GAME@@QEAAAEAV01@AEBV01@@Z
44BD20 - ??4SkillAugmentUpdateConfigCmdPacket@GAME@@QEAAAEAV01@AEBV01@@Z
284480 - ??4SkillAutoCastController@GAME@@QEAAAEAV01@AEBV01@@Z
B8C10 - ??4SkillBuff@GAME@@QEAAAEAV01@AEBV01@@Z
B8DA0 - ??4SkillBuff_Passive@GAME@@QEAAAEAV01@AEBV01@@Z
B8DA0 - ??4SkillBuff_PassiveCharged@GAME@@QEAAAEAV01@AEBV01@@Z
B8DA0 - ??4SkillBuff_PassiveEndless@GAME@@QEAAAEAV01@AEBV01@@Z
B9280 - ??4SkillBuff_PassiveShield@GAME@@QEAAAEAV01@AEBV01@@Z
6EDF0 - ??4SkillChanneled@GAME@@QEAAAEAV01@$$QEAV01@@Z
6EDF0 - ??4SkillChanneled@GAME@@QEAAAEAV01@AEBV01@@Z
14820 - ??4SkillManagerBase@GAME@@QEAAAEAV01@AEBV01@@Z
14820 - ??4SkillManagerLite@GAME@@QEAAAEAV01@AEBV01@@Z
B63F0 - ??4SkillOnDeath@GAME@@QEAAAEAV01@$$QEAV01@@Z
B63F0 - ??4SkillOnDeath@GAME@@QEAAAEAV01@AEBV01@@Z
450700 - ??4SkillProfile@GAME@@QEAAAEAV01@AEBV01@@Z
B93C0 - ??4SkillSecondary@GAME@@QEAAAEAV01@AEBV01@@Z
BA1F0 - ??4SkillSecondary_AttackRadius@GAME@@QEAAAEAV01@AEBV01@@Z
B93C0 - ??4SkillSecondary_Bonus@GAME@@QEAAAEAV01@AEBV01@@Z
B96E0 - ??4SkillSecondary_BuffSelfDuration@GAME@@QEAAAEAV01@AEBV01@@Z
B98A0 - ??4SkillSecondary_ChainBonus@GAME@@QEAAAEAV01@AEBV01@@Z
B9AB0 - ??4SkillSecondary_ChainLightning@GAME@@QEAAAEAV01@AEBV01@@Z
B9C90 - ??4SkillSecondary_ForkLightning@GAME@@QEAAAEAV01@AEBV01@@Z
BAA50 - ??4SkillSecondary_OnHitBuffRadius@GAME@@QEAAAEAV01@AEBV01@@Z
BA870 - ??4SkillSecondary_OnKillAttackRadius@GAME@@QEAAAEAV01@AEBV01@@Z
B9F90 - ??4SkillSecondary_PetModifier@GAME@@QEAAAEAV01@AEBV01@@Z
B93C0 - ??4SkillSecondary_PetSpawn@GAME@@QEAAAEAV01@AEBV01@@Z
BA550 - ??4SkillSecondary_Tether@GAME@@QEAAAEAV01@AEBV01@@Z
424140 - ??4SkillServicesBase@GAME@@QEAAAEAV01@AEBV01@@Z
410DF0 - ??4SkillServices_Character@GAME@@QEAAAEAV01@AEBV01@@Z
446F00 - ??4SkillState@GAME@@QEAAAEAV01@AEBV01@@Z
3CA00 - ??4SkillStateUpdateConfigCmd@GAME@@QEAAAEAV01@AEBV01@@Z
44D000 - ??4SkillStateUpdateConfigCmdPacket@GAME@@QEAAAEAV01@AEBV01@@Z
3B6A0 - ??4SkillTargetResultConfigCmd@GAME@@QEAAAEAV01@AEBV01@@Z
44C540 - ??4SkillTargetResultConfigCmdPacket@GAME@@QEAAAEAV01@AEBV01@@Z
B0CA0 - ??4Skill_AktaiosLightOfRa@GAME@@QEAAAEAV01@AEBV01@@Z
B1120 - ??4Skill_AktaiosMirage@GAME@@QEAAAEAV01@AEBV01@@Z
40EC0 - ??4Skill_AttackBuff@GAME@@QEAAAEAV01@AEBV01@@Z
B1380 - ??4Skill_AttackBuffRadius@GAME@@QEAAAEAV01@AEBV01@@Z
B1530 - ??4Skill_AttackChain@GAME@@QEAAAEAV01@AEBV01@@Z
40D70 - ??4Skill_AttackInherent@GAME@@QEAAAEAV01@AEBV01@@Z
B3FA0 - ??4Skill_AttackPathCharge@GAME@@QEAAAEAV01@AEBV01@@Z
40EC0 - ??4Skill_AttackProjectile@GAME@@QEAAAEAV01@AEBV01@@Z
6EBE0 - ??4Skill_AttackProjectileAreaEffect@GAME@@QEAAAEAV01@AEBV01@@Z
B1950 - ??4Skill_AttackProjectileBurst@GAME@@QEAAAEAV01@AEBV01@@Z
6EBE0 - ??4Skill_AttackProjectileChain@GAME@@QEAAAEAV01@AEBV01@@Z
B1BC0 - ??4Skill_AttackProjectileDebuf@GAME@@QEAAAEAV01@AEBV01@@Z
B1D50 - ??4Skill_AttackProjectileDrop@GAME@@QEAAAEAV01@AEBV01@@Z
B2090 - ??4Skill_AttackProjectileFan@GAME@@QEAAAEAV01@AEBV01@@Z
BAD70 - ??4Skill_AttackProjectileMultiHit@GAME@@QEAAAEAV01@AEBV01@@Z
B1F30 - ??4Skill_AttackProjectileRing@GAME@@QEAAAEAV01@AEBV01@@Z
40EC0 - ??4Skill_AttackProjectileSpawnPet@GAME@@QEAAAEAV01@AEBV01@@Z
B2440 - ??4Skill_AttackRadius@GAME@@QEAAAEAV01@AEBV01@@Z
BB0D0 - ??4Skill_AttackRadiusDisengage@GAME@@QEAAAEAV01@AEBV01@@Z
6EDF0 - ??4Skill_AttackRadiusLeap@GAME@@QEAAAEAV01@AEBV01@@Z
B2990 - ??4Skill_AttackRadiusLightning2@GAME@@QEAAAEAV01@AEBV01@@Z
B26E0 - ??4Skill_AttackRadiusLightning@GAME@@QEAAAEAV01@AEBV01@@Z
B2B50 - ??4Skill_AttackRadiusLightningSpawnPet@GAME@@QEAAAEAV01@AEBV01@@Z
BC3A0 - ??4Skill_AttackRadiusSpin@GAME@@QEAAAEAV01@AEBV01@@Z
6EDF0 - ??4Skill_AttackRadiusTeleport@GAME@@QEAAAEAV01@AEBV01@@Z
6EBE0 - ??4Skill_AttackSpell@GAME@@QEAAAEAV01@AEBV01@@Z
BB720 - ??4Skill_AttackSpellBeam@GAME@@QEAAAEAV01@AEBV01@@Z
B2D20 - ??4Skill_AttackSpellChaos@GAME@@QEAAAEAV01@AEBV01@@Z
B2F00 - ??4Skill_AttackSpellChaosSpawnPet@GAME@@QEAAAEAV01@AEBV01@@Z
BBEF0 - ??4Skill_AttackSpellDrain@GAME@@QEAAAEAV01@AEBV01@@Z
B3C70 - ??4Skill_AttackSpellReflectLink@GAME@@QEAAAEAV01@AEBV01@@Z
B0CA0 - ??4Skill_AttackSpellTeleport@GAME@@QEAAAEAV01@AEBV01@@Z
B0CA0 - ??4Skill_AttackSpellTeleportSelf@GAME@@QEAAAEAV01@AEBV01@@Z
AD800 - ??4Skill_AttackWeapon@GAME@@QEAAAEAV01@AEBV01@@Z
AD950 - ??4Skill_AttackWeaponBlink@GAME@@QEAAAEAV01@AEBV01@@Z
AD950 - ??4Skill_AttackWeaponCharge@GAME@@QEAAAEAV01@AEBV01@@Z
B3950 - ??4Skill_AttackWeaponRangedSpread@GAME@@QEAAAEAV01@AEBV01@@Z
410E0 - ??4Skill_BuffOther@GAME@@QEAAAEAV01@AEBV01@@Z
B4AC0 - ??4Skill_BuffSelfColossus@GAME@@QEAAAEAV01@AEBV01@@Z
B4950 - ??4Skill_BuffSelfDuration@GAME@@QEAAAEAV01@AEBV01@@Z
B4950 - ??4Skill_BuffSelfInvulnerable@GAME@@QEAAAEAV01@AEBV01@@Z
B4D10 - ??4Skill_BuffSelfShield@GAME@@QEAAAEAV01@AEBV01@@Z
B4DD0 - ??4Skill_BuffSelfSick@GAME@@QEAAAEAV01@AEBV01@@Z
B47E0 - ??4Skill_BuffSelfToggled@GAME@@QEAAAEAV01@AEBV01@@Z
ADAB0 - ??4Skill_CerberusGeysers@GAME@@QEAAAEAV01@AEBV01@@Z
B44B0 - ??4Skill_ChargedBuffOther@GAME@@QEAAAEAV01@AEBV01@@Z
ADAB0 - ??4Skill_CharonGeysers@GAME@@QEAAAEAV01@AEBV01@@Z
B5160 - ??4Skill_DefensiveGround@GAME@@QEAAAEAV01@AEBV01@@Z
B5360 - ??4Skill_DefensiveLine@GAME@@QEAAAEAV01@AEBV01@@Z
B5000 - ??4Skill_DefensiveWall@GAME@@QEAAAEAV01@AEBV01@@Z
B1380 - ??4Skill_DispelMagic@GAME@@QEAAAEAV01@AEBV01@@Z
B54F0 - ??4Skill_DropProjectileTelekinesis@GAME@@QEAAAEAV01@AEBV01@@Z
40EC0 - ??4Skill_E3FauxAttack@GAME@@QEAAAEAV01@AEBV01@@Z
410E0 - ??4Skill_GiveBonus@GAME@@QEAAAEAV01@AEBV01@@Z
410E0 - ??4Skill_Kick@GAME@@QEAAAEAV01@$$QEAV01@@Z
410E0 - ??4Skill_Kick@GAME@@QEAAAEAV01@AEBV01@@Z
B5810 - ??4Skill_Mastery@GAME@@QEAAAEAV01@AEBV01@@Z
B5D20 - ??4Skill_MeleeModifier@GAME@@QEAAAEAV01@AEBV01@@Z
B5D20 - ??4Skill_MeleeModifierRadius@GAME@@QEAAAEAV01@AEBV01@@Z
B5B20 - ??4Skill_Modifier@GAME@@QEAAAEAV01@AEBV01@@Z
B6290 - ??4Skill_MonsterGenerator@GAME@@QEAAAEAV01@AEBV01@@Z
410E0 - ??4Skill_Move@GAME@@QEAAAEAV01@AEBV01@@Z
B63F0 - ??4Skill_OnDeathSpawnActor@GAME@@QEAAAEAV01@AEBV01@@Z
B6660 - ??4Skill_OnHitAttackRadius@GAME@@QEAAAEAV01@AEBV01@@Z
B6860 - ??4Skill_OnHitBuffSelf@GAME@@QEAAAEAV01@AEBV01@@Z
B6A80 - ??4Skill_OrmenosChainLaser@GAME@@QEAAAEAV01@AEBV01@@Z
B56E0 - ??4Skill_Passive@GAME@@QEAAAEAV01@AEBV01@@Z
B56E0 - ??4Skill_PassiveDualWieldWeapon@GAME@@QEAAAEAV01@AEBV01@@Z
B6D20 - ??4Skill_PassiveOnCritBuffSelf@GAME@@QEAAAEAV01@AEBV01@@Z
B6D20 - ??4Skill_PassiveOnHitBuffSelf@GAME@@QEAAAEAV01@AEBV01@@Z
B6EF0 - ??4Skill_PassiveOnLifeBuffSelf@GAME@@QEAAAEAV01@AEBV01@@Z
B7080 - ??4Skill_PassiveShield@GAME@@QEAAAEAV01@AEBV01@@Z
410E0 - ??4Skill_PetAttack@GAME@@QEAAAEAV01@AEBV01@@Z
410E0 - ??4Skill_PlayAttackAnimation@GAME@@QEAAAEAV01@AEBV01@@Z
B5D20 - ??4Skill_ProjectileModifier@GAME@@QEAAAEAV01@AEBV01@@Z
B5D20 - ??4Skill_ProjectileTransmuter@GAME@@QEAAAEAV01@AEBV01@@Z
B73F0 - ??4Skill_RefreshCooldown@GAME@@QEAAAEAV01@AEBV01@@Z
B5F70 - ??4Skill_RefreshCooldownModifier@GAME@@QEAAAEAV01@AEBV01@@Z
B7580 - ??4Skill_SpawnMegalesiosSpirit@GAME@@QEAAAEAV01@AEBV01@@Z
B0FD0 - ??4Skill_SpawnMiniPet@GAME@@QEAAAEAV01@AEBV01@@Z
B0E30 - ??4Skill_SpawnPet@GAME@@QEAAAEAV01@AEBV01@@Z
B0FD0 - ??4Skill_SpawnPetMonster@GAME@@QEAAAEAV01@AEBV01@@Z
B6110 - ??4Skill_SpawnPetTransmuter@GAME@@QEAAAEAV01@AEBV01@@Z
B0FD0 - ??4Skill_SpawnQuestPet@GAME@@QEAAAEAV01@AEBV01@@Z
40FF0 - ??4Skill_Teleport@GAME@@QEAAAEAV01@AEBV01@@Z
B5D20 - ??4Skill_Transmuter@GAME@@QEAAAEAV01@AEBV01@@Z
B7A10 - ??4Skill_TurretFireControl@GAME@@QEAAAEAV01@AEBV01@@Z
B7C80 - ??4Skill_TyphonSkillTransfer@GAME@@QEAAAEAV01@AEBV01@@Z
B8490 - ??4Skill_WPAttack@GAME@@QEAAAEAV01@AEBV01@@Z
B8490 - ??4Skill_WPAttack_BasicAttack@GAME@@QEAAAEAV01@AEBV01@@Z
B8490 - ??4Skill_WPAttack_ProjectileBurst@GAME@@QEAAAEAV01@AEBV01@@Z
B8630 - ??4Skill_WPAttack_RadialCrit@GAME@@QEAAAEAV01@AEBV01@@Z
41200 - ??4Skill_WeaponPool_BasicAttack@GAME@@QEAAAEAV01@AEBV01@@Z
B7FC0 - ??4Skill_WeaponPool_ChargedFinale@GAME@@QEAAAEAV01@AEBV01@@Z
B81B0 - ??4Skill_WeaponPool_ChargedLinear@GAME@@QEAAAEAV01@AEBV01@@Z
41200 - ??4Skill_WeaponPool_Default@GAME@@QEAAAEAV01@AEBV01@@Z
446F00 - ??4SoundAmbient@GAME@@QEAAAEAV01@AEBV01@@Z
3AA70 - ??4SoundPeriodic@GAME@@QEAAAEAV01@AEBV01@@Z
452D80 - ??4SpawnActionPacket@GAME@@QEAAAEAV01@AEBV01@@Z
40010 - ??4SpawnActorDeathHandler@GAME@@QEAAAEAV01@AEBV01@@Z
40300 - ??4SpawnMyBonesDeathHandler@GAME@@QEAAAEAV01@AEBV01@@Z
3C8A0 - ??4SpawnObjectConfigCmd@GAME@@QEAAAEAV01@AEBV01@@Z
44CEC0 - ??4SpawnObjectConfigCmdPacket@GAME@@QEAAAEAV01@AEBV01@@Z
451EE0 - ??4SpawnPlayerPacket@GAME@@QEAAAEAV01@AEBV01@@Z
41420 - ??4SpecialCharHandler@GAME@@QEAAAEAV01@AEBV01@@Z
418E0 - ??4SpecialCharHandler_FadeAwayFromPlayer@GAME@@QEAAAEAV01@AEBV01@@Z
41A10 - ??4SpecialCharHandler_FadeNearPlayer@GAME@@QEAAAEAV01@AEBV01@@Z
44BC70 - ??4SpecialFX@GAME@@QEAAAEAV01@AEBV01@@Z
4535A0 - ??4StartServerRespawnPacket@GAME@@QEAAAEAV01@AEBV01@@Z
1E5990 - ??4StartShrineProxyPacket@GAME@@QEAAAEAV01@AEBV01@@Z
3E850 - ??4StartStopDamageEffectConfigCmd@GAME@@QEAAAEAV01@AEBV01@@Z
44E350 - ??4StartStopDamageEffectConfigCmdPacket@GAME@@QEAAAEAV01@AEBV01@@Z
453490 - ??4StartTeleportPacket@GAME@@QEAAAEAV01@AEBV01@@Z
3B420 - ??4StaticShrineStateChangeConfigCmd@GAME@@QEAAAEAV01@AEBV01@@Z
44BDC0 - ??4StaticShrineStateChangeConfigCmdPacket@GAME@@QEAAAEAV01@AEBV01@@Z
1E6E60 - ??4StopVideoRequestPacket@GAME@@QEAAAEAV01@AEBV01@@Z
1F0570 - ??4SurvivalModeDataPacket@GAME@@QEAAAEAV01@AEBV01@@Z
1F04C0 - ??4SyncObjectivesPacket@GAME@@QEAAAEAV01@AEBV01@@Z
3F240 - ??4TakeBonusConfigCmd@GAME@@QEAAAEAV01@AEBV01@@Z
44EAD0 - ??4TakeBonusConfigCmdPacket@GAME@@QEAAAEAV01@AEBV01@@Z
452D80 - ??4TakeHitPacket@GAME@@QEAAAEAV01@AEBV01@@Z
452D80 - ??4TakeKnockdownPacket@GAME@@QEAAAEAV01@AEBV01@@Z
452D80 - ??4TakeSleepPacket@GAME@@QEAAAEAV01@AEBV01@@Z
452D80 - ??4TakeStunPacket@GAME@@QEAAAEAV01@AEBV01@@Z
452D80 - ??4TakeTrapPacket@GAME@@QEAAAEAV01@AEBV01@@Z
40120 - ??4TelkineDeathHandler@GAME@@QEAAAEAV01@AEBV01@@Z
453930 - ??4TickManager@GAME@@QEAAAEAV01@$$QEAV01@@Z
44A1C0 - ??4TickManager@GAME@@QEAAAEAV01@AEBV01@@Z
1E6870 - ??4TradeAddItemPacket@GAME@@QEAAAEAV01@AEBV01@@Z
1E5990 - ??4TradeCancelPacket@GAME@@QEAAAEAV01@AEBV01@@Z
1E5990 - ??4TradeFinalizePacket@GAME@@QEAAAEAV01@AEBV01@@Z
1E5990 - ??4TradeInitiatePacket@GAME@@QEAAAEAV01@AEBV01@@Z
1352B0 - ??4TradeManager@GAME@@QEAAAEAV01@AEBV01@@Z
1E5BC0 - ??4TradeRemoveItemPacket@GAME@@QEAAAEAV01@AEBV01@@Z
1E5BC0 - ??4TradeSetGoldPacket@GAME@@QEAAAEAV01@AEBV01@@Z
1350D0 - ??4TradeState@GAME@@QEAAAEAV01@AEBV01@@Z
3DF30 - ??4TransmuteItemsConfigCmd@GAME@@QEAAAEAV01@AEBV01@@Z
44DD90 - ??4TransmuteItemsConfigCmdPacket@GAME@@QEAAAEAV01@AEBV01@@Z
1E7C40 - ??4UnJoinLeaderPacket@GAME@@QEAAAEAV01@AEBV01@@Z
452380 - ??4UpdatePositionPacket@GAME@@QEAAAEAV01@AEBV01@@Z
3AFE0 - ??4UseItemConfigCmd@GAME@@QEAAAEAV01@AEBV01@@Z
44BED0 - ??4UseItemConfigCmdPacket@GAME@@QEAAAEAV01@AEBV01@@Z
44BFE0 - ??4UseItemOnConfigCmdPacket@GAME@@QEAAAEAV01@AEBV01@@Z
452800 - ??4UseItemPacket@GAME@@QEAAAEAV01@AEBV01@@Z
2114C0 - ??4VoiceChatManager@GAME@@QEAAAEAV01@AEBV01@@Z
452D80 - ??4WakeUpActionPacket@GAME@@QEAAAEAV01@AEBV01@@Z
452710 - ??4WalkPacket@GAME@@QEAAAEAV01@AEBV01@@Z
4520D0 - ??4WarpEntityPacket@GAME@@QEAAAEAV01@AEBV01@@Z
451DE0 - ??4WorldInitPacket@GAME@@QEAAAEAV01@AEBV01@@Z
257BB0 - ??8HotSlotOption@GAME@@UEBA_NAEBV01@@Z
257D10 - ??8HotSlotOptionPotion@GAME@@UEBA_NAEBVHotSlotOption@1@@Z
258960 - ??8HotSlotOptionScroll@GAME@@UEBA_NAEBVHotSlotOption@1@@Z
259190 - ??8HotSlotOptionSkill@GAME@@UEBA_NAEBVHotSlotOption@1@@Z
1DD590 - ??MEquipManagerContainer@GAME@@QEBA_NAEBV01@@Z
158F0 - ??RFilterCharacterAction@GAME@@UEBA_NPEBVCharacterAction@1@@Z
1F8CA0 - ??RFilterGetAllPlayers@GAME@@UEBA_NPEBVEntity@1@@Z
1F8CF0 - ??RFilterGetPlayerSpawnPoint@GAME@@UEBA_NPEBVEntity@1@@Z
158F0 - ??RFilterMountAction@GAME@@EEBA_NPEBVCharacterAction@1@@Z
158F0 - ??RFilterMountedCharacterAction@GAME@@EEBA_NPEBVCharacterAction@1@@Z
574448 - ??_7?$ControllerAIStateT@VControllerAI@GAME@@VCharacter@2@@GAME@@6B@
5B64F8 - ??_7?$ControllerAIStateT@VControllerCerberus@GAME@@VCerberus@2@@GAME@@6B@
5B9838 - ??_7?$ControllerAIStateT@VControllerMegalesios@GAME@@VMegalesios@2@@GAME@@6B@
5B9148 - ??_7?$ControllerAIStateT@VControllerMegalesios@GAME@@VMonster@2@@GAME@@6B@
5AFA40 - ??_7?$ControllerAIStateT@VControllerMonster@GAME@@VMonster@2@@GAME@@6B@
5A96B8 - ??_7?$ControllerAIStateT@VControllerMonsterHidden@GAME@@VMonster@2@@GAME@@6B@
5BB420 - ??_7?$ControllerAIStateT@VControllerMonsterSynergy@GAME@@VMonster@2@@GAME@@6B@
5BE6A8 - ??_7?$ControllerAIStateT@VControllerNpc2@GAME@@VNpc@2@@GAME@@6B@
5BC648 - ??_7?$ControllerAIStateT@VControllerNpcHerdAnimal@GAME@@VCharacter@2@@GAME@@6B@
5BC1A8 - ??_7?$ControllerAIStateT@VControllerNpcHerdAnimal@GAME@@VNpc@2@@GAME@@6B@
5BBD08 - ??_7?$ControllerAIStateT@VControllerNpcHerder@GAME@@VCharacter@2@@GAME@@6B@
5C34F8 - ??_7?$ControllerAIStateT@VControllerPlayer@GAME@@VPlayer@2@@GAME@@6B@
5BA870 - ??_7?$ControllerAIStateT@VControllerSpirit@GAME@@VMonster@2@@GAME@@6B@
5C49A0 - ??_7?$ControllerAIStateT@VControllerSpiritHost@GAME@@VSpiritHost@2@@GAME@@6B@
5C5310 - ??_7?$ControllerAIStateT@VControllerStationaryMonster@GAME@@VMonster@2@@GAME@@6B@
5C6110 - ??_7?$ControllerAIStateT@VControllerTerracotta@GAME@@VMonster@2@@GAME@@6B@
5C8248 - ??_7?$ControllerAIStateT@VControllerTyphonChained@GAME@@VMonster@2@@GAME@@6B@
5B62A8 - ??_7?$ControllerMonsterState@VControllerCerberus@GAME@@VCerberus@2@@GAME@@6B@
5B95E8 - ??_7?$ControllerMonsterState@VControllerMegalesios@GAME@@VMegalesios@2@@GAME@@6B@
5B8EF8 - ??_7?$ControllerMonsterState@VControllerMegalesios@GAME@@VMonster@2@@GAME@@6B@
5AF7F0 - ??_7?$ControllerMonsterState@VControllerMonster@GAME@@VMonster@2@@GAME@@6B@
5A9468 - ??_7?$ControllerMonsterState@VControllerMonsterHidden@GAME@@VMonster@2@@GAME@@6B@
5BB1D0 - ??_7?$ControllerMonsterState@VControllerMonsterSynergy@GAME@@VMonster@2@@GAME@@6B@
5BA620 - ??_7?$ControllerMonsterState@VControllerSpirit@GAME@@VMonster@2@@GAME@@6B@
5C4BF0 - ??_7?$ControllerMonsterState@VControllerSpiritHost@GAME@@VSpiritHost@2@@GAME@@6B@
5C5560 - ??_7?$ControllerMonsterState@VControllerStationaryMonster@GAME@@VMonster@2@@GAME@@6B@
5C6360 - ??_7?$ControllerMonsterState@VControllerTerracotta@GAME@@VMonster@2@@GAME@@6B@
5C8498 - ??_7?$ControllerMonsterState@VControllerTyphonChained@GAME@@VMonster@2@@GAME@@6B@
5E2978 - ??_7?$FilterFunction@VCharacterAction@GAME@@@GAME@@6B@
5E2978 - ??_7?$FilterFunction@VEntity@GAME@@@GAME@@6B@
566820 - ??_7Achievement@GAME@@6B@
5F1778 - ??_7AckEntityPacket@GAME@@6B@
573BA0 - ??_7ActivateSkillConfigCmd@GAME@@6B@
5F0178 - ??_7ActivateSkillConfigCmdPacket@GAME@@6B@
573D08 - ??_7AddInventoryItemConfigCmd@GAME@@6B@
5F05B8 - ??_7AddInventoryItemConfigCmdPacket@GAME@@6B@
5DB860 - ??_7AddPetBonusFxPakPacket@GAME@@6B@
573B10 - ??_7AdjustFactionConfigCmd@GAME@@6B@
5EFFB8 - ??_7AdjustFactionConfigCmdPacket@GAME@@6B@
5DB288 - ??_7AllPlayersBasicInfoPacket@GAME@@6B@
5DB358 - ??_7AllPlayersHeartbeatPacket@GAME@@6B@
56FA00 - ??_7AmbientCharacter@GAME@@6BICrowdAgent@CROWD@@@
5EF818 - ??_7AmbientCharacter@GAME@@6BIPhysics2@1@@
566A08 - ??_7AmbientCharacter@GAME@@6BObject@1@@
5668E0 - ??_7AmbientShadow@GAME@@6B@
567A18 - ??_7AnimationSet@GAME@@6B@
601CA8 - ??_7Apparatus@GAME@@6BICrowdAgent@CROWD@@@
5F9D68 - ??_7Apparatus@GAME@@6BIPhysics2@1@@
567A38 - ??_7Apparatus@GAME@@6BObject@1@@
601CA8 - ??_7AreaOfInterest@GAME@@6BICrowdAgent@CROWD@@@
5F9D68 - ??_7AreaOfInterest@GAME@@6BIPhysics2@1@@
567DC8 - ??_7AreaOfInterest@GAME@@6BObject@1@@
568410 - ??_7AreaTriggerHookPack@GAME@@6B@
5E8468 - ??_7Armor@GAME@@6B@
601CA8 - ??_7Armor@GAME@@6BICrowdAgent@CROWD@@@
5F78F0 - ??_7Armor@GAME@@6BIPhysics2@1@@
5684A0 - ??_7Armor@GAME@@6BObject@1@@
5E8468 - ??_7ArmorJewelry@GAME@@6B@
601CA8 - ??_7ArmorJewelry@GAME@@6BICrowdAgent@CROWD@@@
5F78F0 - ??_7ArmorJewelry@GAME@@6BIPhysics2@1@@
56A340 - ??_7ArmorJewelry@GAME@@6BObject@1@@
5E8468 - ??_7ArmorJewelry_Amulet@GAME@@6B@
601CA8 - ??_7ArmorJewelry_Amulet@GAME@@6BICrowdAgent@CROWD@@@
5F78F0 - ??_7ArmorJewelry_Amulet@GAME@@6BIPhysics2@1@@
5690E0 - ??_7ArmorJewelry_Amulet@GAME@@6BObject@1@@
5E8468 - ??_7ArmorJewelry_Bracelet@GAME@@6B@
601CA8 - ??_7ArmorJewelry_Bracelet@GAME@@6BICrowdAgent@CROWD@@@
5F78F0 - ??_7ArmorJewelry_Bracelet@GAME@@6BIPhysics2@1@@
569700 - ??_7ArmorJewelry_Bracelet@GAME@@6BObject@1@@
5E8468 - ??_7ArmorJewelry_Medal@GAME@@6B@
601CA8 - ??_7ArmorJewelry_Medal@GAME@@6BICrowdAgent@CROWD@@@
5F78F0 - ??_7ArmorJewelry_Medal@GAME@@6BIPhysics2@1@@
568AC0 - ??_7ArmorJewelry_Medal@GAME@@6BObject@1@@
5E8468 - ??_7ArmorJewelry_Ring@GAME@@6B@
601CA8 - ??_7ArmorJewelry_Ring@GAME@@6BICrowdAgent@CROWD@@@
5F78F0 - ??_7ArmorJewelry_Ring@GAME@@6BIPhysics2@1@@
569D20 - ??_7ArmorJewelry_Ring@GAME@@6BObject@1@@
5E8468 - ??_7ArmorMisc@GAME@@6B@
601CA8 - ??_7ArmorMisc@GAME@@6BICrowdAgent@CROWD@@@
5F78F0 - ??_7ArmorMisc@GAME@@6BIPhysics2@1@@
56B5B8 - ??_7ArmorMisc@GAME@@6BObject@1@@
5E8468 - ??_7ArmorMisc_Clothing@GAME@@6B@
601CA8 - ??_7ArmorMisc_Clothing@GAME@@6BICrowdAgent@CROWD@@@
5F78F0 - ??_7ArmorMisc_Clothing@GAME@@6BIPhysics2@1@@
56A968 - ??_7ArmorMisc_Clothing@GAME@@6BObject@1@@
5E8468 - ??_7ArmorMisc_Vestment@GAME@@6B@
601CA8 - ??_7ArmorMisc_Vestment@GAME@@6BICrowdAgent@CROWD@@@
5F78F0 - ??_7ArmorMisc_Vestment@GAME@@6BIPhysics2@1@@
56AF90 - ??_7ArmorMisc_Vestment@GAME@@6BObject@1@@
5E8468 - ??_7ArmorProtective@GAME@@6B@
601CA8 - ??_7ArmorProtective@GAME@@6BICrowdAgent@CROWD@@@
5F78F0 - ??_7ArmorProtective@GAME@@6BIPhysics2@1@@
56E6B8 - ??_7ArmorProtective@GAME@@6BObject@1@@
5E8468 - ??_7ArmorProtective_Chest@GAME@@6B@
601CA8 - ??_7ArmorProtective_Chest@GAME@@6BICrowdAgent@CROWD@@@
5F78F0 - ??_7ArmorProtective_Chest@GAME@@6BIPhysics2@1@@
56DA78 - ??_7ArmorProtective_Chest@GAME@@6BObject@1@@
5E8468 - ??_7ArmorProtective_Feet@GAME@@6B@
601CA8 - ??_7ArmorProtective_Feet@GAME@@6BICrowdAgent@CROWD@@@
5F78F0 - ??_7ArmorProtective_Feet@GAME@@6BIPhysics2@1@@
56CE38 - ??_7ArmorProtective_Feet@GAME@@6BObject@1@@
5E8468 - ??_7ArmorProtective_Hands@GAME@@6B@
601CA8 - ??_7ArmorProtective_Hands@GAME@@6BICrowdAgent@CROWD@@@
5F78F0 - ??_7ArmorProtective_Hands@GAME@@6BIPhysics2@1@@
56C818 - ??_7ArmorProtective_Hands@GAME@@6BObject@1@@
5E8468 - ??_7ArmorProtective_Head@GAME@@6B@
601CA8 - ??_7ArmorProtective_Head@GAME@@6BICrowdAgent@CROWD@@@
5F78F0 - ??_7ArmorProtective_Head@GAME@@6BIPhysics2@1@@
56E098 - ??_7ArmorProtective_Head@GAME@@6BObject@1@@
5E8468 - ??_7ArmorProtective_Legs@GAME@@6B@
601CA8 - ??_7ArmorProtective_Legs@GAME@@6BICrowdAgent@CROWD@@@
5F78F0 - ??_7ArmorProtective_Legs@GAME@@6BIPhysics2@1@@
56D458 - ??_7ArmorProtective_Legs@GAME@@6BObject@1@@
5E8468 - ??_7ArmorProtective_Shoulders@GAME@@6B@
601CA8 - ??_7ArmorProtective_Shoulders@GAME@@6BICrowdAgent@CROWD@@@
5F78F0 - ??_7ArmorProtective_Shoulders@GAME@@6BIPhysics2@1@@
56BBD8 - ??_7ArmorProtective_Shoulders@GAME@@6BObject@1@@
5E8468 - ??_7ArmorProtective_Waist@GAME@@6B@
601CA8 - ??_7ArmorProtective_Waist@GAME@@6BICrowdAgent@CROWD@@@
5F78F0 - ??_7ArmorProtective_Waist@GAME@@6BIPhysics2@1@@
56C1F8 - ??_7ArmorProtective_Waist@GAME@@6BObject@1@@
573F78 - ??_7AttachItemConfigCmd@GAME@@6B@
5F0D78 - ??_7AttachItemConfigCmdPacket@GAME@@6B@
573AF8 - ??_7AttachPetAutocastConfigCmd@GAME@@6B@
5EFFF8 - ??_7AttachPetAutocastConfigCmdPacket@GAME@@6B@
575310 - ??_7AttackAction@GAME@@6B@
5F1408 - ??_7AttackPacket@GAME@@6B@
56F380 - ??_7AttackRandoms@GAME@@6B@
56EFA0 - ??_7AttributePak@GAME@@6B@
601CA8 - ??_7BandariTeleportPoint@GAME@@6BICrowdAgent@CROWD@@@
5F9D68 - ??_7BandariTeleportPoint@GAME@@6BIPhysics2@1@@
5B4FB0 - ??_7BandariTeleportPoint@GAME@@6BObject@1@@
601CA8 - ??_7BindingInteractable@GAME@@6BICrowdAgent@CROWD@@@
5F9D68 - ??_7BindingInteractable@GAME@@6BIPhysics2@1@@
56F628 - ??_7BindingInteractable@GAME@@6BObject@1@@
5DB208 - ??_7BonusToClientPacket@GAME@@6B@
5DB1C8 - ??_7BonusToServerPacket@GAME@@6B@
601CA8 - ??_7CerberusGeyserMarker@GAME@@6BICrowdAgent@CROWD@@@
5FD598 - ??_7CerberusGeyserMarker@GAME@@6BIPhysics2@1@@
60DB10 - ??_7CerberusGeyserMarker@GAME@@6BObject@1@@
56F360 - ??_7ChallengeArea@GAME@@6B@
576D98 - ??_7CharAttribute@GAME@@6B@
5772D8 - ??_7CharAttributeAttackSpeed@GAME@@6B@
576E40 - ??_7CharAttributeAttackSpeedMod@GAME@@6B@
577038 - ??_7CharAttributeMod@GAME@@6B@
576E40 - ??_7CharAttributeMod_AttackSpeed@GAME@@6B@
577188 - ??_7CharAttributeMod_Constitution@GAME@@6B@
577188 - ??_7CharAttributeMod_Dexterity@GAME@@6B@
577038 - ??_7CharAttributeMod_HealIncrease@GAME@@6B@
577188 - ??_7CharAttributeMod_Intelligence@GAME@@6B@
5770E0 - ??_7CharAttributeMod_Life@GAME@@6B@
577188 - ??_7CharAttributeMod_LifeRegen@GAME@@6B@
5770E0 - ??_7CharAttributeMod_Mana@GAME@@6B@
577038 - ??_7CharAttributeMod_ManaLimitReserve@GAME@@6B@
577038 - ??_7CharAttributeMod_ManaLimitReserveReduction@GAME@@6B@
577188 - ??_7CharAttributeMod_ManaRegen@GAME@@6B@
576EE8 - ??_7CharAttributeMod_RunSpeed@GAME@@6B@
576E40 - ??_7CharAttributeMod_SpellCastSpeed@GAME@@6B@
577188 - ??_7CharAttributeMod_Strength@GAME@@6B@
576F90 - ??_7CharAttributeMod_TotalSpeed@GAME@@6B@
577380 - ??_7CharAttributeOtherSpeed@GAME@@6B@
576EE8 - ??_7CharAttributeOtherSpeedMod@GAME@@6B@
577188 - ??_7CharAttributePriMod@GAME@@6B@
5770E0 - ??_7CharAttributeSecMod@GAME@@6B@
56F080 - ??_7CharAttributeStore@GAME@@6B@
576D20 - ??_7CharAttributeStore_Bio@GAME@@6B@
5E8430 - ??_7CharAttributeStore_Equipment@GAME@@6B@
5E83F8 - ??_7CharAttributeStore_EquipmentPenaltyReduction@GAME@@6B@
56F3C8 - ??_7CharAttributeStore_Max@GAME@@6B@
56F400 - ??_7CharAttributeStore_Min@GAME@@6B@
56F048 - ??_7CharAttributeStore_Skill@GAME@@6B@
611310 - ??_7CharAttributeStore_SkillPenalty@GAME@@6B@
56F0B0 - ??_7CharAttributeStore_SkillPenaltyReduction@GAME@@6B@
5774D0 - ??_7CharAttributeVal@GAME@@6B@
5776C8 - ??_7CharAttributeValPri@GAME@@6B@
577620 - ??_7CharAttributeValSec@GAME@@6B@
577428 - ??_7CharAttributeValSpeed@GAME@@6B@
5774D0 - ??_7CharAttributeVal_ArmorDexterityReqReduction@GAME@@6B@
5774D0 - ??_7CharAttributeVal_ArmorIntelligenceReqReduction@GAME@@6B@
5774D0 - ??_7CharAttributeVal_ArmorStrengthReqReduction@GAME@@6B@
5772D8 - ??_7CharAttributeVal_AttackSpeed@GAME@@6B@
577770 - ??_7CharAttributeVal_BaseAttackSpeed@GAME@@6B@
5776C8 - ??_7CharAttributeVal_Constitution@GAME@@6B@
577620 - ??_7CharAttributeVal_DefensiveAbility@GAME@@6B@
5774D0 - ??_7CharAttributeVal_DefensiveAbilityModifier@GAME@@6B@
5774D0 - ??_7CharAttributeVal_DefensiveBlockRecoveryReduction@GAME@@6B@
5774D0 - ??_7CharAttributeVal_DeflectProjectile@GAME@@6B@
5776C8 - ??_7CharAttributeVal_Dexterity@GAME@@6B@
5774D0 - ??_7CharAttributeVal_DodgePercent@GAME@@6B@
5774D0 - ??_7CharAttributeVal_EnergyAbsorptionPercent@GAME@@6B@
5774D0 - ??_7CharAttributeVal_GlobalReqReduction@GAME@@6B@
5774D0 - ??_7CharAttributeVal_HuntingDexterityReqReduction@GAME@@6B@
5774D0 - ??_7CharAttributeVal_HuntingIntelligenceReqReduction@GAME@@6B@
5774D0 - ??_7CharAttributeVal_HuntingStrengthReqReduction@GAME@@6B@
5774D0 - ??_7CharAttributeVal_IncreasedExperience@GAME@@6B@
5776C8 - ??_7CharAttributeVal_Intelligence@GAME@@6B@
5774D0 - ??_7CharAttributeVal_JewelryDexterityReqReduction@GAME@@6B@
5774D0 - ??_7CharAttributeVal_JewelryIntelligenceReqReduction@GAME@@6B@
5774D0 - ??_7CharAttributeVal_JewelryStrengthReqReduction@GAME@@6B@
577230 - ??_7CharAttributeVal_LevelReqReduction@GAME@@6B@
577620 - ??_7CharAttributeVal_Life@GAME@@6B@
5776C8 - ??_7CharAttributeVal_LifeRegen@GAME@@6B@
5774D0 - ??_7CharAttributeVal_LightRadius@GAME@@6B@
577620 - ??_7CharAttributeVal_Mana@GAME@@6B@
577578 - ??_7CharAttributeVal_ManaLimitReserve@GAME@@6B@
5774D0 - ??_7CharAttributeVal_ManaLimitReserveReduction@GAME@@6B@
5776C8 - ??_7CharAttributeVal_ManaRegen@GAME@@6B@
5774D0 - ??_7CharAttributeVal_MeleeDexterityReqReduction@GAME@@6B@
5774D0 - ??_7CharAttributeVal_MeleeIntelligenceReqReduction@GAME@@6B@
5774D0 - ??_7CharAttributeVal_MeleeStrengthReqReduction@GAME@@6B@
577620 - ??_7CharAttributeVal_OffensiveAbility@GAME@@6B@
5774D0 - ??_7CharAttributeVal_OffensiveAbilityModifier@GAME@@6B@
577380 - ??_7CharAttributeVal_RunSpeed@GAME@@6B@
5774D0 - ??_7CharAttributeVal_ShieldDexterityReqReduction@GAME@@6B@
5774D0 - ??_7CharAttributeVal_ShieldIntelligenceReqReduction@GAME@@6B@
5774D0 - ??_7CharAttributeVal_ShieldStrengthReqReduction@GAME@@6B@
5772D8 - ??_7CharAttributeVal_SpellCastSpeed@GAME@@6B@
5774D0 - ??_7CharAttributeVal_StaffDexterityReqReduction@GAME@@6B@
5774D0 - ??_7CharAttributeVal_StaffIntelligenceReqReduction@GAME@@6B@
5774D0 - ??_7CharAttributeVal_StaffStrengthReqReduction@GAME@@6B@
5776C8 - ??_7CharAttributeVal_Strength@GAME@@6B@
5774D0 - ??_7CharAttributeVal_Weapon2HDexterityReqReduction@GAME@@6B@
5774D0 - ??_7CharAttributeVal_Weapon2HIntelligenceReqReduction@GAME@@6B@
5774D0 - ??_7CharAttributeVal_Weapon2HStrengthReqReduction@GAME@@6B@
5774D0 - ??_7CharAttributeVal_WeaponDexterityReqReduction@GAME@@6B@
5774D0 - ??_7CharAttributeVal_WeaponIntelligenceReqReduction@GAME@@6B@
5774D0 - ??_7CharAttributeVal_WeaponStrengthReqReduction@GAME@@6B@
577870 - ??_7CharFxPak@GAME@@6B@
573C30 - ??_7CharPickUpConfigCmd@GAME@@6B@
56FA00 - ??_7Character@GAME@@6BICrowdAgent@CROWD@@@
5EF818 - ??_7Character@GAME@@6BIPhysics2@1@@
56FA40 - ??_7Character@GAME@@6BObject@1@@
575728 - ??_7CharacterActionBase@GAME@@6B@
5748D0 - ??_7CharacterActionHandler@GAME@@6B@
576D68 - ??_7CharacterBio@GAME@@6B@
576D78 - ??_7CharacterHookPack@GAME@@6B@
601CA8 - ??_7CharonGeyserMarker@GAME@@6BICrowdAgent@CROWD@@@
5F9D68 - ??_7CharonGeyserMarker@GAME@@6BIPhysics2@1@@
60DF20 - ??_7CharonGeyserMarker@GAME@@6BObject@1@@
574D40 - ??_7ChatAction@GAME@@6B@
5F10E8 - ??_7ChatActionPacket@GAME@@6B@
5DC560 - ??_7ChatCommandUseSkillPacket@GAME@@6B@
5778E0 - ??_7ChestHookPack@GAME@@6B@
573C90 - ??_7CleanseShrineConfigCmd@GAME@@6B@
5F0478 - ??_7CleanseShrineConfigCmdPacket@GAME@@6B@
5DC6A0 - ??_7CleanseShrinePacket@GAME@@6B@
5DB7E0 - ??_7ClearMutatorsPacket@GAME@@6B@
5B3A98 - ??_7CombatAttribute@GAME@@6B@
5B3980 - ??_7CombatAttributeAbsDamage@GAME@@6B@
5B3868 - ??_7CombatAttributeAbsDamageElemental@GAME@@6B@
5B31D8 - ??_7CombatAttributeAbsDamageMod@GAME@@6B@
5B4128 - ??_7CombatAttributeAbsDamage_Disruption@GAME@@6B@
5B4010 - ??_7CombatAttributeAbsDamage_LifeLeech@GAME@@6B@
5B3EF8 - ??_7CombatAttributeAbsDamage_ManaBurn@GAME@@6B@
5B4240 - ??_7CombatAttributeAbsDamage_PercentLife@GAME@@6B@
5B2D78 - ??_7CombatAttributeAbsDefense@GAME@@6B@
5B2800 - ??_7CombatAttributeAbsDefenseMod@GAME@@6B@
5B2C60 - ??_7CombatAttributeAbsDefenseRestricted@GAME@@6B@
5B2E90 - ??_7CombatAttributeAbsDefenseTotalSpeed@GAME@@6B@
566978 - ??_7CombatAttributeAccumulator@GAME@@6B@
5B47B8 - ??_7CombatAttributeDamage_BasePhysical@GAME@@6B@
5B46A0 - ??_7CombatAttributeDamage_BonusPhysical@GAME@@6B@
5B25D0 - ??_7CombatAttributeDefenseCap@GAME@@6B@
5B2A30 - ??_7CombatAttributeDefenseMisc@GAME@@6B@
5B2918 - ??_7CombatAttributeDefenseMiscRestricted@GAME@@6B@
5B4358 - ??_7CombatAttributeDefense_AbsorptionProtection@GAME@@6B@
5B3750 - ??_7CombatAttributeDurDamage@GAME@@6B@
5B3638 - ??_7CombatAttributeDurDamageElemental@GAME@@6B@
5B2FA8 - ??_7CombatAttributeDurDamageMod@GAME@@6B@
5B2B48 - ??_7CombatAttributeDurDefense@GAME@@6B@
5B26E8 - ??_7CombatAttributeDurDefenseMod@GAME@@6B@
5B3520 - ??_7CombatAttributeDurFixedDamage@GAME@@6B@
5B32F0 - ??_7CombatAttributeInfluenceDamage@GAME@@6B@
5B3BB0 - ??_7CombatAttributeInfluenceDamage_Confusion@GAME@@6B@
5B3CC8 - ??_7CombatAttributeInfluenceDamage_Convert@GAME@@6B@
5B3BB0 - ??_7CombatAttributeInfluenceDamage_Fear@GAME@@6B@
5B3DE0 - ??_7CombatAttributeInfluenceDamage_Taunt@GAME@@6B@
5B3408 - ??_7CombatAttributeReflexDamage@GAME@@6B@
5B30C0 - ??_7CombatAttributeTotalDamageMod@GAME@@6B@
5B4588 - ??_7CombatAttribute_DamageCritBonus@GAME@@6B@
5B4470 - ??_7CombatAttribute_DamageMultiplier@GAME@@6B@
566938 - ??_7CombatDisplayAccumulator@GAME@@6B@
5B4D28 - ??_7CombatManager@GAME@@6B@
573F90 - ??_7CompleteRelicsConfigCmd@GAME@@6B@
5F0BF8 - ??_7CompleteRelicsConfigCmdPacket@GAME@@6B@
5DB720 - ??_7ControlPlayerRespawnPacket@GAME@@6B@
567418 - ??_7Controller@GAME@@6B@
573FD8 - ??_7ControllerAI@GAME@@6B@
574698 - ??_7ControllerAIState@GAME@@6B@
5741F8 - ??_7ControllerAIStatePreStart@GAME@@6B@
5B03E0 - ??_7ControllerAlly@GAME@@6BControllerAI@1@@
5C39B8 - ??_7ControllerAlly@GAME@@6BILootContainer@1@@
567450 - ??_7ControllerBaseCharacter@GAME@@6B@
5B0170 - ??_7ControllerCerberus@GAME@@6BControllerAI@1@@
5C39B8 - ??_7ControllerCerberus@GAME@@6BILootContainer@1@@
5B5E08 - ??_7ControllerCerberusStateAttack@GAME@@6B@
5B6058 - ??_7ControllerCerberusStateRoar@GAME@@6B@
567528 - ??_7ControllerCharacter@GAME@@6B@
567620 - ??_7ControllerCombat@GAME@@6B@
5AFF00 - ??_7ControllerGraeae@GAME@@6BControllerAI@1@@
5C39B8 - ??_7ControllerGraeae@GAME@@6BILootContainer@1@@
5B76A8 - ??_7ControllerGraeaeStateAttack@GAME@@6B@
5B7208 - ??_7ControllerGraeaeStateDead@GAME@@6B@
5B7458 - ??_7ControllerGraeaeStateDying@GAME@@6B@
5B78F8 - ??_7ControllerGraeaeStateIdle@GAME@@6B@
5B6FB8 - ??_7ControllerGraeaeStateToggleEye@GAME@@6B@
5AFC90 - ??_7ControllerHades@GAME@@6BControllerAI@1@@
5C39B8 - ??_7ControllerHades@GAME@@6BILootContainer@1@@
5B9398 - ??_7ControllerMegalesiosStateLaunchBursts@GAME@@6B@
5B9A88 - ??_7ControllerMegalesiosStateStartup@GAME@@6B@
576438 - ??_7ControllerMonster@GAME@@6BControllerAI@1@@
5C39B8 - ??_7ControllerMonster@GAME@@6BILootContainer@1@@
5AA498 - ??_7ControllerMonsterStateAlertBeforePursue@GAME@@6B@
5AEC60 - ??_7ControllerMonsterStateAttack@GAME@@6B@
5AC750 - ??_7ControllerMonsterStateCharge@GAME@@6B@
5ABE10 - ??_7ControllerMonsterStateConfused@GAME@@6B@
5AD090 - ??_7ControllerMonsterStateDead@GAME@@6B@
5ACBF0 - ??_7ControllerMonsterStateDefendLeader@GAME@@6B@
5AC500 - ??_7ControllerMonsterStateDodgeAttack@GAME@@6B@
5AD2E0 - ??_7ControllerMonsterStateDying@GAME@@6B@
5AA248 - ??_7ControllerMonsterStateEmote@GAME@@6B@
5AE570 - ??_7ControllerMonsterStateFlee@GAME@@6B@
5ACE40 - ??_7ControllerMonsterStateFollowLeader@GAME@@6B@
5AB4C8 - ??_7ControllerMonsterStateGettingUp@GAME@@6B@
5A9218 - ??_7ControllerMonsterStateHidden@GAME@@6B@
5AF350 - ??_7ControllerMonsterStateIdle@GAME@@6B@
5ABBC0 - ??_7ControllerMonsterStateImmobile@GAME@@6B@
5AEA10 - ??_7ControllerMonsterStateJumpAttack@GAME@@6B@
5AB278 - ??_7ControllerMonsterStateKnockedDown@GAME@@6B@
5AC9A0 - ??_7ControllerMonsterStateMove@GAME@@6B@
5AEEB0 - ??_7ControllerMonsterStateNavigateObstacle@GAME@@6B@
5AC060 - ??_7ControllerMonsterStatePanic@GAME@@6B@
5AC2B0 - ??_7ControllerMonsterStateParalyze@GAME@@6B@
5AD530 - ??_7ControllerMonsterStatePatrol@GAME@@6B@
5AF100 - ??_7ControllerMonsterStatePursue@GAME@@6B@
5A9FF8 - ??_7ControllerMonsterStateQuestMove@GAME@@6B@
5A9B58 - ??_7ControllerMonsterStateQuestPlayAnimation@GAME@@6B@
5A9908 - ??_7ControllerMonsterStateQuestUseSkill@GAME@@6B@
5A9DA8 - ??_7ControllerMonsterStateQuestWalk@GAME@@6B@
5AE7C0 - ??_7ControllerMonsterStateRepositionForAttack@GAME@@6B@
5ADC28 - ??_7ControllerMonsterStateReturn@GAME@@6B@
5AD9D0 - ??_7ControllerMonsterStateReturnFast@GAME@@6B@
5AE320 - ??_7ControllerMonsterStateRoam@GAME@@6B@
5AAB88 - ??_7ControllerMonsterStateScared@GAME@@6B@
5AADD8 - ??_7ControllerMonsterStateSleep@GAME@@6B@
5AF5A0 - ??_7ControllerMonsterStateStartup@GAME@@6B@
5AB720 - ??_7ControllerMonsterStateStunned@GAME@@6B@
5AB028 - ??_7ControllerMonsterStateTakeHit@GAME@@6B@
5AB970 - ??_7ControllerMonsterStateTrapped@GAME@@6B@
5AA938 - ??_7ControllerMonsterStateUseSkillOnAlly@GAME@@6B@
5AA6E8 - ??_7ControllerMonsterStateUseSkillOnPoint@GAME@@6B@
5AD780 - ??_7ControllerMonsterStateWaitToAttack@GAME@@6B@
5AE0D0 - ??_7ControllerMonsterStateWander@GAME@@6B@
5ADE80 - ??_7ControllerMonsterStateWanderPause@GAME@@6B@
5A8FA8 - ??_7ControllerMonsterSynergy@GAME@@6BControllerAI@1@@
5C39B8 - ??_7ControllerMonsterSynergy@GAME@@6BILootContainer@1@@
5BAD30 - ??_7ControllerMonsterSynergyStateDying@GAME@@6B@
5BAF80 - ??_7ControllerMonsterSynergyStateSuperAttack@GAME@@6B@
5A8D88 - ??_7ControllerNpc2@GAME@@6B@
5BC3F8 - ??_7ControllerNpcAnimalStateFollowHerd@GAME@@6B@
5BBF58 - ??_7ControllerNpcAnimalStateWiggle@GAME@@6B@
5BD428 - ??_7ControllerNpcStateAlert@GAME@@6B@
5BE458 - ??_7ControllerNpcStateBase@GAME@@6B@
5BDB18 - ??_7ControllerNpcStateChat@GAME@@6B@
5BBAB8 - ??_7ControllerNpcStateDirectHerd@GAME@@6B@
5BDFB8 - ??_7ControllerNpcStateIdle@GAME@@6B@
5BDD68 - ??_7ControllerNpcStateLongIdle@GAME@@6B@
5BD1D8 - ??_7ControllerNpcStateQuestMove@GAME@@6B@
5BCD38 - ??_7ControllerNpcStateQuestOrient@GAME@@6B@
5BCAE8 - ??_7ControllerNpcStateQuestPlayAnimation@GAME@@6B@
5BCF88 - ??_7ControllerNpcStateQuestWalk@GAME@@6B@
5BE208 - ??_7ControllerNpcStateStartup@GAME@@6B@
5BC898 - ??_7ControllerNpcStateUseSkillOnAlly@GAME@@6B@
5BD8C8 - ??_7ControllerNpcStateWander@GAME@@6B@
5BD678 - ??_7ControllerNpcStateWatchAttraction@GAME@@6B@
5A8B18 - ??_7ControllerOrmenos@GAME@@6BControllerAI@1@@
5C39B8 - ??_7ControllerOrmenos@GAME@@6BILootContainer@1@@
5BF4E0 - ??_7ControllerOrmenosStateAttack@GAME@@6B@
5A88A8 - ??_7ControllerPet@GAME@@6BControllerAI@1@@
5C39B8 - ??_7ControllerPet@GAME@@6BILootContainer@1@@
5705D8 - ??_7ControllerPlayer@GAME@@6B@
5C3280 - ??_7ControllerPlayerState@GAME@@6B@
5C1268 - ??_7ControllerPlayerStateChargeToUseSkill@GAME@@6B@
5C0878 - ??_7ControllerPlayerStateDying@GAME@@6B@
5C2D90 - ??_7ControllerPlayerStateIdle@GAME@@6B@
5C0600 - ??_7ControllerPlayerStateImmobilized@GAME@@6B@
5C0FF0 - ??_7ControllerPlayerStateJumpToUseSkill@GAME@@6B@
5C0110 - ??_7ControllerPlayerStateKnockedDown@GAME@@6B@
5C2B18 - ??_7ControllerPlayerStateLongIdle@GAME@@6B@
5C0AF0 - ??_7ControllerPlayerStateMoveAndUseSkill@GAME@@6B@
5C28A0 - ??_7ControllerPlayerStateMoveTo@GAME@@6B@
5C2628 - ??_7ControllerPlayerStateMoveToActorBase@GAME@@6B@
5C19D0 - ??_7ControllerPlayerStateMoveToFixedItem@GAME@@6B@
5C1EC0 - ??_7ControllerPlayerStateMoveToItem@GAME@@6B@
5C23B0 - ??_7ControllerPlayerStateMoveToNpc@GAME@@6B@
5C14E0 - ??_7ControllerPlayerStateMoveToUseSkill@GAME@@6B@
5C1C48 - ??_7ControllerPlayerStatePickupItem@GAME@@6B@
5BF730 - ??_7ControllerPlayerStateRespawning@GAME@@6B@
5BFE98 - ??_7ControllerPlayerStateSleep@GAME@@6B@
5C3008 - ??_7ControllerPlayerStateStartup@GAME@@6B@
5C0388 - ??_7ControllerPlayerStateStunned@GAME@@6B@
5C2138 - ??_7ControllerPlayerStateTalkToNpc@GAME@@6B@
5BFC20 - ??_7ControllerPlayerStateTrapped@GAME@@6B@
5C1758 - ??_7ControllerPlayerStateUseFixedItem@GAME@@6B@
5C0D70 - ??_7ControllerPlayerStateUseSkill@GAME@@6B@
5BF9A8 - ??_7ControllerPlayerStateUseSkillWhileTrapped@GAME@@6B@
5C4BF0 - ??_7ControllerSpiritHostState@GAME@@6B@
5C4290 - ??_7ControllerSpiritHostStateAnimate@GAME@@6B@
5C4750 - ??_7ControllerSpiritHostStateStartup@GAME@@6B@
5BA620 - ??_7ControllerSpiritState@GAME@@6B@
5B9CD8 - ??_7ControllerSpiritStateAttackToAnimate@GAME@@6B@
5B9F28 - ??_7ControllerSpiritStateIdle@GAME@@6B@
5BA178 - ??_7ControllerSpiritStatePursueToAnimate@GAME@@6B@
5BA3C8 - ??_7ControllerSpiritStateStartup@GAME@@6B@
567270 - ??_7ControllerStooge@GAME@@6B@
5C5C50 - ??_7ControllerTerracottaStateAttackMarch@GAME@@6B@
5C65B0 - ??_7ControllerTerracottaStateStartup@GAME@@6B@
573CF0 - ??_7CreateArtifactConfigCmd@GAME@@6B@
5F0578 - ??_7CreateArtifactConfigCmdPacket@GAME@@6B@
5DC760 - ??_7CreateEntityPacket@GAME@@6B@
5DC3A0 - ??_7CreateGravestonePacket@GAME@@6B@
5DC7E0 - ??_7CreateItemPacket@GAME@@6B@
5DC360 - ??_7CreateItemTeleportPacket@GAME@@6B@
573D98 - ??_7CreateProjectileConfigCmd@GAME@@6B@
5F0778 - ??_7CreateProjectileConfigCmdPacket@GAME@@6B@
573C48 - ??_7CreateRemoveSkillBuffConfigCmd@GAME@@6B@
5F0BB8 - ??_7CreateRemoveSkillBuffConfigCmdPacket@GAME@@6B@
570440 - ??_7CursorHandler@GAME@@6B@
5C89C0 - ??_7CursorHandlerAttributeReset@GAME@@6B@
5C8B58 - ??_7CursorHandlerDevotionReset@GAME@@6B@
5C8CF0 - ??_7CursorHandlerEnchant@GAME@@6B@
5C8E98 - ??_7CursorHandlerFactionBooster@GAME@@6B@
5C90B0 - ??_7CursorHandlerHotSlotOption@GAME@@6B@
5702A8 - ??_7CursorHandlerItemMove@GAME@@6B@
5C9260 - ??_7CursorHandlerItemUse@GAME@@6B@
5C93F8 - ??_7CursorHandlerRelicCombine@GAME@@6B@
5C95A0 - ??_7CursorHandlerTransmute@GAME@@6B@
5C9CE0 - ??_7DamageAttribute@GAME@@6B@
5C9B78 - ??_7DamageAttributeAbs@GAME@@6B@
5D2720 - ??_7DamageAttributeAbsBase@GAME@@6B@
5D2888 - ??_7DamageAttributeAbsBaseElemental@GAME@@6B@
5D1BE0 - ??_7DamageAttributeAbsBase_Aether@GAME@@6B@
5D2018 - ??_7DamageAttributeAbsBase_Chaos@GAME@@6B@
5D25B8 - ??_7DamageAttributeAbsBase_Cold@GAME@@6B@
5D2450 - ??_7DamageAttributeAbsBase_Fire@GAME@@6B@
5D1EB0 - ??_7DamageAttributeAbsBase_Life@GAME@@6B@
5D22E8 - ??_7DamageAttributeAbsBase_Lightning@GAME@@6B@
5D2180 - ??_7DamageAttributeAbsBase_Poison@GAME@@6B@
5C9A10 - ??_7DamageAttributeAbsBonus@GAME@@6B@
5D1A78 - ??_7DamageAttributeAbsBonusElemental@GAME@@6B@
5CDE68 - ??_7DamageAttributeAbsMod@GAME@@6B@
5CCE48 - ??_7DamageAttributeAbsModBase@GAME@@6B@
5CCE48 - ??_7DamageAttributeAbsModBonus@GAME@@6B@
5CCFA0 - ??_7DamageAttributeAbsMod_Aether@GAME@@6B@
5CDA60 - ??_7DamageAttributeAbsMod_Bleeding@GAME@@6B@
5CD250 - ??_7DamageAttributeAbsMod_Chaos@GAME@@6B@
5CD658 - ??_7DamageAttributeAbsMod_Cold@GAME@@6B@
5CC230 - ??_7DamageAttributeAbsMod_CritDamageModifier@GAME@@6B@
5CBF80 - ??_7DamageAttributeAbsMod_DamageMultiplier@GAME@@6B@
5CC4E0 - ??_7DamageAttributeAbsMod_Elemental@GAME@@6B@
5CD7B0 - ??_7DamageAttributeAbsMod_Fire@GAME@@6B@
5CC638 - ??_7DamageAttributeAbsMod_Freeze@GAME@@6B@
5CC8E8 - ??_7DamageAttributeAbsMod_Knockdown@GAME@@6B@
5CD0F8 - ??_7DamageAttributeAbsMod_Life@GAME@@6B@
5CD500 - ??_7DamageAttributeAbsMod_Lightning@GAME@@6B@
5CC388 - ??_7DamageAttributeAbsMod_ManaBurn@GAME@@6B@
5CC790 - ??_7DamageAttributeAbsMod_Petrify@GAME@@6B@
5CDD10 - ??_7DamageAttributeAbsMod_Physical@GAME@@6B@
5CD908 - ??_7DamageAttributeAbsMod_Pierce@GAME@@6B@
5CDBB8 - ??_7DamageAttributeAbsMod_PierceRatio@GAME@@6B@
5CD3A8 - ??_7DamageAttributeAbsMod_Poison@GAME@@6B@
5CCCF0 - ??_7DamageAttributeAbsMod_Sleep@GAME@@6B@
5CCB98 - ??_7DamageAttributeAbsMod_Stun@GAME@@6B@
5CC0D8 - ??_7DamageAttributeAbsMod_TotalDamageModifier@GAME@@6B@
5CCA40 - ??_7DamageAttributeAbsMod_Trap@GAME@@6B@
5D1208 - ??_7DamageAttributeAbs_Aether@GAME@@6B@
5D3EF0 - ??_7DamageAttributeAbs_BonusPhysical@GAME@@6B@
5D10A0 - ??_7DamageAttributeAbs_Chaos@GAME@@6B@
5D1910 - ??_7DamageAttributeAbs_Cold@GAME@@6B@
5D2CC0 - ??_7DamageAttributeAbs_Confusion@GAME@@6B@
5D2F90 - ??_7DamageAttributeAbs_Convert@GAME@@6B@
5D29F0 - ??_7DamageAttributeAbs_Disruption@GAME@@6B@
5D0F38 - ??_7DamageAttributeAbs_ElementalDamage@GAME@@6B@
5D30F8 - ??_7DamageAttributeAbs_Fear@GAME@@6B@
5D1640 - ??_7DamageAttributeAbs_Fire@GAME@@6B@
5D14D8 - ??_7DamageAttributeAbs_Life@GAME@@6B@
5D2B58 - ??_7DamageAttributeAbs_LifeLeech@GAME@@6B@
5D1370 - ??_7DamageAttributeAbs_Lightning@GAME@@6B@
5D3C38 - ??_7DamageAttributeAbs_ManaBurn@GAME@@6B@
5D2E28 - ??_7DamageAttributeAbs_PercentCurrentLife@GAME@@6B@
5D1D48 - ??_7DamageAttributeAbs_Pierce@GAME@@6B@
5D17A8 - ??_7DamageAttributeAbs_Poison@GAME@@6B@
5D33C8 - ??_7DamageAttributeAbs_Taunt@GAME@@6B@
5D0C28 - ??_7DamageAttributeDur@GAME@@6B@
5D0DB0 - ??_7DamageAttributeDurBase@GAME@@6B@
5D0790 - ??_7DamageAttributeDurBaseElemental@GAME@@6B@
5D0DB0 - ??_7DamageAttributeDurBonus@GAME@@6B@
5D0790 - ??_7DamageAttributeDurBonusElemental@GAME@@6B@
5CF840 - ??_7DamageAttributeDurFixed@GAME@@6B@
5CBE10 - ??_7DamageAttributeDurMod@GAME@@6B@
5CAFB0 - ??_7DamageAttributeDurModBase@GAME@@6B@
5CAFB0 - ??_7DamageAttributeDurModBonus@GAME@@6B@
5CB290 - ??_7DamageAttributeDurMod_Aether@GAME@@6B@
5CAE40 - ??_7DamageAttributeDurMod_AttackSpeed@GAME@@6B@
5CB9C0 - ??_7DamageAttributeDurMod_Bleeding@GAME@@6B@
5CB120 - ??_7DamageAttributeDurMod_Chaos@GAME@@6B@
5CBB30 - ??_7DamageAttributeDurMod_Cold@GAME@@6B@
5CA710 - ??_7DamageAttributeDurMod_DefensiveAbility@GAME@@6B@
5CB6E0 - ??_7DamageAttributeDurMod_Fire@GAME@@6B@
5CB570 - ??_7DamageAttributeDurMod_Life@GAME@@6B@
5CA880 - ??_7DamageAttributeDurMod_LifeLeach@GAME@@6B@
5CB400 - ??_7DamageAttributeDurMod_Lightning@GAME@@6B@
5CA9F0 - ??_7DamageAttributeDurMod_ManaLeach@GAME@@6B@
5CA5A0 - ??_7DamageAttributeDurMod_OffensiveAbility@GAME@@6B@
5CA2A8 - ??_7DamageAttributeDurMod_OffensiveReduction@GAME@@6B@
5CBCA0 - ??_7DamageAttributeDurMod_Physical@GAME@@6B@
5CB850 - ??_7DamageAttributeDurMod_Poison@GAME@@6B@
5CACD0 - ??_7DamageAttributeDurMod_RunSpeed@GAME@@6B@
5CAB60 - ??_7DamageAttributeDurMod_SpellCastSpeed@GAME@@6B@
5CFB50 - ??_7DamageAttributeDur_Aether@GAME@@6B@
5C9F98 - ??_7DamageAttributeDur_AttackSpeed@GAME@@6B@
5D0918 - ??_7DamageAttributeDur_Bleeding@GAME@@6B@
5CFFE8 - ??_7DamageAttributeDur_Chaos@GAME@@6B@
5D0608 - ??_7DamageAttributeDur_Cold@GAME@@6B@
5CF530 - ??_7DamageAttributeDur_DefensiveAbility@GAME@@6B@
5CF3A8 - ??_7DamageAttributeDur_DefensiveReduction@GAME@@6B@
5CF098 - ??_7DamageAttributeDur_ElementalReductionPercent@GAME@@6B@
5CE458 - ??_7DamageAttributeDur_ElementalResistanceReductionAbsolute@GAME@@6B@
5CE2D0 - ??_7DamageAttributeDur_ElementalResistanceReductionPercent@GAME@@6B@
5D0480 - ??_7DamageAttributeDur_Fire@GAME@@6B@
5CDFC0 - ??_7DamageAttributeDur_Fumble@GAME@@6B@
5CFE60 - ??_7DamageAttributeDur_Life@GAME@@6B@
5CFCD8 - ??_7DamageAttributeDur_LifeLeach@GAME@@6B@
5D02F8 - ??_7DamageAttributeDur_Lightning@GAME@@6B@
5CF9C8 - ??_7DamageAttributeDur_ManaLeach@GAME@@6B@
5CF6B8 - ??_7DamageAttributeDur_OffensiveAbility@GAME@@6B@
5CF220 - ??_7DamageAttributeDur_OffensiveReduction@GAME@@6B@
5D0AA0 - ??_7DamageAttributeDur_Physical@GAME@@6B@
5CEF10 - ??_7DamageAttributeDur_PhysicalReductionPercent@GAME@@6B@
5CE768 - ??_7DamageAttributeDur_PhysicalResistanceReductionAbsolute@GAME@@6B@
5CE5E0 - ??_7DamageAttributeDur_PhysicalResistanceReductionPercent@GAME@@6B@
5D0170 - ??_7DamageAttributeDur_Poison@GAME@@6B@
5CE148 - ??_7DamageAttributeDur_ProjectileFumble@GAME@@6B@
5C9E10 - ??_7DamageAttributeDur_RunSpeed@GAME@@6B@
5CA120 - ??_7DamageAttributeDur_SpellCastSpeed@GAME@@6B@
5CED88 - ??_7DamageAttributeDur_TotalDamageReductionAbsolute@GAME@@6B@
5CEC00 - ??_7DamageAttributeDur_TotalDamageReductionPercent@GAME@@6B@
5CEA78 - ??_7DamageAttributeDur_TotalResistanceReductionAbsolute@GAME@@6B@
5CE8F0 - ??_7DamageAttributeDur_TotalResistanceReductionPercent@GAME@@6B@
5CA418 - ??_7DamageAttributeDur_TotalSpeed@GAME@@6B@
5C9740 - ??_7DamageAttributeInfluence@GAME@@6B@
612600 - ??_7DamageAttributeInfluenceHidden@GAME@@6B@
5C98A8 - ??_7DamageAttributeReflex@GAME@@6B@
5D3530 - ??_7DamageAttributeReflex_Freeze@GAME@@6B@
5D3968 - ??_7DamageAttributeReflex_Knockdown@GAME@@6B@
5D3698 - ??_7DamageAttributeReflex_Petrify@GAME@@6B@
5D3AD0 - ??_7DamageAttributeReflex_Sleep@GAME@@6B@
5D3800 - ??_7DamageAttributeReflex_Stun@GAME@@6B@
5D3260 - ??_7DamageAttributeReflex_Trap@GAME@@6B@
56F1C0 - ??_7DamageAttributeStore@GAME@@6B@
5E8358 - ??_7DamageAttributeStore_Equipment@GAME@@6B@
56F568 - ??_7DamageAttributeStore_Max@GAME@@6B@
56F5C8 - ??_7DamageAttributeStore_Min@GAME@@6B@
56F160 - ??_7DamageAttributeStore_Skill@GAME@@6B@
5D4058 - ??_7DamageAttribute_BasePhysical@GAME@@6B@
5D3DB0 - ??_7DamageAttribute_Physical@GAME@@6B@
573A20 - ??_7DeathHandler@GAME@@6B@
5F0A78 - ??_7DecBaseDexterityConfigCmdPacket@GAME@@6B@
5F09F8 - ??_7DecBaseIntelligenceConfigCmdPacket@GAME@@6B@
5F0938 - ??_7DecBaseLifeConfigCmdPacket@GAME@@6B@
5F08F8 - ??_7DecBaseManaConfigCmdPacket@GAME@@6B@
5F0AF8 - ??_7DecBaseStrengthConfigCmdPacket@GAME@@6B@
601CA8 - ??_7Decoration@GAME@@6BICrowdAgent@CROWD@@@
5F9D68 - ??_7Decoration@GAME@@6BIPhysics2@1@@
5D41A0 - ??_7Decoration@GAME@@6BObject@1@@
573ED0 - ??_7DecrementBaseDexterityConfigCmd@GAME@@6B@
573EA0 - ??_7DecrementBaseIntelligenceConfigCmd@GAME@@6B@
573E70 - ??_7DecrementBaseLifeConfigCmd@GAME@@6B@
573E40 - ??_7DecrementBaseManaConfigCmd@GAME@@6B@
573F00 - ??_7DecrementBaseStrengthConfigCmd@GAME@@6B@
5739A8 - ??_7DefaultDeathHandler@GAME@@6B@
5D45E0 - ??_7DefenseAttribute@GAME@@6B@
5D8888 - ??_7DefenseAttributeAbs@GAME@@6B@
5D68E8 - ??_7DefenseAttributeAbsMod@GAME@@6B@
5D6788 - ??_7DefenseAttributeAbsMod_Absorption@GAME@@6B@
5D5DE8 - ??_7DefenseAttributeAbsMod_Aether@GAME@@6B@
5D6418 - ??_7DefenseAttributeAbsMod_Bleeding@GAME@@6B@
5D5FF8 - ??_7DefenseAttributeAbsMod_Chaos@GAME@@6B@
5D6208 - ??_7DefenseAttributeAbsMod_Cold@GAME@@6B@
5D5D38 - ??_7DefenseAttributeAbsMod_Elemental@GAME@@6B@
5D62B8 - ??_7DefenseAttributeAbsMod_Fire@GAME@@6B@
5D64C8 - ??_7DefenseAttributeAbsMod_Knockdown@GAME@@6B@
5D5F48 - ??_7DefenseAttributeAbsMod_Life@GAME@@6B@
5D5E98 - ??_7DefenseAttributeAbsMod_LifeLeach@GAME@@6B@
5D6158 - ??_7DefenseAttributeAbsMod_Lightning@GAME@@6B@
5D5C88 - ??_7DefenseAttributeAbsMod_ManaLeach@GAME@@6B@
5D6578 - ??_7DefenseAttributeAbsMod_Physical@GAME@@6B@
5D6368 - ??_7DefenseAttributeAbsMod_Pierce@GAME@@6B@
5D60A8 - ??_7DefenseAttributeAbsMod_Poison@GAME@@6B@
5D6838 - ??_7DefenseAttributeAbsMod_Protection@GAME@@6B@
5D6628 - ??_7DefenseAttributeAbsMod_Sleep@GAME@@6B@
5D66D8 - ??_7DefenseAttributeAbsMod_Stun@GAME@@6B@
5D8938 - ??_7DefenseAttributeAbsRestricted@GAME@@6B@
5D7AC8 - ??_7DefenseAttributeAbs_Aether@GAME@@6B@
5D76A8 - ??_7DefenseAttributeAbs_Bleeding@GAME@@6B@
5D7CD8 - ??_7DefenseAttributeAbs_Chaos@GAME@@6B@
5D7EE8 - ??_7DefenseAttributeAbs_Cold@GAME@@6B@
5D8258 - ??_7DefenseAttributeAbs_Confusion@GAME@@6B@
5D83B8 - ??_7DefenseAttributeAbs_Convert@GAME@@6B@
5D7758 - ??_7DefenseAttributeAbs_Disruption@GAME@@6B@
5D7548 - ??_7DefenseAttributeAbs_ElementalResistance@GAME@@6B@
5D81A8 - ??_7DefenseAttributeAbs_Fear@GAME@@6B@
5D7F98 - ??_7DefenseAttributeAbs_Fire@GAME@@6B@
5D8678 - ??_7DefenseAttributeAbs_Freeze@GAME@@6B@
5D85C8 - ??_7DefenseAttributeAbs_Knockdown@GAME@@6B@
5D7C28 - ??_7DefenseAttributeAbs_Life@GAME@@6B@
5D7B78 - ??_7DefenseAttributeAbs_LifeLeach@GAME@@6B@
5D7E38 - ??_7DefenseAttributeAbs_Lightning@GAME@@6B@
5D7A18 - ??_7DefenseAttributeAbs_ManaBurn@GAME@@6B@
5D7808 - ??_7DefenseAttributeAbs_ManaBurnRatio@GAME@@6B@
5D7968 - ??_7DefenseAttributeAbs_ManaLeach@GAME@@6B@
5D78B8 - ??_7DefenseAttributeAbs_PercentCurrentLife@GAME@@6B@
5D7498 - ??_7DefenseAttributeAbs_PercentReflectionResistance@GAME@@6B@
5D8468 - ??_7DefenseAttributeAbs_Petrify@GAME@@6B@
5D8048 - ??_7DefenseAttributeAbs_Physical@GAME@@6B@
5D80F8 - ??_7DefenseAttributeAbs_Pierce@GAME@@6B@
5D7D88 - ??_7DefenseAttributeAbs_Poison@GAME@@6B@
5D87D8 - ??_7DefenseAttributeAbs_Sleep@GAME@@6B@
5D8728 - ??_7DefenseAttributeAbs_Stun@GAME@@6B@
5D8308 - ??_7DefenseAttributeAbs_Taunt@GAME@@6B@
5D75F8 - ??_7DefenseAttributeAbs_TotalSpeed@GAME@@6B@
5D8518 - ??_7DefenseAttributeAbs_Trap@GAME@@6B@
5D5398 - ??_7DefenseAttributeDefenseCap@GAME@@6B@
5D5028 - ??_7DefenseAttributeDefenseCap_Aether@GAME@@6B@
5D4738 - ??_7DefenseAttributeDefenseCap_All@GAME@@6B@
5D4C08 - ??_7DefenseAttributeDefenseCap_Bleeding@GAME@@6B@
5D50D8 - ??_7DefenseAttributeDefenseCap_Chaos@GAME@@6B@
5D4EC8 - ??_7DefenseAttributeDefenseCap_Cold@GAME@@6B@
5D4CB8 - ??_7DefenseAttributeDefenseCap_Disruption@GAME@@6B@
5D5238 - ??_7DefenseAttributeDefenseCap_Fire@GAME@@6B@
5D47E8 - ??_7DefenseAttributeDefenseCap_Freeze@GAME@@6B@
5D4E18 - ??_7DefenseAttributeDefenseCap_Life@GAME@@6B@
5D4AA8 - ??_7DefenseAttributeDefenseCap_LifeLeach@GAME@@6B@
5D4F78 - ??_7DefenseAttributeDefenseCap_Lightning@GAME@@6B@
5D4B58 - ??_7DefenseAttributeDefenseCap_ManaLeach@GAME@@6B@
5D49F8 - ??_7DefenseAttributeDefenseCap_Petrify@GAME@@6B@
5D52E8 - ??_7DefenseAttributeDefenseCap_Physical@GAME@@6B@
5D5188 - ??_7DefenseAttributeDefenseCap_Pierce@GAME@@6B@
5D4D68 - ??_7DefenseAttributeDefenseCap_Poison@GAME@@6B@
5D4688 - ??_7DefenseAttributeDefenseCap_Sleep@GAME@@6B@
5D4898 - ??_7DefenseAttributeDefenseCap_Stun@GAME@@6B@
5D4948 - ??_7DefenseAttributeDefenseCap_Trap@GAME@@6B@
5D73E8 - ??_7DefenseAttributeDur@GAME@@6B@
5D5BD8 - ??_7DefenseAttributeDurMod@GAME@@6B@
5D5658 - ??_7DefenseAttributeDurMod_Aether@GAME@@6B@
5D59C8 - ??_7DefenseAttributeDurMod_Bleeding@GAME@@6B@
5D55A8 - ??_7DefenseAttributeDurMod_Chaos@GAME@@6B@
5D5A78 - ??_7DefenseAttributeDurMod_Cold@GAME@@6B@
5D5868 - ??_7DefenseAttributeDurMod_Fire@GAME@@6B@
5D57B8 - ??_7DefenseAttributeDurMod_Life@GAME@@6B@
5D5448 - ??_7DefenseAttributeDurMod_LifeLeach@GAME@@6B@
5D5708 - ??_7DefenseAttributeDurMod_Lightning@GAME@@6B@
5D54F8 - ??_7DefenseAttributeDurMod_ManaLeach@GAME@@6B@
5D5B28 - ??_7DefenseAttributeDurMod_Physical@GAME@@6B@
5D5918 - ??_7DefenseAttributeDurMod_Poison@GAME@@6B@
5D6D08 - ??_7DefenseAttributeDur_Aether@GAME@@6B@
5D7288 - ??_7DefenseAttributeDur_Bleeding@GAME@@6B@
5D6F18 - ??_7DefenseAttributeDur_Chaos@GAME@@6B@
5D7128 - ??_7DefenseAttributeDur_Cold@GAME@@6B@
5D71D8 - ??_7DefenseAttributeDur_Fire@GAME@@6B@
5D6E68 - ??_7DefenseAttributeDur_Life@GAME@@6B@
5D6DB8 - ??_7DefenseAttributeDur_LifeLeach@GAME@@6B@
5D7078 - ??_7DefenseAttributeDur_Lightning@GAME@@6B@
5D6BA8 - ??_7DefenseAttributeDur_ManaLeach@GAME@@6B@
5D7338 - ??_7DefenseAttributeDur_Physical@GAME@@6B@
5D6FC8 - ??_7DefenseAttributeDur_Poison@GAME@@6B@
5D6A48 - ??_7DefenseAttributeMisc_BlockAmountModifier@GAME@@6B@
5D6C58 - ??_7DefenseAttributeMisc_BlockModifier@GAME@@6B@
5D6AF8 - ??_7DefenseAttributeMisc_Reflect@GAME@@6B@
5D6998 - ??_7DefenseAttributeMisc_ReflectModifier@GAME@@6B@
56F2D0 - ??_7DefenseAttributeStore@GAME@@6B@
576CE8 - ??_7DefenseAttributeStore_Character@GAME@@6B@
5E82C0 - ??_7DefenseAttributeStore_Equipment@GAME@@6B@
56F4F8 - ??_7DefenseAttributeStore_Max@GAME@@6B@
56F530 - ??_7DefenseAttributeStore_Min@GAME@@6B@
56F300 - ??_7DefenseAttributeStore_Skill@GAME@@6B@
5D8A98 - ??_7DefenseAttribute_BaseProtectionAbsorption@GAME@@6B@
5D89E8 - ??_7DefenseAttribute_SkillProtectionAbsorption@GAME@@6B@
5D4530 - ??_7DefenseAttribute_Typical@GAME@@6B@
5DC320 - ??_7DestroyGravestonePacket@GAME@@6B@
5DC2E0 - ??_7DestroyItemTeleportPacket@GAME@@6B@
5D8B78 - ??_7Destructible@GAME@@6BEquationAlgebraResolver@1@@
601CA8 - ??_7Destructible@GAME@@6BICrowdAgent@CROWD@@@
5D8B60 - ??_7Destructible@GAME@@6BILootContainer@1@@
5D8F30 - ??_7Destructible@GAME@@6BIPhysics2@1@@
5D8B88 - ??_7Destructible@GAME@@6BObject@1@@
570948 - ??_7DestructibleHookPack@GAME@@6B@
573F60 - ??_7DetachItemConfigCmd@GAME@@6B@
5F0D38 - ??_7DetachItemConfigCmdPacket@GAME@@6B@
574DE0 - ??_7DieAction@GAME@@6B@
5F1138 - ??_7DiePacket@GAME@@6B@
5DC060 - ??_7DifficultyRampUpdatePacket@GAME@@6B@
5DBE60 - ??_7DisengageContainerPacket@GAME@@6B@
5DAB88 - ??_7DisengageEndlessShrinePacket@GAME@@6B@
5DBFA0 - ??_7DisengageNpcPacket@GAME@@6B@
5DC660 - ??_7DisengageShrinePacket@GAME@@6B@
5738A8 - ??_7DissolveActorDeathHandler@GAME@@6B@
5DAD48 - ??_7DungeonProgressToClientPacket@GAME@@6B@
5DAD88 - ??_7DungeonProgressToServerPacket@GAME@@6B@
5DAC88 - ??_7DungeonSoundPacket@GAME@@6B@
5D9FD0 - ??_7DurationDamageManager@GAME@@6B@
601CA8 - ??_7DynamicTeleporter@GAME@@6BICrowdAgent@CROWD@@@
5F9D68 - ??_7DynamicTeleporter@GAME@@6BIPhysics2@1@@
5DA008 - ??_7DynamicTeleporter@GAME@@6BObject@1@@
573CC0 - ??_7EnchanterDismantleConfigCmd@GAME@@6B@
5F04F8 - ??_7EnchanterDismantleConfigCmdPacket@GAME@@6B@
573CD8 - ??_7EnchanterRecoveryConfigCmd@GAME@@6B@
5F0538 - ??_7EnchanterRecoveryConfigCmdPacket@GAME@@6B@
573CA8 - ??_7EnchanterTinkerConfigCmd@GAME@@6B@
5F04B8 - ??_7EnchanterTinkerConfigCmdPacket@GAME@@6B@
5D9058 - ??_7EndlessBuffShrine@GAME@@6B@
601CA8 - ??_7EndlessBuffShrine@GAME@@6BICrowdAgent@CROWD@@@
5F9D68 - ??_7EndlessBuffShrine@GAME@@6BIPhysics2@1@@
5D9070 - ??_7EndlessBuffShrine@GAME@@6BObject@1@@
5D9BA0 - ??_7EndlessDungeon_Generator@GAME@@6B@
5DBF20 - ??_7EngageContainerRequestPacket@GAME@@6B@
5DBEE0 - ??_7EngageContainerResponsePacket@GAME@@6B@
5DAC08 - ??_7EngageEndlessShrineRequestPacket@GAME@@6B@
5DABC8 - ??_7EngageEndlessShrineResponsePacket@GAME@@6B@
574B68 - ??_7EngageNpcAction@GAME@@6B@
5F0FA8 - ??_7EngageNpcPacket@GAME@@6B@
5DBFE0 - ??_7EngageNpcRequestPacket@GAME@@6B@
5DBF60 - ??_7EngageNpcResponsePacket@GAME@@6B@
5DC720 - ??_7EngageShrineRequestPacket@GAME@@6B@
5DC6E0 - ??_7EngageShrineResponsePacket@GAME@@6B@
567610 - ??_7EquipmentCtrl@GAME@@6B@
5DC7A0 - ??_7ExperienceNotificationPacket@GAME@@6B@
577950 - ??_7FactionPack@GAME@@6B@
5DB188 - ??_7FactionToClientPacket@GAME@@6B@
573830 - ??_7FadeActorDeathHandler@GAME@@6B@
5DD1D0 - ??_7FilterCharacterAction@GAME@@6B@
5DD1D8 - ??_7FilterGetAllPlayers@GAME@@6B@
5DD1E0 - ??_7FilterGetPlayerSpawnPoint@GAME@@6B@
5DD1D0 - ??_7FilterMountAction@GAME@@6B@
5DD1D0 - ??_7FilterMountedCharacterAction@GAME@@6B@
601CA8 - ??_7FixedActor@GAME@@6BICrowdAgent@CROWD@@@
5F9D68 - ??_7FixedActor@GAME@@6BIPhysics2@1@@
5DD1E8 - ??_7FixedActor@GAME@@6BObject@1@@
601CA8 - ??_7FixedDoor@GAME@@6BICrowdAgent@CROWD@@@
5F9D68 - ??_7FixedDoor@GAME@@6BIPhysics2@1@@
5DD570 - ??_7FixedDoor@GAME@@6BObject@1@@
601CA8 - ??_7FixedItem@GAME@@6BICrowdAgent@CROWD@@@
5F9D68 - ??_7FixedItem@GAME@@6BIPhysics2@1@@
5DD920 - ??_7FixedItem@GAME@@6BObject@1@@
601CA8 - ??_7FixedItemBlastContainer@GAME@@6BICrowdAgent@CROWD@@@
5F9D68 - ??_7FixedItemBlastContainer@GAME@@6BIPhysics2@1@@
5DDD18 - ??_7FixedItemBlastContainer@GAME@@6BObject@1@@
601CA8 - ??_7FixedItemContainer@GAME@@6BICrowdAgent@CROWD@@@
5F9D68 - ??_7FixedItemContainer@GAME@@6BIPhysics2@1@@
5DE188 - ??_7FixedItemContainer@GAME@@6BObject@1@@
5DE580 - ??_7FixedItemContainerController@GAME@@6BEquationAlgebraResolver@1@@
5DF2D0 - ??_7FixedItemContainerController@GAME@@6BILootContainer@1@@
5DE5D8 - ??_7FixedItemController@GAME@@6BEquationAlgebraResolver@1@@
5DF2D0 - ??_7FixedItemController@GAME@@6BILootContainer@1@@
601CA8 - ??_7FixedItemDoor@GAME@@6BICrowdAgent@CROWD@@@
5F9D68 - ??_7FixedItemDoor@GAME@@6BIPhysics2@1@@
5DEA48 - ??_7FixedItemDoor@GAME@@6BObject@1@@
601CA8 - ??_7FixedItemDoorBase@GAME@@6BICrowdAgent@CROWD@@@
5F9D68 - ??_7FixedItemDoorBase@GAME@@6BIPhysics2@1@@
5DEE60 - ??_7FixedItemDoorBase@GAME@@6BObject@1@@
5DF278 - ??_7FixedItemDoorController@GAME@@6BEquationAlgebraResolver@1@@
5DF2D0 - ??_7FixedItemDoorController@GAME@@6BILootContainer@1@@
601CA8 - ??_7FixedItemDoorSwapping@GAME@@6BICrowdAgent@CROWD@@@
5F9D68 - ??_7FixedItemDoorSwapping@GAME@@6BIPhysics2@1@@
5DE630 - ??_7FixedItemDoorSwapping@GAME@@6BObject@1@@
601CA8 - ??_7FixedItemGravestone@GAME@@6BICrowdAgent@CROWD@@@
5F9D68 - ??_7FixedItemGravestone@GAME@@6BIPhysics2@1@@
5DF2E8 - ??_7FixedItemGravestone@GAME@@6BObject@1@@
601CA8 - ??_7FixedItemQuestObject@GAME@@6BICrowdAgent@CROWD@@@
5F9D68 - ??_7FixedItemQuestObject@GAME@@6BIPhysics2@1@@
5DF6E0 - ??_7FixedItemQuestObject@GAME@@6BObject@1@@
601CA8 - ??_7FixedItemShrine@GAME@@6BICrowdAgent@CROWD@@@
5F9D68 - ??_7FixedItemShrine@GAME@@6BIPhysics2@1@@
5DFAD8 - ??_7FixedItemShrine@GAME@@6BObject@1@@
5DFED0 - ??_7FixedItemShrineController@GAME@@6BEquationAlgebraResolver@1@@
5DF2D0 - ??_7FixedItemShrineController@GAME@@6BILootContainer@1@@
5A8840 - ??_7FixedItemSkill@GAME@@6B@
5DE140 - ??_7FixedItemSkillTargetConfigCmd@GAME@@6B@
5F02F8 - ??_7FixedItemSkillTargetConfigCmdPacket@GAME@@6B@
5A8800 - ??_7FixedItemSkill_Buff@GAME@@6B@
5A87C0 - ??_7FixedItemSkill_SpawnMonster@GAME@@6B@
5DE170 - ??_7FixedItemStateChangeConfigCmd@GAME@@6B@
5F0378 - ??_7FixedItemStateChangeConfigCmdPacket@GAME@@6B@
5DE158 - ??_7FixedItemTargetConfigCmd@GAME@@6B@
5F0338 - ??_7FixedItemTargetConfigCmdPacket@GAME@@6B@
601CA8 - ??_7FixedItemTeleport@GAME@@6BICrowdAgent@CROWD@@@
5F9D68 - ??_7FixedItemTeleport@GAME@@6BIPhysics2@1@@
5DFF28 - ??_7FixedItemTeleport@GAME@@6BObject@1@@
601CA8 - ??_7FixedItemTyphonPortal@GAME@@6BICrowdAgent@CROWD@@@
5F9D68 - ??_7FixedItemTyphonPortal@GAME@@6BIPhysics2@1@@
5E0320 - ??_7FixedItemTyphonPortal@GAME@@6BObject@1@@
601CA8 - ??_7FixedItemWell@GAME@@6BICrowdAgent@CROWD@@@
5F9D68 - ??_7FixedItemWell@GAME@@6BIPhysics2@1@@
5E0718 - ??_7FixedItemWell@GAME@@6BObject@1@@
601CA8 - ??_7FixedLever@GAME@@6BICrowdAgent@CROWD@@@
5F9D68 - ??_7FixedLever@GAME@@6BIPhysics2@1@@
5E0B10 - ??_7FixedLever@GAME@@6BObject@1@@
5E0EA8 - ??_7FlameBeam@GAME@@6B@
601CA8 - ??_7FlameBeam@GAME@@6BICrowdAgent@CROWD@@@
5785D8 - ??_7FlameBeam@GAME@@6BIPhysics2@1@@
5E0F00 - ??_7FlameBeam@GAME@@6BObject@1@@
5DAD08 - ??_7FloorProgressToClientPacket@GAME@@6B@
5F16B8 - ??_7FrustumUpdatePacket@GAME@@6B@
601CA8 - ??_7Fx@GAME@@6BICrowdAgent@CROWD@@@
5785D8 - ??_7Fx@GAME@@6BIPhysics2@1@@
5E1568 - ??_7Fx@GAME@@6BObject@1@@
601CA8 - ??_7FxMesh@GAME@@6BICrowdAgent@CROWD@@@
5785D8 - ??_7FxMesh@GAME@@6BIPhysics2@1@@
5E1840 - ??_7FxMesh@GAME@@6BObject@1@@
601CA8 - ??_7FxPak@GAME@@6BICrowdAgent@CROWD@@@
5785D8 - ??_7FxPak@GAME@@6BIPhysics2@1@@
5E1B30 - ??_7FxPak@GAME@@6BObject@1@@
5E2978 - ??_7GMIActor@GAME@@6B@
601CA8 - ??_7GMIActor@GAME@@6BICrowdAgent@CROWD@@@
5E25B0 - ??_7GMIActor@GAME@@6BIPhysics2@1@@
5E2980 - ??_7GMIActor@GAME@@6BObject@1@@
5E25A8 - ??_7GMIActor_Icy@GAME@@6B@
601CA8 - ??_7GMIActor_Icy@GAME@@6BICrowdAgent@CROWD@@@
5E25B0 - ??_7GMIActor_Icy@GAME@@6BIPhysics2@1@@
5E25F0 - ??_7GMIActor_Icy@GAME@@6BObject@1@@
5DC0E0 - ??_7GameBalanceUpdatePacket@GAME@@6B@
5E20C8 - ??_7GameEngine@GAME@@6B@
5DA4F8 - ??_7GameEngineInboundInterface@GAME@@6B@
5DB3D8 - ??_7GameEngineNetworkInterface@GAME@@6B@
5DA840 - ??_7GameEngineOutboundInterface@GAME@@6B@
5DC0A0 - ??_7GameWonPacket@GAME@@6B@
5E21A8 - ??_7GarmentManager@GAME@@6B@
601CA8 - ??_7GibEffectEntity@GAME@@6BICrowdAgent@CROWD@@@
5785D8 - ??_7GibEffectEntity@GAME@@6BIPhysics2@1@@
5EECD8 - ??_7GibEffectEntity@GAME@@6BObject@1@@
5DB0C8 - ??_7GiveGoldPacket@GAME@@6B@
56F368 - ??_7GoldGenerator@GAME@@6B@
5FB590 - ??_7Guard@GAME@@6BICrowdAgent@CROWD@@@
5EF818 - ??_7Guard@GAME@@6BIPhysics2@1@@
5E2D08 - ??_7Guard@GAME@@6BObject@1@@
601CA8 - ??_7HallOfFameCamera@GAME@@6BICrowdAgent@CROWD@@@
5F9D68 - ??_7HallOfFameCamera@GAME@@6BIPhysics2@1@@
5E3578 - ??_7HallOfFameCamera@GAME@@6BObject@1@@
601CA8 - ??_7HallOfFameStand@GAME@@6BICrowdAgent@CROWD@@@
5F9D68 - ??_7HallOfFameStand@GAME@@6BIPhysics2@1@@
5E38F0 - ??_7HallOfFameStand@GAME@@6BObject@1@@
5FB590 - ??_7Hireling@GAME@@6BICrowdAgent@CROWD@@@
5EF818 - ??_7Hireling@GAME@@6BIPhysics2@1@@
5E3C68 - ??_7Hireling@GAME@@6BObject@1@@
5708C0 - ??_7HotSlotOption@GAME@@6B@
570840 - ??_7HotSlotOptionPotion@GAME@@6B@
5E44D8 - ??_7HotSlotOptionScroll@GAME@@6B@
5C9030 - ??_7HotSlotOptionSkill@GAME@@6B@
5756A0 - ??_7IdleAction@GAME@@6B@
5F15E8 - ??_7IdleActionPacket@GAME@@6B@
574F10 - ??_7ImmobilizeAction@GAME@@6B@
5F1188 - ??_7ImmobilizePacket@GAME@@6B@
5F0AB8 - ??_7IncBaseDexterityConfigCmdPacket@GAME@@6B@
5F0A38 - ??_7IncBaseIntelligenceConfigCmdPacket@GAME@@6B@
5F09B8 - ??_7IncBaseLifeConfigCmdPacket@GAME@@6B@
5F0978 - ??_7IncBaseManaConfigCmdPacket@GAME@@6B@
5F0B38 - ??_7IncBaseStrengthConfigCmdPacket@GAME@@6B@
573EE8 - ??_7IncrementBaseDexterityConfigCmd@GAME@@6B@
573EB8 - ??_7IncrementBaseIntelligenceConfigCmd@GAME@@6B@
573E88 - ??_7IncrementBaseLifeConfigCmd@GAME@@6B@
573E58 - ??_7IncrementBaseManaConfigCmd@GAME@@6B@
573F18 - ??_7IncrementBaseStrengthConfigCmd@GAME@@6B@
5E20E8 - ??_7InspectHelperPacket@GAME@@6B@
5DC5A0 - ??_7InspectRequestPacket@GAME@@6B@
5A8888 - ??_7InteractableHookPack@GAME@@6B@
5E4570 - ??_7Inventory@GAME@@6B@
5C9250 - ??_7InventorySack@GAME@@6B@
5DB248 - ??_7InvitePartyConfigCmdPacket@GAME@@6B@
5F6CD0 - ??_7Item@GAME@@6B@
601CA8 - ??_7Item@GAME@@6BICrowdAgent@CROWD@@@
5F78F0 - ??_7Item@GAME@@6BIPhysics2@1@@
5E4578 - ??_7Item@GAME@@6BObject@1@@
5F6CD0 - ??_7ItemArtifact@GAME@@6B@
601CA8 - ??_7ItemArtifact@GAME@@6BICrowdAgent@CROWD@@@
5F78F0 - ??_7ItemArtifact@GAME@@6BIPhysics2@1@@
5E4B70 - ??_7ItemArtifact@GAME@@6BObject@1@@
5E5DA8 - ??_7ItemArtifactFormula@GAME@@6B@
601CA8 - ??_7ItemArtifactFormula@GAME@@6BICrowdAgent@CROWD@@@
5F78F0 - ??_7ItemArtifactFormula@GAME@@6BIPhysics2@1@@
5E5DB8 - ??_7ItemArtifactFormula@GAME@@6BObject@1@@
5F6CD0 - ??_7ItemAttributeReset@GAME@@6B@
601CA8 - ??_7ItemAttributeReset@GAME@@6BICrowdAgent@CROWD@@@
5F78F0 - ??_7ItemAttributeReset@GAME@@6BIPhysics2@1@@
5E63C8 - ??_7ItemAttributeReset@GAME@@6BObject@1@@
5F6CD0 - ??_7ItemCharm@GAME@@6B@
601CA8 - ??_7ItemCharm@GAME@@6BICrowdAgent@CROWD@@@
5F78F0 - ??_7ItemCharm@GAME@@6BIPhysics2@1@@
5E69C0 - ??_7ItemCharm@GAME@@6BObject@1@@
5F6CD0 - ??_7ItemDevotionReset@GAME@@6B@
601CA8 - ??_7ItemDevotionReset@GAME@@6BICrowdAgent@CROWD@@@
5F78F0 - ??_7ItemDevotionReset@GAME@@6BIPhysics2@1@@
5E7020 - ??_7ItemDevotionReset@GAME@@6BObject@1@@
5F6CD0 - ??_7ItemDifficultyUnlock@GAME@@6B@
601CA8 - ??_7ItemDifficultyUnlock@GAME@@6BICrowdAgent@CROWD@@@
5F78F0 - ??_7ItemDifficultyUnlock@GAME@@6BIPhysics2@1@@
5E7648 - ??_7ItemDifficultyUnlock@GAME@@6BObject@1@@
5F6CD0 - ??_7ItemEnchantment@GAME@@6B@
601CA8 - ??_7ItemEnchantment@GAME@@6BICrowdAgent@CROWD@@@
5F78F0 - ??_7ItemEnchantment@GAME@@6BIPhysics2@1@@
5E7C70 - ??_7ItemEnchantment@GAME@@6BObject@1@@
5E8468 - ??_7ItemEquipment@GAME@@6B@
601CA8 - ??_7ItemEquipment@GAME@@6BICrowdAgent@CROWD@@@
5F78F0 - ??_7ItemEquipment@GAME@@6BIPhysics2@1@@
5E8478 - ??_7ItemEquipment@GAME@@6BObject@1@@
5F6CD0 - ??_7ItemFactionBooster@GAME@@6B@
601CA8 - ??_7ItemFactionBooster@GAME@@6BICrowdAgent@CROWD@@@
5F78F0 - ??_7ItemFactionBooster@GAME@@6BIPhysics2@1@@
5E9080 - ??_7ItemFactionBooster@GAME@@6BObject@1@@
5F6CD0 - ??_7ItemFactionWarrant@GAME@@6B@
601CA8 - ??_7ItemFactionWarrant@GAME@@6BICrowdAgent@CROWD@@@
5F78F0 - ??_7ItemFactionWarrant@GAME@@6BIPhysics2@1@@
5E8A88 - ??_7ItemFactionWarrant@GAME@@6BObject@1@@
5E9678 - ??_7ItemHookPack@GAME@@6B@
5F6CD0 - ??_7ItemNote@GAME@@6B@
601CA8 - ??_7ItemNote@GAME@@6BICrowdAgent@CROWD@@@
5F78F0 - ??_7ItemNote@GAME@@6BIPhysics2@1@@
5E9698 - ??_7ItemNote@GAME@@6BObject@1@@
5E5DA8 - ??_7ItemRandomSetFormula@GAME@@6B@
601CA8 - ??_7ItemRandomSetFormula@GAME@@6BICrowdAgent@CROWD@@@
5F78F0 - ??_7ItemRandomSetFormula@GAME@@6BIPhysics2@1@@
5E5178 - ??_7ItemRandomSetFormula@GAME@@6BObject@1@@
5F6CD0 - ??_7ItemRelic@GAME@@6B@
601CA8 - ??_7ItemRelic@GAME@@6BICrowdAgent@CROWD@@@
5F78F0 - ??_7ItemRelic@GAME@@6BIPhysics2@1@@
5E9C90 - ??_7ItemRelic@GAME@@6BObject@1@@
573600 - ??_7ItemSet@GAME@@6BAttributePak@1@@
5735F0 - ??_7ItemSet@GAME@@6BEquationAlgebraResolver@1@@
5E5DA8 - ??_7ItemSetFormula@GAME@@6B@
601CA8 - ??_7ItemSetFormula@GAME@@6BICrowdAgent@CROWD@@@
5F78F0 - ??_7ItemSetFormula@GAME@@6BIPhysics2@1@@
5E5790 - ??_7ItemSetFormula@GAME@@6BObject@1@@
5F6CD0 - ??_7ItemTransmuter@GAME@@6B@
601CA8 - ??_7ItemTransmuter@GAME@@6BICrowdAgent@CROWD@@@
5F78F0 - ??_7ItemTransmuter@GAME@@6BIPhysics2@1@@
5EA8F0 - ??_7ItemTransmuter@GAME@@6BObject@1@@
5F6CD0 - ??_7ItemTransmuterSet@GAME@@6B@
601CA8 - ??_7ItemTransmuterSet@GAME@@6BICrowdAgent@CROWD@@@
5F78F0 - ??_7ItemTransmuterSet@GAME@@6BIPhysics2@1@@
5EA2F8 - ??_7ItemTransmuterSet@GAME@@6BObject@1@@
5DB148 - ??_7JoinPartyConfigCmdPacket@GAME@@6B@
575288 - ??_7JumpAttackAction@GAME@@6B@
5F13B8 - ??_7JumpToAttackPacket@GAME@@6B@
601CA8 - ??_7LightOfRaMarker@GAME@@6BICrowdAgent@CROWD@@@
5F9D68 - ??_7LightOfRaMarker@GAME@@6BIPhysics2@1@@
60BE98 - ??_7LightOfRaMarker@GAME@@6BObject@1@@
5EB7D8 - ??_7Lightning@GAME@@6B@
601CA8 - ??_7Lightning@GAME@@6BICrowdAgent@CROWD@@@
5785D8 - ??_7Lightning@GAME@@6BIPhysics2@1@@
5EB830 - ??_7Lightning@GAME@@6BObject@1@@
575608 - ??_7LongIdleAction@GAME@@6B@
5F1548 - ??_7LongIdleActionPacket@GAME@@6B@
574CA0 - ??_7LookAtAction@GAME@@6B@
5F1098 - ??_7LookAtActionPacket@GAME@@6B@
5A8770 - ??_7LootBase@GAME@@6B@
5EBE20 - ??_7LootItemTableRandomizer@GAME@@6B@
5EBAD0 - ??_7LootItemTableRandomizer_Dyn@GAME@@6B@
5A8710 - ??_7LootItemTable_DynWeight@GAME@@6BEquationAlgebraResolver@1@@
5A8720 - ??_7LootItemTable_DynWeight@GAME@@6BLootBase@1@@
5A86B8 - ??_7LootItemTable_FixedWeight@GAME@@6B@
5EDAE0 - ??_7LootLoader@GAME@@6B@
5A8668 - ??_7LootMasterTable@GAME@@6B@
577838 - ??_7LootRandomizerTable@GAME@@6B@
579B88 - ??_7LootRandomizerTable_Dynamic@GAME@@6B@
5A8628 - ??_7LootTable@GAME@@6B@
5DCD70 - ??_7MarketArmor@GAME@@6B@
5DCD20 - ??_7MarketArmor_Chest@GAME@@6B@
5DCC80 - ??_7MarketArmor_Feet@GAME@@6B@
5DCCD0 - ??_7MarketArmor_Hands@GAME@@6B@
5DCC30 - ??_7MarketArmor_Head@GAME@@6B@
5DCB90 - ??_7MarketArmor_Legs@GAME@@6B@
5DCAF0 - ??_7MarketArmor_Shield@GAME@@6B@
5DCB40 - ??_7MarketArmor_Shoulders@GAME@@6B@
5DCA50 - ??_7MarketArmor_Used@GAME@@6B@
5DCBE0 - ??_7MarketArmor_Waist@GAME@@6B@
5DC220 - ??_7MarketC2SPurchaseRequestPacket@GAME@@6B@
5DC2A0 - ??_7MarketC2SSellBackPacket@GAME@@6B@
5DC260 - ??_7MarketC2SUpdateRequestPacket@GAME@@6B@
5DD180 - ??_7MarketMiniMart@GAME@@6B@
5DC9B0 - ??_7MarketMisc_Amulet@GAME@@6B@
5DC870 - ??_7MarketMisc_List@GAME@@6B@
5DC910 - ??_7MarketMisc_Medal@GAME@@6B@
5DCAA0 - ??_7MarketMisc_Potion@GAME@@6B@
5DCA00 - ??_7MarketMisc_Ring@GAME@@6B@
5DC820 - ??_7MarketMisc_Scroll@GAME@@6B@
5DC8C0 - ??_7MarketMisc_Static@GAME@@6B@
5DC960 - ??_7MarketMisc_Used@GAME@@6B@
5DC1A0 - ??_7MarketS2CPurchaseConfirmationPacket@GAME@@6B@
5DC160 - ??_7MarketS2CPurchaseDeniedPacket@GAME@@6B@
5DC1E0 - ??_7MarketS2CStatusUpdatePacket@GAME@@6B@
5DC120 - ??_7MarketS2CUpdatePacket@GAME@@6B@
5DD130 - ??_7MarketWeapon@GAME@@6B@
5DD090 - ??_7MarketWeapon_Axe@GAME@@6B@
5DCEB0 - ??_7MarketWeapon_Dagger@GAME@@6B@
5DCFF0 - ??_7MarketWeapon_Mace@GAME@@6B@
5DD0E0 - ??_7MarketWeapon_Ranged1h@GAME@@6B@
5DD040 - ??_7MarketWeapon_Ranged2h@GAME@@6B@
5DCE10 - ??_7MarketWeapon_Scepter@GAME@@6B@
5DCF50 - ??_7MarketWeapon_Spear@GAME@@6B@
5DCFA0 - ??_7MarketWeapon_Staff@GAME@@6B@
5DCF00 - ??_7MarketWeapon_Sword@GAME@@6B@
5DCE60 - ??_7MarketWeapon_Used1@GAME@@6B@
5DCDC0 - ??_7MarketWeapon_Used2@GAME@@6B@
5FB590 - ??_7Monster@GAME@@6BICrowdAgent@CROWD@@@
5EF818 - ??_7Monster@GAME@@6BIPhysics2@1@@
5EEFA8 - ??_7Monster@GAME@@6BObject@1@@
5D9058 - ??_7MonsterShrine@GAME@@6B@
601CA8 - ??_7MonsterShrine@GAME@@6BICrowdAgent@CROWD@@@
5F9D68 - ??_7MonsterShrine@GAME@@6BIPhysics2@1@@
611AC0 - ??_7MonsterShrine@GAME@@6BObject@1@@
5DB960 - ??_7MonsterUseControllerPacket@GAME@@6B@
575200 - ??_7MoveAttackAction@GAME@@6B@
5F1368 - ??_7MoveAttackPacket@GAME@@6B@
575570 - ??_7MoveToAction@GAME@@6B@
5F1598 - ??_7MoveToPacket@GAME@@6B@
5EFBD8 - ??_7Mutator@GAME@@6B@
5DB760 - ??_7MutatorRequestPacket@GAME@@6B@
5F0E08 - ??_7NRLoaderStatePacket@GAME@@6B@
5F1738 - ??_7NackEntityPacket@GAME@@6B@
601CA8 - ??_7NavBlocker@GAME@@6BICrowdAgent@CROWD@@@
5F9D68 - ??_7NavBlocker@GAME@@6BIPhysics2@1@@
5EFC00 - ??_7NavBlocker@GAME@@6BObject@1@@
5F5700 - ??_7Npc@GAME@@6BICrowdAgent@CROWD@@@
5EF818 - ??_7Npc@GAME@@6BIPhysics2@1@@
5F1908 - ??_7Npc@GAME@@6BObject@1@@
5F5700 - ??_7NpcCaravan@GAME@@6BICrowdAgent@CROWD@@@
5EF818 - ??_7NpcCaravan@GAME@@6BIPhysics2@1@@
5F21E0 - ??_7NpcCaravan@GAME@@6BObject@1@@
5F5700 - ??_7NpcCrafter@GAME@@6BICrowdAgent@CROWD@@@
5EF818 - ??_7NpcCrafter@GAME@@6BIPhysics2@1@@
5F2AB8 - ??_7NpcCrafter@GAME@@6BObject@1@@
5F5700 - ??_7NpcEnchanter@GAME@@6BICrowdAgent@CROWD@@@
5EF818 - ??_7NpcEnchanter@GAME@@6BIPhysics2@1@@
5F3390 - ??_7NpcEnchanter@GAME@@6BObject@1@@
5F5700 - ??_7NpcMerchant@GAME@@6BICrowdAgent@CROWD@@@
5EF818 - ??_7NpcMerchant@GAME@@6BIPhysics2@1@@
5F3C78 - ??_7NpcMerchant@GAME@@6BObject@1@@
5F5700 - ??_7NpcSkillReallocator@GAME@@6BICrowdAgent@CROWD@@@
5EF818 - ??_7NpcSkillReallocator@GAME@@6BIPhysics2@1@@
5F4550 - ??_7NpcSkillReallocator@GAME@@6BObject@1@@
5DAE88 - ??_7NpcTalkPacket@GAME@@6B@
5F5700 - ??_7NpcTransmuter@GAME@@6BICrowdAgent@CROWD@@@
5EF818 - ??_7NpcTransmuter@GAME@@6BIPhysics2@1@@
5F4E28 - ??_7NpcTransmuter@GAME@@6BObject@1@@
601CA8 - ??_7NpcWanderPoint@GAME@@6BICrowdAgent@CROWD@@@
5F9D68 - ??_7NpcWanderPoint@GAME@@6BIPhysics2@1@@
5F5740 - ??_7NpcWanderPoint@GAME@@6BObject@1@@
5F6CD0 - ??_7OneShot@GAME@@6B@
601CA8 - ??_7OneShot@GAME@@6BICrowdAgent@CROWD@@@
5F78F0 - ??_7OneShot@GAME@@6BIPhysics2@1@@
5F9760 - ??_7OneShot@GAME@@6BObject@1@@
5F6CD0 - ??_7OneShot_Dye@GAME@@6B@
601CA8 - ??_7OneShot_Dye@GAME@@6BICrowdAgent@CROWD@@@
5F78F0 - ??_7OneShot_Dye@GAME@@6BIPhysics2@1@@
5F66C8 - ??_7OneShot_Dye@GAME@@6BObject@1@@
5F6CD0 - ??_7OneShot_EndlessDungeon@GAME@@6B@
601CA8 - ??_7OneShot_EndlessDungeon@GAME@@6BICrowdAgent@CROWD@@@
5F78F0 - ??_7OneShot_EndlessDungeon@GAME@@6BIPhysics2@1@@
5F5AB8 - ??_7OneShot_EndlessDungeon@GAME@@6BObject@1@@
5F6CD0 - ??_7OneShot_Food@GAME@@6B@
601CA8 - ??_7OneShot_Food@GAME@@6BICrowdAgent@CROWD@@@
5F78F0 - ??_7OneShot_Food@GAME@@6BIPhysics2@1@@
5F72E8 - ??_7OneShot_Food@GAME@@6BObject@1@@
5F6CD0 - ??_7OneShot_Gold@GAME@@6B@
601CA8 - ??_7OneShot_Gold@GAME@@6BICrowdAgent@CROWD@@@
5F78F0 - ??_7OneShot_Gold@GAME@@6BIPhysics2@1@@
5F7930 - ??_7OneShot_Gold@GAME@@6BObject@1@@
5F6CD0 - ??_7OneShot_InstantReward@GAME@@6B@
601CA8 - ??_7OneShot_InstantReward@GAME@@6BICrowdAgent@CROWD@@@
5F78F0 - ??_7OneShot_InstantReward@GAME@@6BIPhysics2@1@@
5F60C0 - ??_7OneShot_InstantReward@GAME@@6BObject@1@@
5F6CD0 - ??_7OneShot_Potion@GAME@@6B@
601CA8 - ??_7OneShot_Potion@GAME@@6BICrowdAgent@CROWD@@@
5F78F0 - ??_7OneShot_Potion@GAME@@6BIPhysics2@1@@
5F9158 - ??_7OneShot_Potion@GAME@@6BObject@1@@
5F6CD0 - ??_7OneShot_PotionHealth@GAME@@6B@
601CA8 - ??_7OneShot_PotionHealth@GAME@@6BICrowdAgent@CROWD@@@
5F78F0 - ??_7OneShot_PotionHealth@GAME@@6BIPhysics2@1@@
5F8B50 - ??_7OneShot_PotionHealth@GAME@@6BObject@1@@
5F6CD0 - ??_7OneShot_PotionMana@GAME@@6B@
601CA8 - ??_7OneShot_PotionMana@GAME@@6BICrowdAgent@CROWD@@@
5F78F0 - ??_7OneShot_PotionMana@GAME@@6BIPhysics2@1@@
5F8548 - ??_7OneShot_PotionMana@GAME@@6BObject@1@@
5F6CD0 - ??_7OneShot_Sack@GAME@@6B@
601CA8 - ??_7OneShot_Sack@GAME@@6BICrowdAgent@CROWD@@@
5F78F0 - ??_7OneShot_Sack@GAME@@6BIPhysics2@1@@
5F6CE0 - ??_7OneShot_Sack@GAME@@6BObject@1@@
5F6CD0 - ??_7OneShot_Scroll@GAME@@6B@
601CA8 - ??_7OneShot_Scroll@GAME@@6BICrowdAgent@CROWD@@@
5F78F0 - ??_7OneShot_Scroll@GAME@@6BIPhysics2@1@@
5F7F40 - ??_7OneShot_Scroll@GAME@@6BObject@1@@
5FB590 - ??_7Ormenos@GAME@@6BICrowdAgent@CROWD@@@
5EF818 - ??_7Ormenos@GAME@@6BIPhysics2@1@@
5BE8F8 - ??_7Ormenos@GAME@@6BObject@1@@
601CA8 - ??_7OrmenosDropZone@GAME@@6BICrowdAgent@CROWD@@@
5F9D68 - ??_7OrmenosDropZone@GAME@@6BIPhysics2@1@@
5BF168 - ??_7OrmenosDropZone@GAME@@6BObject@1@@
5FBE50 - ??_7PFxManager@GAME@@6B@
601CA8 - ??_7Paperdoll@GAME@@6BICrowdAgent@CROWD@@@
5F9D68 - ??_7Paperdoll@GAME@@6BIPhysics2@1@@
5F9DA8 - ??_7Paperdoll@GAME@@6BObject@1@@
573AC0 - ??_7ParametersCombat@GAME@@6B@
573AA0 - ??_7ParametersCombatDisplay@GAME@@6B@
5F0E48 - ??_7PartyRequestResponsePacket@GAME@@6B@
601CA8 - ??_7PatrolPoint@GAME@@6BICrowdAgent@CROWD@@@
5F9D68 - ??_7PatrolPoint@GAME@@6BIPhysics2@1@@
5FA138 - ??_7PatrolPoint@GAME@@6BObject@1@@
5FB590 - ??_7Pet@GAME@@6BICrowdAgent@CROWD@@@
5EF818 - ??_7Pet@GAME@@6BIPhysics2@1@@
5FB5D0 - ??_7Pet@GAME@@6BObject@1@@
5FB590 - ??_7PetNonScaling@GAME@@6BICrowdAgent@CROWD@@@
5EF818 - ??_7PetNonScaling@GAME@@6BIPhysics2@1@@
5FA4B0 - ??_7PetNonScaling@GAME@@6BObject@1@@
5FB590 - ??_7PetPlayerScaling@GAME@@6BICrowdAgent@CROWD@@@
5EF818 - ??_7PetPlayerScaling@GAME@@6BIPhysics2@1@@
5FAD20 - ??_7PetPlayerScaling@GAME@@6BObject@1@@
601CA8 - ??_7PhysicsDecoration@GAME@@6BICrowdAgent@CROWD@@@
5FBE58 - ??_7PhysicsDecoration@GAME@@6BIPhysics2@1@@
5FBE98 - ??_7PhysicsDecoration@GAME@@6BObject@1@@
575440 - ??_7PickUpAction@GAME@@6B@
5F14A8 - ??_7PickUpItemPacket@GAME@@6B@
5F0C38 - ??_7PickupItemConfigCmdPacket@GAME@@6B@
574C08 - ??_7PlayAnimationAction@GAME@@6B@
5F1048 - ??_7PlayAnimationActionPacket@GAME@@6B@
573740 - ??_7PlayEffectDeathHandler@GAME@@6B@
573C18 - ??_7PlaySoundConfigCmd@GAME@@6B@
5F02B8 - ??_7PlaySoundConfigCmdPacket@GAME@@6B@
5736C8 - ??_7PlaySoundDeathHandler@GAME@@6B@
5FD100 - ??_7PlayStats@GAME@@6B@
5DAE08 - ??_7PlayVideoCommandPacket@GAME@@6B@
5DAE48 - ??_7PlayVideoRequestPacket@GAME@@6B@
5FCB48 - ??_7Player@GAME@@6BICrowdAgent@CROWD@@@
5FC260 - ??_7Player@GAME@@6BIPhysics2@1@@
5FC2A0 - ??_7Player@GAME@@6BObject@1@@
5669C8 - ??_7PlayerHotSlotCtrl@GAME@@6B@
570838 - ??_7PlayerInventoryCtrl@GAME@@6B@
5FCBA8 - ??_7PlayerManagerClient@GAME@@6B@
5FCB98 - ??_7PlayerManagerServer@GAME@@6B@
5DB308 - ??_7PlayerNetBasicInfo@GAME@@6B@
5F1678 - ??_7PlayerPositionUpdatePacket@GAME@@6B@
601CA8 - ??_7PlayerSpawnPoint@GAME@@6BICrowdAgent@CROWD@@@
5F9D68 - ??_7PlayerSpawnPoint@GAME@@6BIPhysics2@1@@
5FCBB0 - ??_7PlayerSpawnPoint@GAME@@6BObject@1@@
5DB920 - ??_7PostPetSpawnPacket@GAME@@6B@
601CA8 - ??_7ProjectileAreaEffect@GAME@@6BICrowdAgent@CROWD@@@
5FD598 - ??_7ProjectileAreaEffect@GAME@@6BIPhysics2@1@@
5FD188 - ??_7ProjectileAreaEffect@GAME@@6BObject@1@@
601CA8 - ??_7ProjectileArrowLike@GAME@@6BICrowdAgent@CROWD@@@
5FD598 - ??_7ProjectileArrowLike@GAME@@6BIPhysics2@1@@
5FD5D8 - ??_7ProjectileArrowLike@GAME@@6BObject@1@@
601CA8 - ??_7ProjectileBase@GAME@@6BICrowdAgent@CROWD@@@
5FD598 - ??_7ProjectileBase@GAME@@6BIPhysics2@1@@
5FD9E0 - ??_7ProjectileBase@GAME@@6BObject@1@@
601CA8 - ??_7ProjectileExploding@GAME@@6BICrowdAgent@CROWD@@@
5FD598 - ??_7ProjectileExploding@GAME@@6BIPhysics2@1@@
5FE660 - ??_7ProjectileExploding@GAME@@6BObject@1@@
601CA8 - ??_7ProjectileFireballLike@GAME@@6BICrowdAgent@CROWD@@@
5FD598 - ??_7ProjectileFireballLike@GAME@@6BIPhysics2@1@@
5FEA68 - ??_7ProjectileFireballLike@GAME@@6BObject@1@@
601CA8 - ??_7ProjectileGrenade@GAME@@6BICrowdAgent@CROWD@@@
5FEE88 - ??_7ProjectileGrenade@GAME@@6BIPhysics2@1@@
5FEEC8 - ??_7ProjectileGrenade@GAME@@6BObject@1@@
601CA8 - ??_7ProjectileTelekinesis@GAME@@6BICrowdAgent@CROWD@@@
600410 - ??_7ProjectileTelekinesis@GAME@@6BIPhysics2@1@@
600450 - ??_7ProjectileTelekinesis@GAME@@6BObject@1@@
601CA8 - ??_7ProjectileTerrainFollowing@GAME@@6BICrowdAgent@CROWD@@@
5FD598 - ??_7ProjectileTerrainFollowing@GAME@@6BIPhysics2@1@@
600870 - ??_7ProjectileTerrainFollowing@GAME@@6BObject@1@@
601CA8 - ??_7Prop@GAME@@6BICrowdAgent@CROWD@@@
5F9D68 - ??_7Prop@GAME@@6BIPhysics2@1@@
600C90 - ??_7Prop@GAME@@6BObject@1@@
601018 - ??_7Proxy@GAME@@6B@
601CA8 - ??_7Proxy@GAME@@6BICrowdAgent@CROWD@@@
5F9D68 - ??_7Proxy@GAME@@6BIPhysics2@1@@
601028 - ??_7Proxy@GAME@@6BObject@1@@
6013C8 - ??_7ProxyAccessoryPool@GAME@@6B@
601018 - ??_7ProxyAmbush@GAME@@6B@
601CA8 - ??_7ProxyAmbush@GAME@@6BICrowdAgent@CROWD@@@
5F9D68 - ??_7ProxyAmbush@GAME@@6BIPhysics2@1@@
601540 - ??_7ProxyAmbush@GAME@@6BObject@1@@
601018 - ??_7ProxyEndless@GAME@@6B@
601CA8 - ??_7ProxyEndless@GAME@@6BICrowdAgent@CROWD@@@
5F9D68 - ??_7ProxyEndless@GAME@@6BIPhysics2@1@@
6018E0 - ??_7ProxyEndless@GAME@@6BObject@1@@
601018 - ??_7ProxyMenu@GAME@@6B@
601CA8 - ??_7ProxyMenu@GAME@@6BICrowdAgent@CROWD@@@
5F9D68 - ??_7ProxyMenu@GAME@@6BIPhysics2@1@@
601CE8 - ??_7ProxyMenu@GAME@@6BObject@1@@
601CA8 - ??_7Punctuation@GAME@@6BICrowdAgent@CROWD@@@
5F9D68 - ??_7Punctuation@GAME@@6BIPhysics2@1@@
5797F8 - ??_7Punctuation@GAME@@6BObject@1@@
601CA8 - ??_7Puppet@GAME@@6BICrowdAgent@CROWD@@@
5F9D68 - ??_7Puppet@GAME@@6BIPhysics2@1@@
602090 - ??_7Puppet@GAME@@6BObject@1@@
568400 - ??_7Quest2Event@GAME@@6B@
568408 - ??_7Quest2Objective@GAME@@6B@
573B70 - ??_7QuestAnimationCompletedConfigCmd@GAME@@6B@
5F00F8 - ??_7QuestAnimationCompletedConfigCmdPacket@GAME@@6B@
5DBBA0 - ??_7QuestCommandBeginQuestTaskPacket@GAME@@6B@
5DBB60 - ??_7QuestCommandCompleteQuestPacket@GAME@@6B@
5DBBE0 - ??_7QuestCommandCompleteQuestTaskPacket@GAME@@6B@
5DBEA0 - ??_7QuestCommandDeclareTokensPacket@GAME@@6B@
5DB9A0 - ??_7QuestCommandDestroyDestructiblePacket@GAME@@6B@
5DBC20 - ??_7QuestCommandEnableMonsterSkillsPacket@GAME@@6B@
5DBAE0 - ??_7QuestCommandEventPacket@GAME@@6B@
5DBB20 - ??_7QuestCommandGiveTokenPacket@GAME@@6B@
5DBA60 - ??_7QuestCommandGlobalEventPacket@GAME@@6B@
5DBCE0 - ??_7QuestCommandLockChestPacket@GAME@@6B@
5DBD20 - ??_7QuestCommandLockDoorPacket@GAME@@6B@
5DBE20 - ??_7QuestCommandMovePacket@GAME@@6B@
5DBCA0 - ??_7QuestCommandOpenDoorPacket@GAME@@6B@
5DBC60 - ??_7QuestCommandOpenDynGridEntrancePacket@GAME@@6B@
5DBDE0 - ??_7QuestCommandPlayAnimationPacket@GAME@@6B@
5DBAA0 - ??_7QuestCommandRemoveTokenPacket@GAME@@6B@
5DB9E0 - ??_7QuestCommandTakeItemPacket@GAME@@6B@
5DBA20 - ??_7QuestCommandUiNotifyPacket@GAME@@6B@
5DBD60 - ??_7QuestCommandUseSkillPacket@GAME@@6B@
5DBDA0 - ??_7QuestCommandWalkPacket@GAME@@6B@
5F6CD0 - ??_7QuestItem@GAME@@6B@
601CA8 - ??_7QuestItem@GAME@@6BICrowdAgent@CROWD@@@
5F78F0 - ??_7QuestItem@GAME@@6BIPhysics2@1@@
602460 - ??_7QuestItem@GAME@@6BObject@1@@
5DB398 - ??_7QuestMessagePacket@GAME@@6B@
573B88 - ??_7QuestMoveCompletedConfigCmd@GAME@@6B@
5F0138 - ??_7QuestMoveCompletedConfigCmdPacket@GAME@@6B@
601CA8 - ??_7RadiusMagic@GAME@@6BICrowdAgent@CROWD@@@
5F9D68 - ??_7RadiusMagic@GAME@@6BIPhysics2@1@@
602B50 - ??_7RadiusMagic@GAME@@6BObject@1@@
573C60 - ??_7ReclaimDevotionPointConfigCmd@GAME@@6B@
5F0438 - ??_7ReclaimDevotionPointConfigCmdPacket@GAME@@6B@
573DB0 - ??_7ReleaseImmobilizeConfigCmd@GAME@@6B@
5F0738 - ??_7ReleaseImmobilizeConfigCmdPacket@GAME@@6B@
573DE0 - ??_7ReleaseKnockdownConfigCmd@GAME@@6B@
5F07F8 - ??_7ReleaseKnockdownConfigCmdPacket@GAME@@6B@
573F48 - ??_7ReleasePetConfigCmd@GAME@@6B@
5F0CF8 - ??_7ReleasePetConfigCmdPacket@GAME@@6B@
573DC8 - ??_7ReleaseSleepConfigCmd@GAME@@6B@
5F07B8 - ??_7ReleaseSleepConfigCmdPacket@GAME@@6B@
573DF8 - ??_7ReleaseStunConfigCmd@GAME@@6B@
5F0838 - ??_7ReleaseStunConfigCmdPacket@GAME@@6B@
573E10 - ??_7ReleaseTrapConfigCmd@GAME@@6B@
5F0878 - ??_7ReleaseTrapConfigCmdPacket@GAME@@6B@
5DB088 - ??_7RemoteMessagePacket@GAME@@6B@
5DB048 - ??_7RemoteWMessagePacket@GAME@@6B@
573D20 - ??_7RemoveInventoryItemConfigCmd@GAME@@6B@
5F0638 - ??_7RemoveInventoryItemConfigCmdPacket@GAME@@6B@
5DB820 - ??_7RemovePetBonusFxPakPacket@GAME@@6B@
5DB8E0 - ??_7RemovePetBonusPacket@GAME@@6B@
573C00 - ??_7RequestAllyAttackConfigCmd@GAME@@6B@
5F0278 - ??_7RequestAllyAttackConfigCmdPacket@GAME@@6B@
573BE8 - ??_7RequestAllyMoveConfigCmd@GAME@@6B@
5F0238 - ??_7RequestAllyMoveConfigCmdPacket@GAME@@6B@
5DACC8 - ??_7RequestDungeonDataPacket@GAME@@6B@
5DB008 - ??_7RequestSurvivalModeDataPacket@GAME@@6B@
573E28 - ??_7ResetAttributePointsConfigCmd@GAME@@6B@
5F08B8 - ??_7ResetAttributesConfigCmdPacket@GAME@@6B@
574A38 - ??_7RespawnAction@GAME@@6B@
5F0F58 - ??_7RespawnPacket@GAME@@6B@
605318 - ??_7RetaliationAttributeAbsMod_Aether@GAME@@6B@
604F10 - ??_7RetaliationAttributeAbsMod_Chaos@GAME@@6B@
6055C8 - ??_7RetaliationAttributeAbsMod_Cold@GAME@@6B@
604578 - ??_7RetaliationAttributeAbsMod_DamageMultiplier@GAME@@6B@
6051C0 - ??_7RetaliationAttributeAbsMod_Elemental@GAME@@6B@
605470 - ??_7RetaliationAttributeAbsMod_Fire@GAME@@6B@
6049B0 - ??_7RetaliationAttributeAbsMod_Knockdown@GAME@@6B@
605068 - ??_7RetaliationAttributeAbsMod_Life@GAME@@6B@
605720 - ??_7RetaliationAttributeAbsMod_Lightning@GAME@@6B@
6059D0 - ??_7RetaliationAttributeAbsMod_Physical@GAME@@6B@
605CB0 - ??_7RetaliationAttributeAbsMod_Pierce@GAME@@6B@
605E08 - ??_7RetaliationAttributeAbsMod_PierceRatio@GAME@@6B@
605878 - ??_7RetaliationAttributeAbsMod_Poison@GAME@@6B@
604DB8 - ??_7RetaliationAttributeAbsMod_Sleep@GAME@@6B@
604B08 - ??_7RetaliationAttributeAbsMod_Stun@GAME@@6B@
604C60 - ??_7RetaliationAttributeAbsMod_TotalDamageModifier@GAME@@6B@
607DA0 - ??_7RetaliationAttributeAbs_Aether@GAME@@6B@
607968 - ??_7RetaliationAttributeAbs_Chaos@GAME@@6B@
608070 - ??_7RetaliationAttributeAbs_Cold@GAME@@6B@
608610 - ??_7RetaliationAttributeAbs_Confusion@GAME@@6B@
608E80 - ??_7RetaliationAttributeAbs_Convert@GAME@@6B@
607C38 - ??_7RetaliationAttributeAbs_ElementalDamage@GAME@@6B@
608A48 - ??_7RetaliationAttributeAbs_Fear@GAME@@6B@
607F08 - ??_7RetaliationAttributeAbs_Fire@GAME@@6B@
607AD0 - ??_7RetaliationAttributeAbs_Life@GAME@@6B@
6081D8 - ??_7RetaliationAttributeAbs_Lightning@GAME@@6B@
6084A8 - ??_7RetaliationAttributeAbs_PercentCurrentLife@GAME@@6B@
6088E0 - ??_7RetaliationAttributeAbs_Physical@GAME@@6B@
608778 - ??_7RetaliationAttributeAbs_Pierce@GAME@@6B@
608340 - ??_7RetaliationAttributeAbs_Poison@GAME@@6B@
6077E0 - ??_7RetaliationAttributeDurBonus@GAME@@6B@
603888 - ??_7RetaliationAttributeDurMod_Aether@GAME@@6B@
603CD8 - ??_7RetaliationAttributeDurMod_AttackSpeed@GAME@@6B@
604840 - ??_7RetaliationAttributeDurMod_Bleeding@GAME@@6B@
6039F8 - ??_7RetaliationAttributeDurMod_Chaos@GAME@@6B@
6046D0 - ??_7RetaliationAttributeDurMod_Cold@GAME@@6B@
603158 - ??_7RetaliationAttributeDurMod_DefensiveAbility@GAME@@6B@
603FB8 - ??_7RetaliationAttributeDurMod_Fire@GAME@@6B@
604128 - ??_7RetaliationAttributeDurMod_Life@GAME@@6B@
6032C8 - ??_7RetaliationAttributeDurMod_LifeLeach@GAME@@6B@
604298 - ??_7RetaliationAttributeDurMod_Lightning@GAME@@6B@
603718 - ??_7RetaliationAttributeDurMod_ManaLeach@GAME@@6B@
6035A8 - ??_7RetaliationAttributeDurMod_OffensiveAbility@GAME@@6B@
602FE8 - ??_7RetaliationAttributeDurMod_OffensiveReduction@GAME@@6B@
604408 - ??_7RetaliationAttributeDurMod_Physical@GAME@@6B@
603E48 - ??_7RetaliationAttributeDurMod_Poison@GAME@@6B@
603438 - ??_7RetaliationAttributeDurMod_RunSpeed@GAME@@6B@
603B68 - ??_7RetaliationAttributeDurMod_SpellCastSpeed@GAME@@6B@
606708 - ??_7RetaliationAttributeDur_Aether@GAME@@6B@
606580 - ??_7RetaliationAttributeDur_AttackSpeed@GAME@@6B@
6071C0 - ??_7RetaliationAttributeDur_Bleeding@GAME@@6B@
606EB0 - ??_7RetaliationAttributeDur_Chaos@GAME@@6B@
607658 - ??_7RetaliationAttributeDur_Cold@GAME@@6B@
606270 - ??_7RetaliationAttributeDur_DefensiveAbility@GAME@@6B@
6074D0 - ??_7RetaliationAttributeDur_Fire@GAME@@6B@
607038 - ??_7RetaliationAttributeDur_Life@GAME@@6B@
6060E8 - ??_7RetaliationAttributeDur_LifeLeach@GAME@@6B@
606BA0 - ??_7RetaliationAttributeDur_Lightning@GAME@@6B@
605F60 - ??_7RetaliationAttributeDur_ManaLeach@GAME@@6B@
6063F8 - ??_7RetaliationAttributeDur_OffensiveAbility@GAME@@6B@
605B28 - ??_7RetaliationAttributeDur_OffensiveReduction@GAME@@6B@
607348 - ??_7RetaliationAttributeDur_Physical@GAME@@6B@
606D28 - ??_7RetaliationAttributeDur_Poison@GAME@@6B@
606890 - ??_7RetaliationAttributeDur_RunSpeed@GAME@@6B@
606A18 - ??_7RetaliationAttributeDur_SpellCastSpeed@GAME@@6B@
5C9740 - ??_7RetaliationAttributeInfluence@GAME@@6B@
5C98A8 - ??_7RetaliationAttributeReflex@GAME@@6B@
609150 - ??_7RetaliationAttributeReflex_Freeze@GAME@@6B@
608FE8 - ??_7RetaliationAttributeReflex_Knockdown@GAME@@6B@
608D18 - ??_7RetaliationAttributeReflex_Petrify@GAME@@6B@
6092B8 - ??_7RetaliationAttributeReflex_Sleep@GAME@@6B@
609420 - ??_7RetaliationAttributeReflex_Stun@GAME@@6B@
608BB0 - ??_7RetaliationAttributeReflex_Trap@GAME@@6B@
56F218 - ??_7RetaliationAttributeStore@GAME@@6B@
5E82F8 - ??_7RetaliationAttributeStore_Equipment@GAME@@6B@
56F438 - ??_7RetaliationAttributeStore_Max@GAME@@6B@
56F498 - ??_7RetaliationAttributeStore_Min@GAME@@6B@
56F270 - ??_7RetaliationAttributeStore_Skill@GAME@@6B@
574908 - ??_7RotateAction@GAME@@6B@
5F0DB8 - ??_7RotateActionPacket@GAME@@6B@
601CA8 - ??_7Rubble@GAME@@6BICrowdAgent@CROWD@@@
5F9D68 - ??_7Rubble@GAME@@6BIPhysics2@1@@
609588 - ??_7Rubble@GAME@@6BObject@1@@
601CA8 - ??_7ScriptEntity@GAME@@6BICrowdAgent@CROWD@@@
5F9D68 - ??_7ScriptEntity@GAME@@6BIPhysics2@1@@
60A7A0 - ??_7ScriptEntity@GAME@@6BObject@1@@
5C8968 - ??_7ScriptableAction@GAME@@6B@
5C8938 - ??_7ScriptableAction_BeginQuestTask@GAME@@6B@
609A28 - ??_7ScriptableAction_CastSkill@GAME@@6B@
602430 - ??_7ScriptableAction_GenerateRandomValue@GAME@@6B@
5E7C40 - ??_7ScriptableAction_GiveAttribPoint@GAME@@6B@
609930 - ??_7ScriptableAction_GiveDevotion@GAME@@6B@
609A58 - ??_7ScriptableAction_GiveExperience@GAME@@6B@
609AB8 - ??_7ScriptableAction_GiveItem@GAME@@6B@
6099C0 - ??_7ScriptableAction_GiveLevel@GAME@@6B@
609A88 - ??_7ScriptableAction_GiveMoney@GAME@@6B@
6099F0 - ??_7ScriptableAction_GiveRandomItem@GAME@@6B@
5E7618 - ??_7ScriptableAction_GiveSkillPoint@GAME@@6B@
609900 - ??_7ScriptableAction_GiveTribute@GAME@@6B@
609960 - ??_7ScriptableAction_PlayVideo@GAME@@6B@
609990 - ??_7ScriptableAction_UnlockTutorial@GAME@@6B@
609DE8 - ??_7ScriptableCondition@GAME@@6B@
609E40 - ??_7ScriptableCondition_HasFaction@GAME@@6B@
5F17B8 - ??_7ServerSpawnCompletePacket@GAME@@6B@
573B58 - ??_7SetCausesAngerConfigCmd@GAME@@6B@
5F00B8 - ??_7SetCausesAngerConfigCmdPacket@GAME@@6B@
5DAC48 - ??_7SetDungeonTimerPacket@GAME@@6B@
573B28 - ??_7SetFactionConfigCmd@GAME@@6B@
5F0038 - ??_7SetFactionConfigCmdPacket@GAME@@6B@
573B40 - ??_7SetInvincibleConfigCmd@GAME@@6B@
5F0078 - ??_7SetInvincibleConfigCmdPacket@GAME@@6B@
5DB7A0 - ??_7SetMutatorPacket@GAME@@6B@
5DB8A0 - ??_7SetPetBonusPacket@GAME@@6B@
601CA8 - ??_7SetPiece@GAME@@6BICrowdAgent@CROWD@@@
5F9D68 - ??_7SetPiece@GAME@@6BIPhysics2@1@@
60AB80 - ??_7SetPiece@GAME@@6BObject@1@@
5DAF08 - ??_7SetSurvivalRestartsPacket@GAME@@6B@
5DAF88 - ??_7SetSurvivalTimerPacket@GAME@@6B@
5DAF48 - ??_7SetSurvivalWaveTierPacket@GAME@@6B@
573BD0 - ??_7ShowCharacterConfigCmd@GAME@@6B@
5F01B8 - ??_7ShowCharacterConfigCmdPacket@GAME@@6B@
5DB108 - ??_7ShowEntityPacket@GAME@@6B@
577818 - ??_7ShrineHookPack@GAME@@6B@
5DC5E0 - ??_7ShrineRewardPacket@GAME@@6B@
5DB2C8 - ??_7SinglePlayerBasicInfoPacket@GAME@@6B@
5DB318 - ??_7SinglePlayerHeartbeatPacket@GAME@@6B@
573010 - ??_7Skill@GAME@@6B@
5729D0 - ??_7SkillActivated@GAME@@6B@
5710D0 - ??_7SkillActivatedBuffOther@GAME@@6B@
571710 - ??_7SkillActivatedBuffSelf@GAME@@6B@
571D50 - ??_7SkillActivatedSpell@GAME@@6B@
572390 - ??_7SkillActivatedWeapon@GAME@@6B@
570A80 - ??_7SkillActivatedWeaponPool@GAME@@6B@
586930 - ??_7SkillActivated_Suicide@GAME@@6B@
573D50 - ??_7SkillActiveStateUpdateConfigCmd@GAME@@6B@
5F0678 - ??_7SkillActiveStateUpdateConfigCmdPacket@GAME@@6B@
610088 - ??_7SkillAttribute@GAME@@6B@
610548 - ??_7SkillAttributeAccumulator@GAME@@6B@
610250 - ??_7SkillAttributeMod@GAME@@6B@
6101B8 - ??_7SkillAttributeMod_CooldownReduction@GAME@@6B@
610120 - ??_7SkillAttributeMod_ManaCostReduction@GAME@@6B@
56F0E8 - ??_7SkillAttributeStore@GAME@@6B@
5E83B8 - ??_7SkillAttributeStore_Equipment@GAME@@6B@
56F388 - ??_7SkillAttributeStore_Max@GAME@@6B@
56F388 - ??_7SkillAttributeStore_Min@GAME@@6B@
56F120 - ??_7SkillAttributeStore_Skill@GAME@@6B@
6104B0 - ??_7SkillAttributeVal@GAME@@6B@
610418 - ??_7SkillAttributeVal_CooldownReduction@GAME@@6B@
6102E8 - ??_7SkillAttributeVal_ManaCostReduction@GAME@@6B@
610380 - ??_7SkillAttributeVal_ProjectileSpeedModifier@GAME@@6B@
573D38 - ??_7SkillAugmentUpdateConfigCmd@GAME@@6B@
5F05F8 - ??_7SkillAugmentUpdateConfigCmdPacket@GAME@@6B@
5EA2F0 - ??_7SkillAutoCastController@GAME@@6B@
585798 - ??_7SkillBuff@GAME@@6BCombatFilter@1@@
586358 - ??_7SkillBuff@GAME@@6BSkill@1@@
585798 - ??_7SkillBuff_BuffImmobilize@GAME@@6BCombatFilter@1@@
584BE8 - ??_7SkillBuff_BuffImmobilize@GAME@@6BSkill@1@@
585798 - ??_7SkillBuff_Contageous@GAME@@6BCombatFilter@1@@
584038 - ??_7SkillBuff_Contageous@GAME@@6BSkill@1@@
585798 - ??_7SkillBuff_Debuf@GAME@@6BCombatFilter@1@@
584610 - ??_7SkillBuff_Debuf@GAME@@6BSkill@1@@
585798 - ??_7SkillBuff_DebufFreeze@GAME@@6BCombatFilter@1@@
583468 - ??_7SkillBuff_DebufFreeze@GAME@@6BSkill@1@@
585798 - ??_7SkillBuff_DebufRadius@GAME@@6BCombatFilter@1@@
582E90 - ??_7SkillBuff_DebufRadius@GAME@@6BSkill@1@@
585798 - ??_7SkillBuff_DebufTrap@GAME@@6BCombatFilter@1@@
583A50 - ??_7SkillBuff_DebufTrap@GAME@@6BSkill@1@@
585798 - ??_7SkillBuff_Passive@GAME@@6BCombatFilter@1@@
585D80 - ??_7SkillBuff_Passive@GAME@@6BSkill@1@@
585798 - ??_7SkillBuff_PassiveCharged@GAME@@6BCombatFilter@1@@
5857A8 - ??_7SkillBuff_PassiveCharged@GAME@@6BSkill@1@@
585798 - ??_7SkillBuff_PassiveEndless@GAME@@6BCombatFilter@1@@
5851C0 - ??_7SkillBuff_PassiveEndless@GAME@@6BSkill@1@@
5828A8 - ??_7SkillBuff_PassiveShield@GAME@@6BCombatFilter@1@@
5828B8 - ??_7SkillBuff_PassiveShield@GAME@@6BSkill@1@@
5757B0 - ??_7SkillChanneled@GAME@@6B@
601CA8 - ??_7SkillLocation@GAME@@6BICrowdAgent@CROWD@@@
5F9D68 - ??_7SkillLocation@GAME@@6BIPhysics2@1@@
610A00 - ??_7SkillLocation@GAME@@6BObject@1@@
610DC0 - ??_7SkillManager@GAME@@6BEquationAlgebraResolver@1@@
610DD0 - ??_7SkillManager@GAME@@6BSkillManagerBase@1@@
610F18 - ??_7SkillManagerBase@GAME@@6B@
6111C8 - ??_7SkillManagerLite@GAME@@6B@
591C18 - ??_7SkillOnDeath@GAME@@6B@
611360 - ??_7SkillProfile@GAME@@6B@
5822E8 - ??_7SkillSecondary@GAME@@6B@
57EF18 - ??_7SkillSecondary_AttackRadius@GAME@@6B@
581D28 - ??_7SkillSecondary_Bonus@GAME@@6B@
57D808 - ??_7SkillSecondary_BuffAttackRadiusDuration@GAME@@6B@
581768 - ??_7SkillSecondary_BuffRadius@GAME@@6B@
5811A8 - ??_7SkillSecondary_BuffSelfDuration@GAME@@6B@
580BE8 - ??_7SkillSecondary_ChainBonus@GAME@@6B@
580628 - ??_7SkillSecondary_ChainLightning@GAME@@6B@
580068 - ??_7SkillSecondary_ForkLightning@GAME@@6B@
57DDC8 - ??_7SkillSecondary_OnHitBuffRadius@GAME@@6B@
57E388 - ??_7SkillSecondary_OnKillAttackRadius@GAME@@6B@
57FAA0 - ??_7SkillSecondary_PetModifier@GAME@@6B@
57F4E0 - ??_7SkillSecondary_PetSpawn@GAME@@6B@
57E950 - ??_7SkillSecondary_Tether@GAME@@6B@
611108 - ??_7SkillServicesBase@GAME@@6B@
611048 - ??_7SkillServices_Character@GAME@@6B@
573D68 - ??_7SkillStateUpdateConfigCmd@GAME@@6B@
5F06B8 - ??_7SkillStateUpdateConfigCmdPacket@GAME@@6B@
573F30 - ??_7SkillTargetResultConfigCmd@GAME@@6B@
5F0B78 - ??_7SkillTargetResultConfigCmdPacket@GAME@@6B@
5A7FC8 - ??_7Skill_AktaiosLightOfRa@GAME@@6B@
5A6C00 - ??_7Skill_AktaiosMirage@GAME@@6B@
5A65C0 - ??_7Skill_AttackBuff@GAME@@6B@
5A5F78 - ??_7Skill_AttackBuffRadius@GAME@@6B@
5A5938 - ??_7Skill_AttackChain@GAME@@6B@
5A52F8 - ??_7Skill_AttackInherent@GAME@@6B@
59CF18 - ??_7Skill_AttackPathCharge@GAME@@6B@
5A4CB8 - ??_7Skill_AttackProjectile@GAME@@6B@
5B0CB0 - ??_7Skill_AttackProjectileAreaEffect@GAME@@6B@
5A4678 - ??_7Skill_AttackProjectileBurst@GAME@@6B@
5A20C0 - ??_7Skill_AttackProjectileChain@GAME@@6B@
5A4038 - ??_7Skill_AttackProjectileDebuf@GAME@@6B@
5A39D0 - ??_7Skill_AttackProjectileDrop@GAME@@6B@
5A2D50 - ??_7Skill_AttackProjectileFan@GAME@@6B@
57D1C8 - ??_7Skill_AttackProjectileMultiHit@GAME@@6B@
5A3390 - ??_7Skill_AttackProjectileRing@GAME@@6B@
5A2700 - ??_7Skill_AttackProjectileSpawnPet@GAME@@6B@
5A1A78 - ??_7Skill_AttackRadius@GAME@@6B@
57B8B0 - ??_7Skill_AttackRadiusDisengage@GAME@@6B@
57BEF8 - ??_7Skill_AttackRadiusLeap@GAME@@6B@
5A0DE0 - ??_7Skill_AttackRadiusLightning2@GAME@@6B@
5A1428 - ??_7Skill_AttackRadiusLightning@GAME@@6B@
5A0788 - ??_7Skill_AttackRadiusLightningSpawnPet@GAME@@6B@
579BC8 - ??_7Skill_AttackRadiusSpin@GAME@@6B@
57C540 - ??_7Skill_AttackRadiusTeleport@GAME@@6B@
575DF8 - ??_7Skill_AttackSpell@GAME@@6B@
57AEC0 - ??_7Skill_AttackSpellBeam@GAME@@6B@
5A0148 - ??_7Skill_AttackSpellChaos@GAME@@6B@
59FB00 - ??_7Skill_AttackSpellChaosSpawnPet@GAME@@6B@
57A868 - ??_7Skill_AttackSpellCone@GAME@@6B@
57A218 - ??_7Skill_AttackSpellDrain@GAME@@6B@
59D560 - ??_7Skill_AttackSpellReflectLink@GAME@@6BCombatFilter@1@@
59D570 - ??_7Skill_AttackSpellReflectLink@GAME@@6BSkillActivatedSpell@1@@
59F4C0 - ??_7Skill_AttackSpellTeleport@GAME@@6B@
59EE80 - ??_7Skill_AttackSpellTeleportSelf@GAME@@6B@
59E840 - ??_7Skill_AttackTelekinesis@GAME@@6B@
59E1F0 - ??_7Skill_AttackWave@GAME@@6B@
5B1F90 - ??_7Skill_AttackWeapon@GAME@@6B@
5B1310 - ??_7Skill_AttackWeaponBlink@GAME@@6B@
5B1950 - ??_7Skill_AttackWeaponCharge@GAME@@6B@
59DBB0 - ??_7Skill_AttackWeaponRangedSpread@GAME@@6B@
59C298 - ??_7Skill_BuffAttackRadiusDuration@GAME@@6B@
59C8D8 - ??_7Skill_BuffAttackRadiusToggled@GAME@@6B@
59BC58 - ??_7Skill_BuffOther@GAME@@6B@
59AFD0 - ??_7Skill_BuffRadius@GAME@@6B@
59A988 - ??_7Skill_BuffRadiusToggled@GAME@@6B@
599050 - ??_7Skill_BuffSelfColossus@GAME@@6BCombatFilter@1@@
5996A8 - ??_7Skill_BuffSelfColossus@GAME@@6BSkillActivatedBuffSelf@1@@
599050 - ??_7Skill_BuffSelfDuration@GAME@@6BCombatFilter@1@@
599CF8 - ??_7Skill_BuffSelfDuration@GAME@@6BSkillActivatedBuffSelf@1@@
599050 - ??_7Skill_BuffSelfImmobilize@GAME@@6BCombatFilter@1@@
599060 - ??_7Skill_BuffSelfImmobilize@GAME@@6BSkillActivatedBuffSelf@1@@
5989F8 - ??_7Skill_BuffSelfInvulnerable@GAME@@6BCombatFilter@1@@
598A08 - ??_7Skill_BuffSelfInvulnerable@GAME@@6BSkillActivatedBuffSelf@1@@
5983A0 - ??_7Skill_BuffSelfShield@GAME@@6BCombatFilter@1@@
5983B0 - ??_7Skill_BuffSelfShield@GAME@@6BSkillActivatedBuffSelf@1@@
599050 - ??_7Skill_BuffSelfSick@GAME@@6BCombatFilter@1@@
597D58 - ??_7Skill_BuffSelfSick@GAME@@6BSkillActivatedBuffSelf@1@@
599050 - ??_7Skill_BuffSelfToggled@GAME@@6BCombatFilter@1@@
59A340 - ??_7Skill_BuffSelfToggled@GAME@@6BSkillActivatedBuffSelf@1@@
5B0650 - ??_7Skill_CerberusGeysers@GAME@@6B@
59B618 - ??_7Skill_ChargedBuffOther@GAME@@6B@
5976F8 - ??_7Skill_CharonGeysers@GAME@@6B@
596A58 - ??_7Skill_DefensiveGround@GAME@@6B@
596408 - ??_7Skill_DefensiveLine@GAME@@6B@
5970A8 - ??_7Skill_DefensiveWall@GAME@@6B@
595DC8 - ??_7Skill_DispelMagic@GAME@@6B@
60E298 - ??_7Skill_DropProjectileTelekinesis@GAME@@6B@
57CB88 - ??_7Skill_E3FauxAttack@GAME@@6B@
595788 - ??_7Skill_GiveBonus@GAME@@6B@
5791B8 - ??_7Skill_Kick@GAME@@6B@
594C48 - ??_7Skill_Mastery@GAME@@6B@
5939D8 - ??_7Skill_MeleeModifier@GAME@@6B@
5933A8 - ??_7Skill_MeleeModifierRadius@GAME@@6B@
594628 - ??_7Skill_Modifier@GAME@@6B@
5921C0 - ??_7Skill_MonsterGenerator@GAME@@6B@
578B78 - ??_7Skill_Move@GAME@@6B@
591668 - ??_7Skill_OnDeathSpawnActor@GAME@@6B@
591020 - ??_7Skill_OnHitAttackRadius@GAME@@6B@
5909E0 - ??_7Skill_OnHitBuffSelf@GAME@@6B@
5903A0 - ??_7Skill_OrmenosChainLaser@GAME@@6B@
5951E8 - ??_7Skill_Passive@GAME@@6B@
58FE00 - ??_7Skill_PassiveDualWieldWeapon@GAME@@6B@
58F850 - ??_7Skill_PassiveOnCritBuffSelf@GAME@@6BCombatFilter@1@@
58F2B0 - ??_7Skill_PassiveOnCritBuffSelf@GAME@@6BSkill@1@@
58F850 - ??_7Skill_PassiveOnHitBuffSelf@GAME@@6BCombatFilter@1@@
58F860 - ??_7Skill_PassiveOnHitBuffSelf@GAME@@6BSkill@1@@
58ED00 - ??_7Skill_PassiveOnLifeBuffSelf@GAME@@6BCombatFilter@1@@
58ED10 - ??_7Skill_PassiveOnLifeBuffSelf@GAME@@6BSkill@1@@
58E750 - ??_7Skill_PassiveShield@GAME@@6BCombatFilter@1@@
58E760 - ??_7Skill_PassiveShield@GAME@@6BSkill_Passive@1@@
5766A8 - ??_7Skill_PetAttack@GAME@@6B@
58E110 - ??_7Skill_PlayAttackAnimation@GAME@@6B@
58DAE0 - ??_7Skill_ProjectileModifier@GAME@@6B@
58D4B0 - ??_7Skill_ProjectileTransmuter@GAME@@6B@
58CE70 - ??_7Skill_RefreshCooldown@GAME@@6B@
592D88 - ??_7Skill_RefreshCooldownModifier@GAME@@6B@
58C830 - ??_7Skill_SpawnMegalesiosSpirit@GAME@@6B@
5A7298 - ??_7Skill_SpawnMiniPet@GAME@@6B@
5A7930 - ??_7Skill_SpawnPet@GAME@@6B@
58C198 - ??_7Skill_SpawnPetMonster@GAME@@6B@
592768 - ??_7Skill_SpawnPetTransmuter@GAME@@6B@
58BB00 - ??_7Skill_SpawnQuestPet@GAME@@6B@
58B4C0 - ??_7Skill_Teleport@GAME@@6B@
594008 - ??_7Skill_Transmuter@GAME@@6B@
58AE60 - ??_7Skill_TurretFireControl@GAME@@6B@
58A820 - ??_7Skill_TyphonSkillTransfer@GAME@@6B@
588890 - ??_7Skill_WPAttack@GAME@@6B@
586F70 - ??_7Skill_WPAttack_AttackWave@GAME@@6B@
588248 - ??_7Skill_WPAttack_BasicAttack@GAME@@6B@
5875B8 - ??_7Skill_WPAttack_ProjectileBurst@GAME@@6B@
587C00 - ??_7Skill_WPAttack_RadialCrit@GAME@@6B@
58A1D0 - ??_7Skill_WeaponPool_BasicAttack@GAME@@6B@
589B80 - ??_7Skill_WeaponPool_ChargedFinale@GAME@@6B@
589528 - ??_7Skill_WeaponPool_ChargedLinear@GAME@@6B@
588ED8 - ??_7Skill_WeaponPool_Default@GAME@@6B@
601CA8 - ??_7SoundObject@GAME@@6BICrowdAgent@CROWD@@@
5F9D68 - ??_7SoundObject@GAME@@6BIPhysics2@1@@
611370 - ??_7SoundObject@GAME@@6BObject@1@@
574AD0 - ??_7SpawnAction@GAME@@6B@
5F0F08 - ??_7SpawnActionPacket@GAME@@6B@
573928 - ??_7SpawnActorDeathHandler@GAME@@6B@
5737B8 - ??_7SpawnMyBonesDeathHandler@GAME@@6B@
573D80 - ??_7SpawnObjectConfigCmd@GAME@@6B@
5F06F8 - ??_7SpawnObjectConfigCmdPacket@GAME@@6B@
5F17F8 - ??_7SpawnPlayerPacket@GAME@@6B@
570A40 - ??_7SpecialCharHandler@GAME@@6B@
5709B0 - ??_7SpecialCharHandler_FadeAwayFromPlayer@GAME@@6B@
570968 - ??_7SpecialCharHandler_FadeNearPlayer@GAME@@6B@
5709F8 - ??_7SpecialCharHandler_IcyCharacter@GAME@@6BGMIEffectListener@1@@
570A00 - ??_7SpecialCharHandler_IcyCharacter@GAME@@6BSpecialCharHandler@1@@
6116F8 - ??_7SpecialFX@GAME@@6B@
5F0EC8 - ??_7StartServerRespawnPacket@GAME@@6B@
5DC620 - ??_7StartShrineProxyPacket@GAME@@6B@
573BB8 - ??_7StartStopDamageEffectConfigCmd@GAME@@6B@
5F01F8 - ??_7StartStopDamageEffectConfigCmdPacket@GAME@@6B@
5F0E88 - ??_7StartTeleportPacket@GAME@@6B@
601CA8 - ??_7StaticMarker@GAME@@6BICrowdAgent@CROWD@@@
5F9D68 - ??_7StaticMarker@GAME@@6BIPhysics2@1@@
57B518 - ??_7StaticMarker@GAME@@6BObject@1@@
601CA8 - ??_7StaticRespawner@GAME@@6BICrowdAgent@CROWD@@@
5F9D68 - ??_7StaticRespawner@GAME@@6BIPhysics2@1@@
611728 - ??_7StaticRespawner@GAME@@6BObject@1@@
5D9058 - ??_7StaticShrine@GAME@@6B@
601CA8 - ??_7StaticShrine@GAME@@6BICrowdAgent@CROWD@@@
5F9D68 - ??_7StaticShrine@GAME@@6BIPhysics2@1@@
611E60 - ??_7StaticShrine@GAME@@6BObject@1@@
5D9410 - ??_7StaticShrineStateChangeConfigCmd@GAME@@6B@
5F03B8 - ??_7StaticShrineStateChangeConfigCmdPacket@GAME@@6B@
601CA8 - ??_7StaticTeleporter@GAME@@6BICrowdAgent@CROWD@@@
5F9D68 - ??_7StaticTeleporter@GAME@@6BIPhysics2@1@@
612200 - ??_7StaticTeleporter@GAME@@6BObject@1@@
5DADC8 - ??_7StopVideoRequestPacket@GAME@@6B@
5DAFC8 - ??_7SurvivalModeDataPacket@GAME@@6B@
5DAEC8 - ??_7SyncObjectivesPacket@GAME@@6B@
573AE0 - ??_7TakeBonusConfigCmd@GAME@@6B@
5EFF78 - ??_7TakeBonusConfigCmdPacket@GAME@@6B@
575040 - ??_7TakeHitAction@GAME@@6B@
5F1278 - ??_7TakeHitPacket@GAME@@6B@
5750E0 - ??_7TakeKnockdownAction@GAME@@6B@
5F12C8 - ??_7TakeKnockdownPacket@GAME@@6B@
574FA8 - ??_7TakeSleepAction@GAME@@6B@
5F1228 - ??_7TakeSleepPacket@GAME@@6B@
575178 - ??_7TakeStunAction@GAME@@6B@
5F1318 - ??_7TakeStunPacket@GAME@@6B@
574E78 - ??_7TakeTrapAction@GAME@@6B@
5F11D8 - ??_7TakeTrapPacket@GAME@@6B@
5738A8 - ??_7TelkineDeathHandler@GAME@@6B@
6129C0 - ??_7TerrainDecoration@GAME@@6B@
601CA8 - ??_7TerrainDecoration@GAME@@6BICrowdAgent@CROWD@@@
5F9D68 - ??_7TerrainDecoration@GAME@@6BIPhysics2@1@@
6129D8 - ??_7TerrainDecoration@GAME@@6BObject@1@@
5DC420 - ??_7TradeAddItemPacket@GAME@@6B@
5DC4E0 - ??_7TradeCancelPacket@GAME@@6B@
5DC460 - ??_7TradeFinalizePacket@GAME@@6B@
5DC520 - ??_7TradeInitiatePacket@GAME@@6B@
5C9248 - ??_7TradeManager@GAME@@6B@
5DC3E0 - ??_7TradeRemoveItemPacket@GAME@@6B@
5DC4A0 - ??_7TradeSetGoldPacket@GAME@@6B@
5C9258 - ??_7TradeState@GAME@@6B@
573C78 - ??_7TransmuteItemsConfigCmd@GAME@@6B@
5F03F8 - ??_7TransmuteItemsConfigCmdPacket@GAME@@6B@
5FB590 - ??_7Turret@GAME@@6BICrowdAgent@CROWD@@@
5EF818 - ??_7Turret@GAME@@6BIPhysics2@1@@
612D88 - ??_7Turret@GAME@@6BObject@1@@
5DC020 - ??_7UnJoinLeaderPacket@GAME@@6B@
5F1638 - ??_7UpdatePositionPacket@GAME@@6B@
5753A8 - ??_7UseAction@GAME@@6B@
573FC0 - ??_7UseItemConfigCmd@GAME@@6B@
5F0CB8 - ??_7UseItemConfigCmdPacket@GAME@@6B@
573FA8 - ??_7UseItemOnConfigCmd@GAME@@6B@
5F0C78 - ??_7UseItemOnConfigCmdPacket@GAME@@6B@
5F1458 - ??_7UseItemPacket@GAME@@6B@
5749A0 - ??_7WakeUpAction@GAME@@6B@
5F0FF8 - ??_7WakeUpActionPacket@GAME@@6B@
5754D8 - ??_7WalkAction@GAME@@6B@
5F14F8 - ??_7WalkPacket@GAME@@6B@
5F16F8 - ??_7WarpEntityPacket@GAME@@6B@
5E8468 - ??_7Weapon@GAME@@6B@
601CA8 - ??_7Weapon@GAME@@6BICrowdAgent@CROWD@@@
5F78F0 - ??_7Weapon@GAME@@6BIPhysics2@1@@
613618 - ??_7Weapon@GAME@@6BObject@1@@
5E8468 - ??_7WeaponArmor@GAME@@6B@
601CA8 - ??_7WeaponArmor@GAME@@6BICrowdAgent@CROWD@@@
5F78F0 - ??_7WeaponArmor@GAME@@6BIPhysics2@1@@
6142A0 - ??_7WeaponArmor@GAME@@6BObject@1@@
5E8468 - ??_7WeaponArmor_Offhand@GAME@@6B@
601CA8 - ??_7WeaponArmor_Offhand@GAME@@6BICrowdAgent@CROWD@@@
5F78F0 - ??_7WeaponArmor_Offhand@GAME@@6BIPhysics2@1@@
61A6B0 - ??_7WeaponArmor_Offhand@GAME@@6BObject@1@@
5E8468 - ??_7WeaponArmor_Shield@GAME@@6B@
601CA8 - ??_7WeaponArmor_Shield@GAME@@6BICrowdAgent@CROWD@@@
5F78F0 - ??_7WeaponArmor_Shield@GAME@@6BIPhysics2@1@@
613C58 - ??_7WeaponArmor_Shield@GAME@@6BObject@1@@
5E8468 - ??_7WeaponHunting@GAME@@6B@
601CA8 - ??_7WeaponHunting@GAME@@6BICrowdAgent@CROWD@@@
5F78F0 - ??_7WeaponHunting@GAME@@6BIPhysics2@1@@
615BB0 - ??_7WeaponHunting@GAME@@6BObject@1@@
5E8468 - ??_7WeaponHunting_Ranged1h@GAME@@6B@
601CA8 - ??_7WeaponHunting_Ranged1h@GAME@@6BICrowdAgent@CROWD@@@
5F78F0 - ??_7WeaponHunting_Ranged1h@GAME@@6BIPhysics2@1@@
614F30 - ??_7WeaponHunting_Ranged1h@GAME@@6BObject@1@@
5E8468 - ??_7WeaponHunting_Ranged2h@GAME@@6B@
601CA8 - ??_7WeaponHunting_Ranged2h@GAME@@6BICrowdAgent@CROWD@@@
5F78F0 - ??_7WeaponHunting_Ranged2h@GAME@@6BIPhysics2@1@@
6148F0 - ??_7WeaponHunting_Ranged2h@GAME@@6BObject@1@@
5E8468 - ??_7WeaponHunting_Spear@GAME@@6B@
601CA8 - ??_7WeaponHunting_Spear@GAME@@6BICrowdAgent@CROWD@@@
5F78F0 - ??_7WeaponHunting_Spear@GAME@@6BIPhysics2@1@@
615570 - ??_7WeaponHunting_Spear@GAME@@6BObject@1@@
5E8468 - ??_7WeaponMagical@GAME@@6B@
601CA8 - ??_7WeaponMagical@GAME@@6BICrowdAgent@CROWD@@@
5F78F0 - ??_7WeaponMagical@GAME@@6BIPhysics2@1@@
616830 - ??_7WeaponMagical@GAME@@6BObject@1@@
5E8468 - ??_7WeaponMagical_Staff@GAME@@6B@
601CA8 - ??_7WeaponMagical_Staff@GAME@@6BICrowdAgent@CROWD@@@
5F78F0 - ??_7WeaponMagical_Staff@GAME@@6BIPhysics2@1@@
6161F0 - ??_7WeaponMagical_Staff@GAME@@6BObject@1@@
5E8468 - ??_7WeaponMelee@GAME@@6B@
601CA8 - ??_7WeaponMelee@GAME@@6BICrowdAgent@CROWD@@@
5F78F0 - ??_7WeaponMelee@GAME@@6BIPhysics2@1@@
61A070 - ??_7WeaponMelee@GAME@@6BObject@1@@
5E8468 - ??_7WeaponMelee_Axe2h@GAME@@6B@
601CA8 - ??_7WeaponMelee_Axe2h@GAME@@6BICrowdAgent@CROWD@@@
5F78F0 - ??_7WeaponMelee_Axe2h@GAME@@6BIPhysics2@1@@
6174B0 - ??_7WeaponMelee_Axe2h@GAME@@6BObject@1@@
5E8468 - ??_7WeaponMelee_Axe@GAME@@6B@
601CA8 - ??_7WeaponMelee_Axe@GAME@@6BICrowdAgent@CROWD@@@
5F78F0 - ??_7WeaponMelee_Axe@GAME@@6BIPhysics2@1@@
6193F0 - ??_7WeaponMelee_Axe@GAME@@6BObject@1@@
5E8468 - ??_7WeaponMelee_Dagger@GAME@@6B@
601CA8 - ??_7WeaponMelee_Dagger@GAME@@6BICrowdAgent@CROWD@@@
5F78F0 - ??_7WeaponMelee_Dagger@GAME@@6BIPhysics2@1@@
618770 - ??_7WeaponMelee_Dagger@GAME@@6BObject@1@@
5E8468 - ??_7WeaponMelee_Mace2h@GAME@@6B@
601CA8 - ??_7WeaponMelee_Mace2h@GAME@@6BICrowdAgent@CROWD@@@
5F78F0 - ??_7WeaponMelee_Mace2h@GAME@@6BIPhysics2@1@@
616E70 - ??_7WeaponMelee_Mace2h@GAME@@6BObject@1@@
5E8468 - ??_7WeaponMelee_Mace@GAME@@6B@
601CA8 - ??_7WeaponMelee_Mace@GAME@@6BICrowdAgent@CROWD@@@
5F78F0 - ??_7WeaponMelee_Mace@GAME@@6BIPhysics2@1@@
618DB0 - ??_7WeaponMelee_Mace@GAME@@6BObject@1@@
5E8468 - ??_7WeaponMelee_Scepter@GAME@@6B@
601CA8 - ??_7WeaponMelee_Scepter@GAME@@6BICrowdAgent@CROWD@@@
5F78F0 - ??_7WeaponMelee_Scepter@GAME@@6BIPhysics2@1@@
618130 - ??_7WeaponMelee_Scepter@GAME@@6BObject@1@@
5E8468 - ??_7WeaponMelee_Sword2h@GAME@@6B@
601CA8 - ??_7WeaponMelee_Sword2h@GAME@@6BICrowdAgent@CROWD@@@
5F78F0 - ??_7WeaponMelee_Sword2h@GAME@@6BIPhysics2@1@@
617AF0 - ??_7WeaponMelee_Sword2h@GAME@@6BObject@1@@
5E8468 - ??_7WeaponMelee_Sword@GAME@@6B@
601CA8 - ??_7WeaponMelee_Sword@GAME@@6BICrowdAgent@CROWD@@@
5F78F0 - ??_7WeaponMelee_Sword@GAME@@6BIPhysics2@1@@
619A30 - ??_7WeaponMelee_Sword@GAME@@6BObject@1@@
5F1838 - ??_7WorldInitPacket@GAME@@6B@
32910 - ??_FAttackRandoms@GAME@@QEAAXXZ
156E0 - ??_FCombatDisplayAccumulator@GAME@@QEAAXXZ
3792A0 - ??_FScriptableAction_GiveItem@GAME@@QEAAXXZ
45E560 - ?AbleToTrade@TradeManager@GAME@@QEBA_NXZ
33C230 - ?AccessoryComplete@Proxy@GAME@@MEAAXPEAVProxyAccessoryPool@2@AEBV?$vector@VWorldCoords@GAME@@@mem@@@Z
14560 - ?ActionAborted@CharacterActionBase@GAME@@UEAAXXZ
7BA50 - ?Activate@CharacterMovementManager@GAME@@QEAAXXZ
257D30 - ?Activate@HotSlotOptionPotion@GAME@@UEAAX_N0AEA_N10@Z
2589A0 - ?Activate@HotSlotOptionScroll@GAME@@UEAAX_N0AEA_N10@Z
2591B0 - ?Activate@HotSlotOptionSkill@GAME@@UEAAX_N0AEA_N10@Z
315D30 - ?ActivateHealthPotionSlot@PlayerHotSlotCtrl@GAME@@QEAAXXZ
316110 - ?ActivateHotSlot@PlayerHotSlotCtrl@GAME@@QEAAXI_N0@Z
315E30 - ?ActivateManaPotionSlot@PlayerHotSlotCtrl@GAME@@QEAAXXZ
3E2180 - ?ActivateMarker@Skill_CerberusGeysers@GAME@@AEAAXPEAVCerberusGeyserMarker@2@AEAVCharacter@2@IAEBV?$vector@I@mem@@@Z
14560 - ?ActivateModifierAttack@Skill_MeleeModifier@GAME@@UEAAXAEAVCharacter@2@IAEBVWorldVec3@2@@Z
3EA040 - ?ActivateModifierAttack@Skill_MeleeModifierRadius@GAME@@UEAAXAEAVCharacter@2@IAEBVWorldVec3@2@@Z
14560 - ?ActivateNow@SkillActivated@GAME@@UEAAXAEAVCharacter@2@AEBVName@2@IAEBVWorldVec3@2@@Z
3A9920 - ?ActivateNow@SkillActivated_Suicide@GAME@@UEAAXAEAVCharacter@2@AEBVName@2@IAEBVWorldVec3@2@@Z
14560 - ?ActivateNow@SkillSecondary@GAME@@UEAAXAEAVCharacter@2@AEBVName@2@IAEBV?$vector@I@mem@@AEBVWorldVec3@2@@Z
42E560 - ?ActivateNow@SkillSecondary_AttackRadius@GAME@@UEAAXAEAVCharacter@2@AEBVName@2@IAEBV?$vector@I@mem@@AEBVWorldVec3@2@@Z
42F1E0 - ?ActivateNow@SkillSecondary_Bonus@GAME@@UEAAXAEAVCharacter@2@AEBVName@2@IAEBV?$vector@I@mem@@AEBVWorldVec3@2@@Z
3ABFD0 - ?ActivateNow@SkillSecondary_BuffAttackRadiusDuration@GAME@@UEAAXAEAVCharacter@2@AEBVName@2@IAEBV?$vector@I@mem@@AEBVWorldVec3@2@@Z
3ACBF0 - ?ActivateNow@SkillSecondary_BuffSelfDuration@GAME@@UEAAXAEAVCharacter@2@AEBVName@2@IAEBV?$vector@I@mem@@AEBVWorldVec3@2@@Z
430330 - ?ActivateNow@SkillSecondary_ChainBonus@GAME@@UEAAXAEAVCharacter@2@AEBVName@2@IAEBV?$vector@I@mem@@AEBVWorldVec3@2@@Z
431770 - ?ActivateNow@SkillSecondary_ChainLightning@GAME@@UEAAXAEAVCharacter@2@AEBVName@2@IAEBV?$vector@I@mem@@AEBVWorldVec3@2@@Z
432CA0 - ?ActivateNow@SkillSecondary_ForkLightning@GAME@@UEAAXAEAVCharacter@2@AEBVName@2@IAEBV?$vector@I@mem@@AEBVWorldVec3@2@@Z
434730 - ?ActivateNow@SkillSecondary_PetModifier@GAME@@UEAAXAEAVCharacter@2@AEBVName@2@IAEBV?$vector@I@mem@@AEBVWorldVec3@2@@Z
434D90 - ?ActivateNow@SkillSecondary_PetSpawn@GAME@@UEAAXAEAVCharacter@2@AEBVName@2@IAEBV?$vector@I@mem@@AEBVWorldVec3@2@@Z
3AFF10 - ?ActivateNow@SkillSecondary_Tether@GAME@@UEAAXAEAVCharacter@2@AEBVName@2@IAEBV?$vector@I@mem@@AEBVWorldVec3@2@@Z
3B1280 - ?ActivateNow@Skill_AktaiosLightOfRa@GAME@@UEAAXAEAVCharacter@2@AEBVName@2@IAEBVWorldVec3@2@@Z
3B1E70 - ?ActivateNow@Skill_AttackBuff@GAME@@UEAAXAEAVCharacter@2@AEBVName@2@IAEBVWorldVec3@2@@Z
3B2B80 - ?ActivateNow@Skill_AttackBuffRadius@GAME@@UEAAXAEAVCharacter@2@AEBVName@2@IAEBVWorldVec3@2@@Z
3B31B0 - ?ActivateNow@Skill_AttackChain@GAME@@UEAAXAEAVCharacter@2@AEBVName@2@IAEBVWorldVec3@2@@Z
3B47D0 - ?ActivateNow@Skill_AttackInherent@GAME@@UEAAXAEAVCharacter@2@AEBVName@2@IAEBVWorldVec3@2@@Z
3B6050 - ?ActivateNow@Skill_AttackPathCharge@GAME@@UEAAXAEAVCharacter@2@AEBVName@2@IAEBVWorldVec3@2@@Z
3B74A0 - ?ActivateNow@Skill_AttackProjectile@GAME@@UEAAXAEAVCharacter@2@AEBVName@2@IAEBVWorldVec3@2@@Z
3B7BA0 - ?ActivateNow@Skill_AttackProjectileAreaEffect@GAME@@UEAAXAEAVCharacter@2@AEBVName@2@IAEBVWorldVec3@2@@Z
3B8600 - ?ActivateNow@Skill_AttackProjectileBurst@GAME@@UEAAXAEAVCharacter@2@AEBVName@2@IAEBVWorldVec3@2@@Z
3B9590 - ?ActivateNow@Skill_AttackProjectileChain@GAME@@UEAAXAEAVCharacter@2@AEBVName@2@IAEBVWorldVec3@2@@Z
3E6CD0 - ?ActivateNow@Skill_AttackProjectileDrop@GAME@@UEAAXAEAVCharacter@2@AEBVName@2@IAEBVWorldVec3@2@@Z
3BAFA0 - ?ActivateNow@Skill_AttackProjectileMultiHit@GAME@@UEAAXAEAVCharacter@2@AEBVName@2@IAEBVWorldVec3@2@@Z
3BC2D0 - ?ActivateNow@Skill_AttackProjectileRing@GAME@@UEAAXAEAVCharacter@2@AEBVName@2@IAEBVWorldVec3@2@@Z
3BE6F0 - ?ActivateNow@Skill_AttackProjectileSpawnPet@GAME@@UEAAXAEAVCharacter@2@AEBVName@2@IAEBVWorldVec3@2@@Z
3BF260 - ?ActivateNow@Skill_AttackRadius@GAME@@UEAAXAEAVCharacter@2@AEBVName@2@IAEBVWorldVec3@2@@Z
3BFE30 - ?ActivateNow@Skill_AttackRadiusDisengage@GAME@@UEAAXAEAVCharacter@2@AEBVName@2@IAEBVWorldVec3@2@@Z
3C0160 - ?ActivateNow@Skill_AttackRadiusLeap@GAME@@UEAAXAEAVCharacter@2@AEBVName@2@IAEBVWorldVec3@2@@Z
3CF260 - ?ActivateNow@Skill_AttackRadiusLightning2@GAME@@UEAAXAEAVCharacter@2@AEBVName@2@IAEBVWorldVec3@2@@Z
3CE820 - ?ActivateNow@Skill_AttackRadiusLightning@GAME@@UEAAXAEAVCharacter@2@AEBVName@2@IAEBVWorldVec3@2@@Z
3C1F80 - ?ActivateNow@Skill_AttackRadiusSpin@GAME@@UEAAXAEAVCharacter@2@AEBVName@2@IAEBVWorldVec3@2@@Z
3CC8D0 - ?ActivateNow@Skill_AttackRadiusTeleport@GAME@@UEAAXAEAVCharacter@2@AEBVName@2@IAEBVWorldVec3@2@@Z
3CFB90 - ?ActivateNow@Skill_AttackSpell@GAME@@UEAAXAEAVCharacter@2@AEBVName@2@IAEBVWorldVec3@2@@Z
3D1040 - ?ActivateNow@Skill_AttackSpellBeam@GAME@@UEAAXAEAVCharacter@2@AEBVName@2@IAEBVWorldVec3@2@@Z
3D36E0 - ?ActivateNow@Skill_AttackSpellChaos@GAME@@UEAAXAEAVCharacter@2@AEBVName@2@IAEBVWorldVec3@2@@Z
3C53C0 - ?ActivateNow@Skill_AttackSpellCone@GAME@@UEAAXAEAVCharacter@2@AEBVName@2@IAEBVWorldVec3@2@@Z
3C7870 - ?ActivateNow@Skill_AttackSpellDrain@GAME@@UEAAXAEAVCharacter@2@AEBVName@2@IAEBVWorldVec3@2@@Z
3CB6C0 - ?ActivateNow@Skill_AttackSpellReflectLink@GAME@@UEAAXAEAVCharacter@2@AEBVName@2@IAEBVWorldVec3@2@@Z
3D40A0 - ?ActivateNow@Skill_AttackSpellTeleportSelf@GAME@@UEAAXAEAVCharacter@2@AEBVName@2@IAEBVWorldVec3@2@@Z
3D4B90 - ?ActivateNow@Skill_AttackTelekinesis@GAME@@UEAAXAEAVCharacter@2@AEBVName@2@IAEBVWorldVec3@2@@Z
3D8650 - ?ActivateNow@Skill_AttackWave@GAME@@UEAAXAEAVCharacter@2@AEBVName@2@IAEBVWorldVec3@2@@Z
3DA2A0 - ?ActivateNow@Skill_AttackWeapon@GAME@@UEAAXAEAVCharacter@2@AEBVName@2@IAEBVWorldVec3@2@@Z
3DAAB0 - ?ActivateNow@Skill_AttackWeaponCharge@GAME@@UEAAXAEAVCharacter@2@AEBVName@2@IAEBVWorldVec3@2@@Z
3DC800 - ?ActivateNow@Skill_BuffAttackRadiusDuration@GAME@@UEAAXAEAVCharacter@2@AEBVName@2@IAEBVWorldVec3@2@@Z
3DCCC0 - ?ActivateNow@Skill_BuffAttackRadiusToggled@GAME@@UEAAXAEAVCharacter@2@AEBVName@2@IAEBVWorldVec3@2@@Z
3DD0A0 - ?ActivateNow@Skill_BuffOther@GAME@@UEAAXAEAVCharacter@2@AEBVName@2@IAEBVWorldVec3@2@@Z
3DE430 - ?ActivateNow@Skill_BuffRadius@GAME@@UEAAXAEAVCharacter@2@AEBVName@2@IAEBVWorldVec3@2@@Z
3DED90 - ?ActivateNow@Skill_BuffRadiusToggled@GAME@@UEAAXAEAVCharacter@2@AEBVName@2@IAEBVWorldVec3@2@@Z
3DF930 - ?ActivateNow@Skill_BuffSelfDuration@GAME@@UEAAXAEAVCharacter@2@AEBVName@2@IAEBVWorldVec3@2@@Z
3A9920 - ?ActivateNow@Skill_BuffSelfShield@GAME@@UEAAXAEAVCharacter@2@AEBVName@2@IAEBVWorldVec3@2@@Z
3E00E0 - ?ActivateNow@Skill_BuffSelfSick@GAME@@UEAAXAEAVCharacter@2@AEBVName@2@IAEBVWorldVec3@2@@Z
3E04B0 - ?ActivateNow@Skill_BuffSelfToggled@GAME@@UEAAXAEAVCharacter@2@AEBVName@2@IAEBVWorldVec3@2@@Z
3E18D0 - ?ActivateNow@Skill_CerberusGeysers@GAME@@UEAAXAEAVCharacter@2@AEBVName@2@IAEBVWorldVec3@2@@Z
3E2E50 - ?ActivateNow@Skill_ChargedBuffOther@GAME@@UEAAXAEAVCharacter@2@AEBVName@2@IAEBVWorldVec3@2@@Z
3E3780 - ?ActivateNow@Skill_CharonGeysers@GAME@@UEAAXAEAVCharacter@2@AEBVName@2@IAEBVWorldVec3@2@@Z
3E4260 - ?ActivateNow@Skill_DefensiveLine@GAME@@UEAAXAEAVCharacter@2@AEBVName@2@IAEBVWorldVec3@2@@Z
3E4D70 - ?ActivateNow@Skill_DefensiveWall@GAME@@UEAAXAEAVCharacter@2@AEBVName@2@IAEBVWorldVec3@2@@Z
3E5C90 - ?ActivateNow@Skill_DispelMagic@GAME@@UEAAXAEAVCharacter@2@AEBVName@2@IAEBVWorldVec3@2@@Z
3E7810 - ?ActivateNow@Skill_E3FauxAttack@GAME@@UEAAXAEAVCharacter@2@AEBVName@2@IAEBVWorldVec3@2@@Z
3E7C20 - ?ActivateNow@Skill_GiveBonus@GAME@@UEAAXAEAVCharacter@2@AEBVName@2@IAEBVWorldVec3@2@@Z
3E8770 - ?ActivateNow@Skill_Kick@GAME@@UEAAXAEAVCharacter@2@AEBVName@2@IAEBVWorldVec3@2@@Z
14560 - ?ActivateNow@Skill_Move@GAME@@UEAAXAEAVCharacter@2@AEBVName@2@IAEBVWorldVec3@2@@Z
3ED810 - ?ActivateNow@Skill_OnHitAttackRadius@GAME@@UEAAXAEAVCharacter@2@AEBVName@2@IAEBVWorldVec3@2@@Z
3EE2F0 - ?ActivateNow@Skill_OnHitBuffSelf@GAME@@UEAAXAEAVCharacter@2@AEBVName@2@IAEBVWorldVec3@2@@Z
3EEDC0 - ?ActivateNow@Skill_OrmenosChainLaser@GAME@@UEAAXAEAVCharacter@2@AEBVName@2@IAEBVWorldVec3@2@@Z
3F2A10 - ?ActivateNow@Skill_RefreshCooldown@GAME@@UEAAXAEAVCharacter@2@AEBVName@2@IAEBVWorldVec3@2@@Z
3F3E30 - ?ActivateNow@Skill_SpawnMegalesiosSpirit@GAME@@UEAAXAEAVCharacter@2@AEBVName@2@IAEBVWorldVec3@2@@Z
3F4A60 - ?ActivateNow@Skill_SpawnPet@GAME@@UEAAXAEAVCharacter@2@AEBVName@2@IAEBVWorldVec3@2@@Z
3F7D00 - ?ActivateNow@Skill_Teleport@GAME@@UEAAXAEAVCharacter@2@AEBVName@2@IAEBVWorldVec3@2@@Z
3F82D0 - ?ActivateNow@Skill_TurretFireControl@GAME@@UEAAXAEAVCharacter@2@AEBVName@2@IAEBVWorldVec3@2@@Z
3F8E90 - ?ActivateNow@Skill_TyphonSkillTransfer@GAME@@UEAAXAEAVCharacter@2@AEBVName@2@IAEBVWorldVec3@2@@Z
3FFDF0 - ?ActivateNow@Skill_WPAttack_AttackWave@GAME@@UEAAXAEAVCharacter@2@AEBVName@2@IAEBVWorldVec3@2@@Z
403190 - ?ActivateNow@Skill_WPAttack_BasicAttack@GAME@@UEAAXAEAVCharacter@2@AEBVName@2@IAEBVWorldVec3@2@@Z
14560 - ?ActivateOnDeathNow@SkillOnDeath@GAME@@UEAAXAEAVCharacter@2@@Z
3ECCE0 - ?ActivateOnDeathNow@Skill_OnDeathSpawnActor@GAME@@UEAAXAEAVCharacter@2@@Z
3A6540 - ?ActivateOnEnemyDeathModifiers@Skill@GAME@@QEAAXAEAVCharacter@2@IAEBV?$vector@I@mem@@AEBVWorldVec3@2@@Z
3A6990 - ?ActivateOnEnemyDeathSecondarySkills@Skill@GAME@@QEAAXAEAVCharacter@2@IAEBV?$vector@I@mem@@AEBVWorldVec3@2@@Z
315A50 - ?ActivatePrimarySlot@PlayerHotSlotCtrl@GAME@@QEAAXXZ
3A6820 - ?ActivateSecondarySkills@Skill@GAME@@UEAAXAEAVCharacter@2@AEBVName@2@IAEBV?$vector@I@mem@@AEBVWorldVec3@2@@Z
14560 - ?ActivateSecondarySkills@Skill_WeaponPool_ChargedFinale@GAME@@UEAAXAEAVCharacter@2@AEBVName@2@IAEBV?$vector@I@mem@@AEBVWorldVec3@2@@Z
315BF0 - ?ActivateSecondarySlot@PlayerHotSlotCtrl@GAME@@QEAAXXZ
5B3A0 - ?ActivateSkill@Character@GAME@@QEAAXIAEBVName@2@IAEBVWorldVec3@2@@Z
193E0 - ?ActivateSuperSkill@?$ControllerAIStateT@VControllerAI@GAME@@VCharacter@2@@GAME@@MEAA_N_N0AEBVWorldVec3@2@AEAI@Z
193E0 - ?ActivateSuperSkill@?$ControllerAIStateT@VControllerCerberus@GAME@@VCerberus@2@@GAME@@MEAA_N_N0AEBVWorldVec3@2@AEAI@Z
193E0 - ?ActivateSuperSkill@?$ControllerAIStateT@VControllerMegalesios@GAME@@VMegalesios@2@@GAME@@MEAA_N_N0AEBVWorldVec3@2@AEAI@Z
193E0 - ?ActivateSuperSkill@?$ControllerAIStateT@VControllerMegalesios@GAME@@VMonster@2@@GAME@@MEAA_N_N0AEBVWorldVec3@2@AEAI@Z
193E0 - ?ActivateSuperSkill@?$ControllerAIStateT@VControllerMonster@GAME@@VMonster@2@@GAME@@MEAA_N_N0AEBVWorldVec3@2@AEAI@Z
193E0 - ?ActivateSuperSkill@?$ControllerAIStateT@VControllerMonsterHidden@GAME@@VMonster@2@@GAME@@MEAA_N_N0AEBVWorldVec3@2@AEAI@Z
193E0 - ?ActivateSuperSkill@?$ControllerAIStateT@VControllerMonsterSynergy@GAME@@VMonster@2@@GAME@@MEAA_N_N0AEBVWorldVec3@2@AEAI@Z
193E0 - ?ActivateSuperSkill@?$ControllerAIStateT@VControllerNpc2@GAME@@VNpc@2@@GAME@@MEAA_N_N0AEBVWorldVec3@2@AEAI@Z
193E0 - ?ActivateSuperSkill@?$ControllerAIStateT@VControllerNpcHerdAnimal@GAME@@VCharacter@2@@GAME@@MEAA_N_N0AEBVWorldVec3@2@AEAI@Z
193E0 - ?ActivateSuperSkill@?$ControllerAIStateT@VControllerNpcHerdAnimal@GAME@@VNpc@2@@GAME@@MEAA_N_N0AEBVWorldVec3@2@AEAI@Z
193E0 - ?ActivateSuperSkill@?$ControllerAIStateT@VControllerNpcHerder@GAME@@VCharacter@2@@GAME@@MEAA_N_N0AEBVWorldVec3@2@AEAI@Z
193E0 - ?ActivateSuperSkill@?$ControllerAIStateT@VControllerPlayer@GAME@@VPlayer@2@@GAME@@MEAA_N_N0AEBVWorldVec3@2@AEAI@Z
193E0 - ?ActivateSuperSkill@?$ControllerAIStateT@VControllerSpirit@GAME@@VMonster@2@@GAME@@MEAA_N_N0AEBVWorldVec3@2@AEAI@Z
193E0 - ?ActivateSuperSkill@?$ControllerAIStateT@VControllerSpiritHost@GAME@@VSpiritHost@2@@GAME@@MEAA_N_N0AEBVWorldVec3@2@AEAI@Z
193E0 - ?ActivateSuperSkill@?$ControllerAIStateT@VControllerStationaryMonster@GAME@@VMonster@2@@GAME@@MEAA_N_N0AEBVWorldVec3@2@AEAI@Z
193E0 - ?ActivateSuperSkill@?$ControllerAIStateT@VControllerTerracotta@GAME@@VMonster@2@@GAME@@MEAA_N_N0AEBVWorldVec3@2@AEAI@Z
193E0 - ?ActivateSuperSkill@?$ControllerAIStateT@VControllerTyphonChained@GAME@@VMonster@2@@GAME@@MEAA_N_N0AEBVWorldVec3@2@AEAI@Z
116930 - ?ActivateSuperSkill@ControllerPlayerState@GAME@@UEAA_N_N0AEBVWorldVec3@2@AEAI@Z
14560 - ?ActivateWorld@CursorHandlerAttributeReset@GAME@@UEAAXXZ
14560 - ?ActivateWorld@CursorHandlerDevotionReset@GAME@@UEAAXXZ
132EB0 - ?ActivateWorld@CursorHandlerEnchant@GAME@@UEAAXXZ
14560 - ?ActivateWorld@CursorHandlerFactionBooster@GAME@@UEAAXXZ
135020 - ?ActivateWorld@CursorHandlerHotSlotOption@GAME@@UEAAXXZ
135760 - ?ActivateWorld@CursorHandlerItemMove@GAME@@UEAAXXZ
14560 - ?ActivateWorld@CursorHandlerItemUse@GAME@@UEAAXXZ
132EB0 - ?ActivateWorld@CursorHandlerRelicCombine@GAME@@UEAAXXZ
139DA0 - ?ActivateWorld@CursorHandlerTransmute@GAME@@UEAAXXZ
30E9D0 - ?AddAether@Player@GAME@@QEAAXI@Z
4F650 - ?AddAffinity@Character@GAME@@QEAAXW4AffinityType@2@I@Z
1CD30 - ?AddAnger@AngerManager@GAME@@QEAAXIM_N@Z
1D890 - ?AddAngerGraph@AngerManager@GAME@@AEBAXIM_N@Z
22E70 - ?AddAnimation@AnimationSet@GAME@@QEAA_NW4AnimationSet_Type@2@AEBV?$basic_string@DU?$char_traits@D@std@@V?$allocator@D@2@@std@@MMPEBD@Z
12FE30 - ?AddAttribute@ConversionAttributeAccumulator@GAME@@QEAAXW4CombatAttributeType@2@0M@Z
153770 - ?AddAttribute@DamageAttributeStore@GAME@@UEAAXPEAVDamageAttribute@2@@Z
CF780 - ?AddAttribute@DefenseAttributeStore@GAME@@UEAAXPEAVDefenseAttribute@2@@Z
35320 - ?AddAura@AuraManager@GAME@@QEAA?BIAEAVActor@2@AEBV?$basic_string@DU?$char_traits@D@std@@V?$allocator@D@2@@std@@_NH@Z
5B8A0 - ?AddAura@Character@GAME@@UEAA?BIAEBV?$basic_string@DU?$char_traits@D@std@@V?$allocator@D@2@@std@@_NH@Z
436920 - ?AddAutoCastController@SkillServices_Character@GAME@@UEAAXIAEBV?$basic_string@DU?$char_traits@D@std@@V?$allocator@D@2@@std@@I_N@Z
39C330 - ?AddBaseSkill@Skill@GAME@@QEAAXI@Z
310120 - ?AddBoatMaster@Player@GAME@@QEAAXAEBUBoatMasterData@2@@Z
40A2E0 - ?AddChanceModifier@SkillAttributeAccumulator@GAME@@UEAAXW4SkillAttributeType@2@M@Z
40A2C0 - ?AddChanceValue@SkillAttributeAccumulator@GAME@@UEAAXW4SkillAttributeType@2@M@Z
421220 - ?AddCharFxPak@SkillManager@GAME@@UEAAXIAEBV?$vector@V?$basic_string@DU?$char_traits@D@std@@V?$allocator@D@2@@std@@@mem@@@Z
14560 - ?AddCharFxPak@SkillManagerLite@GAME@@UEAAXIAEBV?$vector@V?$basic_string@DU?$char_traits@D@std@@V?$allocator@D@2@@std@@@mem@@@Z
213DA0 - ?AddChatMessage@GameEngine@GAME@@QEAAXAEBV?$basic_string@GU?$char_traits@G@std@@V?$allocator@G@2@@std@@0EPEAVEntity@2@@Z
59F70 - ?AddCombatFilter@Character@GAME@@QEAAXPEAVCombatFilter@2@@Z
D8020 - ?AddCombatFilter@CombatManager@GAME@@QEAAXPEAVCombatFilter@2@@Z
104D70 - ?AddComrade@ControllerMonsterSynergy@GAME@@AEAAXV?$pair@II@mem@@@Z
77390 - ?AddConstitutionFast@CharacterBio@GAME@@QEAAXM@Z
CF780 - ?AddDamage@CombatAttributeAccumulator@GAME@@QEAAXPEAVCombatAttribute@2@@Z
1CF630 - ?AddDamage@DurationDamageManager@GAME@@UEAAXW4CombatAttributeType@2@MMIIM@Z
1D1530 - ?AddDamageEffect@DurationDamageManager@GAME@@IEAAXW4CombatAttributeType@2@@Z
CF7B0 - ?AddDamageModifier@CombatAttributeAccumulator@GAME@@QEAAXPEAVCombatAttribute@2@@Z
1D0610 - ?AddDamageReplication@DurationDamageManager@GAME@@IEAAXW4CombatAttributeType@2@IAEBV?$vector@V?$vector@UDurationDamageInfo@GAME@@@mem@@@mem@@@Z
13DB70 - ?AddDamageToAccumulator@DamageAttributeAbs@GAME@@UEBAXAEAVCombatAttributeAccumulator@2@IAEAVRandomUniform@2@_NM@Z
13F1B0 - ?AddDamageToAccumulator@DamageAttributeAbsBaseElemental@GAME@@UEBAXAEAVCombatAttributeAccumulator@2@IAEAVRandomUniform@2@_NM@Z
13F1B0 - ?AddDamageToAccumulator@DamageAttributeAbsBonusElemental@GAME@@UEBAXAEAVCombatAttributeAccumulator@2@IAEAVRandomUniform@2@_NM@Z
14560 - ?AddDamageToAccumulator@DamageAttributeAbsMod@GAME@@UEBAXAEAVCombatAttributeAccumulator@2@IAEAVRandomUniform@2@_NM@Z
151A60 - ?AddDamageToAccumulator@DamageAttributeAbs_BonusPhysical@GAME@@UEBAXAEAVCombatAttributeAccumulator@2@IAEAVRandomUniform@2@_NM@Z
1494F0 - ?AddDamageToAccumulator@DamageAttributeAbs_Confusion@GAME@@MEBAXAEAVCombatAttributeAccumulator@2@IAEAVRandomUniform@2@_NM@Z
149300 - ?AddDamageToAccumulator@DamageAttributeAbs_Convert@GAME@@MEBAXAEAVCombatAttributeAccumulator@2@IAEAVRandomUniform@2@_NM@Z
149F80 - ?AddDamageToAccumulator@DamageAttributeAbs_Disruption@GAME@@MEBAXAEAVCombatAttributeAccumulator@2@IAEAVRandomUniform@2@_NM@Z
14A470 - ?AddDamageToAccumulator@DamageAttributeAbs_ElementalDamage@GAME@@MEBAXAEAVCombatAttributeAccumulator@2@IAEAVRandomUniform@2@_NM@Z
1494F0 - ?AddDamageToAccumulator@DamageAttributeAbs_Fear@GAME@@MEBAXAEAVCombatAttributeAccumulator@2@IAEAVRandomUniform@2@_NM@Z
14A1F0 - ?AddDamageToAccumulator@DamageAttributeAbs_LifeLeech@GAME@@UEBAXAEAVCombatAttributeAccumulator@2@IAEAVRandomUniform@2@_NM@Z
151EF0 - ?AddDamageToAccumulator@DamageAttributeAbs_ManaBurn@GAME@@UEBAXAEAVCombatAttributeAccumulator@2@IAEAVRandomUniform@2@_NM@Z
149740 - ?AddDamageToAccumulator@DamageAttributeAbs_PercentCurrentLife@GAME@@MEBAXAEAVCombatAttributeAccumulator@2@IAEAVRandomUniform@2@_NM@Z
149110 - ?AddDamageToAccumulator@DamageAttributeAbs_Taunt@GAME@@MEBAXAEAVCombatAttributeAccumulator@2@IAEAVRandomUniform@2@_NM@Z
13FE10 - ?AddDamageToAccumulator@DamageAttributeDur@GAME@@UEBAXAEAVCombatAttributeAccumulator@2@IAEAVRandomUniform@2@_NM@Z
1414C0 - ?AddDamageToAccumulator@DamageAttributeDurBaseElemental@GAME@@UEBAXAEAVCombatAttributeAccumulator@2@IAEAVRandomUniform@2@_NM@Z
1414C0 - ?AddDamageToAccumulator@DamageAttributeDurBonusElemental@GAME@@UEBAXAEAVCombatAttributeAccumulator@2@IAEAVRandomUniform@2@_NM@Z
141770 - ?AddDamageToAccumulator@DamageAttributeDurFixed@GAME@@UEBAXAEAVCombatAttributeAccumulator@2@IAEAVRandomUniform@2@_NM@Z
14560 - ?AddDamageToAccumulator@DamageAttributeDurMod@GAME@@UEBAXAEAVCombatAttributeAccumulator@2@IAEAVRandomUniform@2@_NM@Z
14B2A0 - ?AddDamageToAccumulator@DamageAttributeDur_DefensiveAbility@GAME@@MEBAXAEAVCombatAttributeAccumulator@2@IAEAVRandomUniform@2@_NM@Z
14B2A0 - ?AddDamageToAccumulator@DamageAttributeDur_DefensiveReduction@GAME@@MEBAXAEAVCombatAttributeAccumulator@2@IAEAVRandomUniform@2@_NM@Z
14B2A0 - ?AddDamageToAccumulator@DamageAttributeDur_ElementalReductionPercent@GAME@@MEBAXAEAVCombatAttributeAccumulator@2@IAEAVRandomUniform@2@_NM@Z
14B2A0 - ?AddDamageToAccumulator@DamageAttributeDur_ElementalResistanceReductionAbsolute@GAME@@MEBAXAEAVCombatAttributeAccumulator@2@IAEAVRandomUniform@2@_NM@Z
14B2A0 - ?AddDamageToAccumulator@DamageAttributeDur_ElementalResistanceReductionPercent@GAME@@MEBAXAEAVCombatAttributeAccumulator@2@IAEAVRandomUniform@2@_NM@Z
14B2A0 - ?AddDamageToAccumulator@DamageAttributeDur_Fumble@GAME@@MEBAXAEAVCombatAttributeAccumulator@2@IAEAVRandomUniform@2@_NM@Z
14B2A0 - ?AddDamageToAccumulator@DamageAttributeDur_OffensiveAbility@GAME@@MEBAXAEAVCombatAttributeAccumulator@2@IAEAVRandomUniform@2@_NM@Z
14B2A0 - ?AddDamageToAccumulator@DamageAttributeDur_OffensiveReduction@GAME@@MEBAXAEAVCombatAttributeAccumulator@2@IAEAVRandomUniform@2@_NM@Z
14B2A0 - ?AddDamageToAccumulator@DamageAttributeDur_PhysicalReductionPercent@GAME@@MEBAXAEAVCombatAttributeAccumulator@2@IAEAVRandomUniform@2@_NM@Z
14B2A0 - ?AddDamageToAccumulator@DamageAttributeDur_PhysicalResistanceReductionAbsolute@GAME@@MEBAXAEAVCombatAttributeAccumulator@2@IAEAVRandomUniform@2@_NM@Z
14B2A0 - ?AddDamageToAccumulator@DamageAttributeDur_PhysicalResistanceReductionPercent@GAME@@MEBAXAEAVCombatAttributeAccumulator@2@IAEAVRandomUniform@2@_NM@Z
14B2A0 - ?AddDamageToAccumulator@DamageAttributeDur_ProjectileFumble@GAME@@MEBAXAEAVCombatAttributeAccumulator@2@IAEAVRandomUniform@2@_NM@Z
14B2A0 - ?AddDamageToAccumulator@DamageAttributeDur_TotalDamageReductionAbsolute@GAME@@MEBAXAEAVCombatAttributeAccumulator@2@IAEAVRandomUniform@2@_NM@Z
14B2A0 - ?AddDamageToAccumulator@DamageAttributeDur_TotalDamageReductionPercent@GAME@@MEBAXAEAVCombatAttributeAccumulator@2@IAEAVRandomUniform@2@_NM@Z
14B2A0 - ?AddDamageToAccumulator@DamageAttributeDur_TotalResistanceReductionAbsolute@GAME@@MEBAXAEAVCombatAttributeAccumulator@2@IAEAVRandomUniform@2@_NM@Z
14B2A0 - ?AddDamageToAccumulator@DamageAttributeDur_TotalResistanceReductionPercent@GAME@@MEBAXAEAVCombatAttributeAccumulator@2@IAEAVRandomUniform@2@_NM@Z
14AC50 - ?AddDamageToAccumulator@DamageAttributeDur_TotalSpeed@GAME@@MEBAXAEAVCombatAttributeAccumulator@2@IAEAVRandomUniform@2@_NM@Z
1423A0 - ?AddDamageToAccumulator@DamageAttributeReflex@GAME@@UEBAXAEAVCombatAttributeAccumulator@2@IAEAVRandomUniform@2@_NM@Z
1537A0 - ?AddDamageToAccumulator@DamageAttributeStore@GAME@@UEBAXAEAVCombatAttributeAccumulator@2@IM@Z
14FB00 - ?AddDamageToAccumulator@DamageAttribute_BasePhysical@GAME@@UEBAXAEAVCombatAttributeAccumulator@2@IAEAVRandomUniform@2@_NM@Z
1513C0 - ?AddDamageToAccumulator@DamageAttribute_Physical@GAME@@UEBAXAEAVCombatAttributeAccumulator@2@IAEAVRandomUniform@2@_NM@Z
1494F0 - ?AddDamageToAccumulator@RetaliationAttributeAbs_Confusion@GAME@@MEBAXAEAVCombatAttributeAccumulator@2@IAEAVRandomUniform@2@_NM@Z
149300 - ?AddDamageToAccumulator@RetaliationAttributeAbs_Convert@GAME@@MEBAXAEAVCombatAttributeAccumulator@2@IAEAVRandomUniform@2@_NM@Z
3558E0 - ?AddDamageToAccumulator@RetaliationAttributeAbs_ElementalDamage@GAME@@MEBAXAEAVCombatAttributeAccumulator@2@IAEAVRandomUniform@2@_NM@Z
1494F0 - ?AddDamageToAccumulator@RetaliationAttributeAbs_Fear@GAME@@MEBAXAEAVCombatAttributeAccumulator@2@IAEAVRandomUniform@2@_NM@Z
149740 - ?AddDamageToAccumulator@RetaliationAttributeAbs_PercentCurrentLife@GAME@@MEBAXAEAVCombatAttributeAccumulator@2@IAEAVRandomUniform@2@_NM@Z
355070 - ?AddDamageToAccumulator@RetaliationAttributeAbs_Pierce@GAME@@MEBAXAEAVCombatAttributeAccumulator@2@IAEAVRandomUniform@2@_NM@Z
355BB0 - ?AddDamageToAccumulator@RetaliationAttributeDurBonus@GAME@@MEBAXAEAVCombatAttributeAccumulator@2@IAEAVRandomUniform@2@_NM@Z
D0CE0 - ?AddDefense@CombatAttributeAccumulator@GAME@@QEAAXPEAVCombatAttribute@2@@Z
D0D70 - ?AddDefenseModifier@CombatAttributeAccumulator@GAME@@QEAAXPEAVCombatAttribute@2@@Z
4F7D0 - ?AddDevotionPoints@Character@GAME@@QEAAXI@Z
1BFE10 - ?AddDialog@DialogManager@GAME@@QEAAXW4DialogType@12@_NW4InterestedParty@12@AEBV?$basic_string@DU?$char_traits@D@std@@V?$allocator@D@2@@std@@1I1@Z
1BFD50 - ?AddDialog@DialogManager@GAME@@QEAAXW4DialogType@12@_NW4InterestedParty@12@AEBV?$basic_string@GU?$char_traits@G@std@@V?$allocator@G@2@@std@@11@Z
2FF730 - ?AddDiscoveredShrineUID@Player@GAME@@QEAAXAEBVUniqueId@2@@Z
2FF8B0 - ?AddDungeonEntranceUID@Player@GAME@@QEAAXAEBVUniqueId@2@0@Z
30ED00 - ?AddDynamite@Player@GAME@@QEAAXI@Z
27B490 - ?AddEnchantment@ItemEquipment@GAME@@QEAAXAEBV?$basic_string@DU?$char_traits@D@std@@V?$allocator@D@2@@std@@II@Z
27B7F0 - ?AddEnchantment@ItemEquipment@GAME@@QEAAXPEAVItemEnchantment@2@@Z
5C840 - ?AddEquipmentProp@Character@GAME@@QEAAXPEAVProp@2@@Z
391660 - ?AddExperience@Skill@GAME@@UEAAXI@Z
421B90 - ?AddExperience@SkillManager@GAME@@QEAA?B_NI@Z
1CFA40 - ?AddFixedDamage@DurationDamageManager@GAME@@UEAAXW4CombatAttributeType@2@MMII@Z
1D0A40 - ?AddFixedDamageReplication@DurationDamageManager@GAME@@IEAAXW4CombatAttributeType@2@AEBV?$vector@V?$vector@UDurationDamageInfo@GAME@@@mem@@@mem@@@Z
CF7B0 - ?AddGlobalAndAttribute@DamageAttributeStore@GAME@@UEAAXPEAVDamageAttribute@2@@Z
CF780 - ?AddGlobalXorAttribute@DamageAttributeStore@GAME@@UEAAXPEAVDamageAttribute@2@@Z
2A24A0 - ?AddIfUnique@MarketMiniMart@GAME@@MEAA_NAEAUMarketMiniMartInfo@12@IAEAVRandomUniform@2@@Z
25D1C0 - ?AddItem@InventorySack@GAME@@QEAA_NAEBVVec2@2@PEAVItem@2@_N@Z
25E9D0 - ?AddItem@InventorySack@GAME@@QEAA_NPEAVItem@2@_N1@Z
3177B0 - ?AddItem@PlayerInventoryCtrl@GAME@@QEAA_NI_N0@Z
317640 - ?AddItem@PlayerInventoryCtrl@GAME@@QEAA_NVVec2@2@IH_N@Z
25E8A0 - ?AddItemAndReturnPoint@InventorySack@GAME@@QEAA?AVVec2@2@PEAVItem@2@@Z
31CC10 - ?AddItemCompatibleWithEnchants@PlayerInventoryCtrl@GAME@@QEAA_NI@Z
31CB60 - ?AddItemCompatibleWithRelics@PlayerInventoryCtrl@GAME@@QEAA_NI@Z
5B280 - ?AddItemSkillModifiers@Character@GAME@@QEAAXIAEBV?$vector@UItemSkillModifierInfo@ItemSkillModifiers@GAME@@@mem@@@Z
41C630 - ?AddItemSkillModifiers@SkillManager@GAME@@QEAAXIAEBV?$vector@UItemSkillModifierInfo@ItemSkillModifiers@GAME@@@mem@@@Z
5B260 - ?AddItemSkills@Character@GAME@@QEAAXIAEBV?$vector@UItemSkillInfo@ItemSkillAugment@GAME@@@mem@@_N@Z
41D440 - ?AddItemSkills@SkillManager@GAME@@QEAAXIAEBV?$vector@UItemSkillInfo@ItemSkillAugment@GAME@@@mem@@_N@Z
224B80 - ?AddItemToFormulas@GameEngine@GAME@@QEAA_NII@Z
25BD70 - ?AddItemToInventory@Inventory@GAME@@QEAAXI_N@Z
30EF20 - ?AddItemToLoreCodex@Player@GAME@@QEAA_NPEAVItemNote@2@@Z
30DA90 - ?AddItemToPrivateStash@Player@GAME@@QEAA_NIAEBVVec2@2@I_N@Z
30DB90 - ?AddItemToPrivateStash@Player@GAME@@QEAA_NII_N@Z
317F10 - ?AddItemToSack@PlayerInventoryCtrl@GAME@@QEAA_NIH_N@Z
58D90 - ?AddItemToSet@Character@GAME@@QEAAXAEBV?$basic_string@DU?$char_traits@D@std@@V?$allocator@D@2@@std@@0@Z
222B80 - ?AddItemToTransfer@GameEngine@GAME@@QEAA_NIAEBVVec2@2@I_N@Z
222C80 - ?AddItemToTransfer@GameEngine@GAME@@QEAA_NII_N@Z
14560 - ?AddItemToTransferRefund@GameEngine@GAME@@QEAAXI@Z
229890 - ?AddItemToTransmutes@GameEngine@GAME@@QEAAXIAEBV?$basic_string@DU?$char_traits@D@std@@V?$allocator@D@2@@std@@AEA_N_N@Z
91450 - ?AddJitter@CharAttribute@GAME@@UEAAXMPEAVRandomUniform@2@@Z
91F20 - ?AddJitter@CharAttributeValSpeed@GAME@@UEAAXMPEAVRandomUniform@2@@Z
14560 - ?AddJitter@CharAttributeVal_BaseAttackSpeed@GAME@@UEAAXMPEAVRandomUniform@2@@Z
14560 - ?AddJitter@CharAttributeVal_LevelReqReduction@GAME@@UEAAXMPEAVRandomUniform@2@@Z
13DD80 - ?AddJitter@DamageAttributeAbs@GAME@@UEAAXMPEAVRandomUniform@2@@Z
14560 - ?AddJitter@DamageAttributeAbsBase@GAME@@UEAAXMPEAVRandomUniform@2@@Z
13B310 - ?AddJitter@DamageAttributeAbsMod@GAME@@UEAAXMPEAVRandomUniform@2@@Z
13DD80 - ?AddJitter@DamageAttributeDur@GAME@@UEAAXMPEAVRandomUniform@2@@Z
13C5B0 - ?AddJitter@DamageAttributeDurMod@GAME@@UEAAXMPEAVRandomUniform@2@@Z
14560 - ?AddJitter@DamageAttribute_BasePhysical@GAME@@UEAAXMPEAVRandomUniform@2@@Z
1515F0 - ?AddJitter@DamageAttribute_Physical@GAME@@UEAAXMPEAVRandomUniform@2@@Z
192A30 - ?AddJitter@DefenseAttribute_BaseProtectionAbsorption@GAME@@UEAAXMPEAVRandomUniform@2@@Z
18A5D0 - ?AddJitter@DefenseAttribute_Typical@GAME@@UEAAXMPEAVRandomUniform@2@@Z
409660 - ?AddJitter@SkillAttribute@GAME@@UEAAXMPEAVRandomUniform@2@@Z
40AA00 - ?AddJitter@SkillAttributeStore@GAME@@UEAAXM@Z
77320 - ?AddLifeFast@CharacterBio@GAME@@QEAAXM@Z
5A0A0 - ?AddLifeSlow@Character@GAME@@QEAAXMW4PlayStatsLifeType@2@@Z
772B0 - ?AddLifeSlow@CharacterBio@GAME@@QEAAXM@Z
32A440 - ?AddLogString@PlayStats@GAME@@QEAAXPEBDZZ
77210 - ?AddManaFast@CharacterBio@GAME@@QEAAXM@Z
5A120 - ?AddManaSlow@Character@GAME@@QEAAXM@Z
77160 - ?AddManaSlow@CharacterBio@GAME@@QEAAXM@Z
2FF430 - ?AddMarkerUID@Player@GAME@@QEAAXAEBVUniqueId@2@@Z
39C170 - ?AddMastery@Skill@GAME@@QEAAXI@Z
41A160 - ?AddMasteryAllowedIncrementLevel@SkillManager@GAME@@QEAAXI@Z
5B980 - ?AddMeshEffect@Character@GAME@@UEAAIAEBV?$basic_string@DU?$char_traits@D@std@@V?$allocator@D@2@@std@@@Z
2F6CA0 - ?AddMeshEffect@PFxManager@GAME@@QEAAIAEBV?$basic_string@DU?$char_traits@D@std@@V?$allocator@D@2@@std@@@Z
949C0 - ?AddModifier@CharAttributeAccumulator@GAME@@QEAAXW4CharAttributeType@2@M@Z
39C180 - ?AddModifier@Skill@GAME@@QEAAXI@Z
40A2D0 - ?AddModifier@SkillAttributeAccumulator@GAME@@UEAAXW4SkillAttributeType@2@M@Z
39E950 - ?AddModifierCharAttributes@Skill@GAME@@QEBAXAEAVCharAttributeAccumulator@2@_N1@Z
39F640 - ?AddModifierConversionAttributes@Skill@GAME@@QEBAXAEAVConversionAttributeAccumulator@2@@Z
39F520 - ?AddModifierDefenseAttributes@Skill@GAME@@QEBAXAEAVCombatAttributeAccumulator@2@@Z
39F760 - ?AddModifierFXChanges@Skill@GAME@@QEBAXAEAV?$vector@V?$basic_string@DU?$char_traits@D@std@@V?$allocator@D@2@@std@@@mem@@@Z
39EBB0 - ?AddModifierOffensiveDamageAttributes@Skill@GAME@@QEBAXAEAVCombatAttributeAccumulator@2@M@Z
39ECE0 - ?AddModifierOffensiveModifierAttributes@Skill@GAME@@QEBAXAEAVCombatAttributeAccumulator@2@I@Z
39F880 - ?AddModifierPetChanges@Skill@GAME@@QEBAXAEAV?$vector@V?$basic_string@DU?$char_traits@D@std@@V?$allocator@D@2@@std@@@mem@@@Z
4F720 - ?AddModifierPoints@Character@GAME@@QEAAXI@Z
39F070 - ?AddModifierRacialBonusDamage@Skill@GAME@@QEBAXAEBV?$vector@V?$basic_string@DU?$char_traits@D@std@@V?$allocator@D@2@@std@@@mem@@AEAURacialBonus_Damage@2@@Z
39F1A0 - ?AddModifierRacialBonusDefense@Skill@GAME@@QEBAXAEBV?$vector@V?$basic_string@DU?$char_traits@D@std@@V?$allocator@D@2@@std@@@mem@@AEAURacialBonus_Defense@2@@Z
39F2D0 - ?AddModifierRetaliationAttributes@Skill@GAME@@QEBAXAEAVCombatAttributeAccumulator@2@M@Z
39F400 - ?AddModifierRetaliationModifierAttributes@Skill@GAME@@QEBAXAEAVCombatAttributeAccumulator@2@@Z
39EA90 - ?AddModifierSkillAttributes@Skill@GAME@@QEBAXAEAVSkillAttributeAccumulator@2@@Z
14560 - ?AddModifierToAccumulator@DamageAttributeAbs@GAME@@UEBAXAEAVCombatAttributeAccumulator@2@IAEAVRandomUniform@2@_NM@Z
13B220 - ?AddModifierToAccumulator@DamageAttributeAbsMod@GAME@@UEBAXAEAVCombatAttributeAccumulator@2@IAEAVRandomUniform@2@_NM@Z
14C8D0 - ?AddModifierToAccumulator@DamageAttributeAbsMod_CritDamageModifier@GAME@@MEBAXAEAVCombatAttributeAccumulator@2@IAEAVRandomUniform@2@_NM@Z
14CA10 - ?AddModifierToAccumulator@DamageAttributeAbsMod_DamageMultiplier@GAME@@MEBAXAEAVCombatAttributeAccumulator@2@IAEAVRandomUniform@2@_NM@Z
14C1D0 - ?AddModifierToAccumulator@DamageAttributeAbsMod_Elemental@GAME@@MEBAXAEAVCombatAttributeAccumulator@2@IAEAVRandomUniform@2@_NM@Z
14C380 - ?AddModifierToAccumulator@DamageAttributeAbsMod_TotalDamageModifier@GAME@@MEBAXAEAVCombatAttributeAccumulator@2@IAEAVRandomUniform@2@_NM@Z
14560 - ?AddModifierToAccumulator@DamageAttributeDur@GAME@@UEBAXAEAVCombatAttributeAccumulator@2@IAEAVRandomUniform@2@_NM@Z
13C480 - ?AddModifierToAccumulator@DamageAttributeDurMod@GAME@@UEBAXAEAVCombatAttributeAccumulator@2@IAEAVRandomUniform@2@_NM@Z
153A60 - ?AddModifierToAccumulator@DamageAttributeStore@GAME@@UEBAXAEAVCombatAttributeAccumulator@2@IM@Z
14560 - ?AddModifierToAccumulator@DamageAttribute_BasePhysical@GAME@@UEBAXAEAVCombatAttributeAccumulator@2@IAEAVRandomUniform@2@_NM@Z
14560 - ?AddModifierToAccumulator@DamageAttribute_Physical@GAME@@UEBAXAEAVCombatAttributeAccumulator@2@IAEAVRandomUniform@2@_NM@Z
14CA10 - ?AddModifierToAccumulator@RetaliationAttributeAbsMod_DamageMultiplier@GAME@@MEBAXAEAVCombatAttributeAccumulator@2@IAEAVRandomUniform@2@_NM@Z
356B90 - ?AddModifierToAccumulator@RetaliationAttributeAbsMod_TotalDamageModifier@GAME@@MEBAXAEAVCombatAttributeAccumulator@2@IAEAVRandomUniform@2@_NM@Z
50E70 - ?AddMoney@Character@GAME@@QEAAXI@Z
250150 - ?AddMutator@GameEngineInboundInterface@GAME@@UEAAXAEBV?$vector@UGameEngineMutatorInfo@GAME@@@mem@@I@Z
24D2E0 - ?AddMutator@GameEngineOutboundInterface@GAME@@UEAAXAEBV?$vector@UGameEngineMutatorInfo@GAME@@@mem@@I@Z
23ABF0 - ?AddMutatorInbound@GameEngine@GAME@@QEAAXAEBV?$vector@UGameEngineMutatorInfo@GAME@@@mem@@_N@Z
23AA90 - ?AddMutatorOutbound@GameEngine@GAME@@QEAAXAEBV?$basic_string@DU?$char_traits@D@std@@V?$allocator@D@2@@std@@W4MutatorMode@2@AEBVUniqueId@2@@Z
438740 - ?AddNewRing@SlotManager@GAME@@AEAAAEAUSlotRing@12@M@Z
310290 - ?AddNpcDialog@Player@GAME@@QEAAXAEBUNpcDialogData@2@@Z
310440 - ?AddNpcIllumination@Player@GAME@@QEAAXAEBUNpcIlluminationData@2@@Z
5B8F0 - ?AddParticleEffect@Character@GAME@@UEAAIAEBV?$basic_string@DU?$char_traits@D@std@@V?$allocator@D@2@@std@@0@Z
2F6660 - ?AddParticleEffect@PFxManager@GAME@@QEAAIAEBV?$basic_string@DU?$char_traits@D@std@@V?$allocator@D@2@@std@@0@Z
239940 - ?AddPetBonusFxPak@GameEngine@GAME@@QEAAXIIV?$vector@V?$basic_string@DU?$char_traits@D@std@@V?$allocator@D@2@@std@@@mem@@@Z
24FF80 - ?AddPetBonusFxPak@GameEngineInboundInterface@GAME@@UEAAXIIV?$vector@V?$basic_string@DU?$char_traits@D@std@@V?$allocator@D@2@@std@@@mem@@@Z
24D180 - ?AddPetBonusFxPak@GameEngineOutboundInterface@GAME@@UEAAXIIV?$vector@V?$basic_string@DU?$char_traits@D@std@@V?$allocator@D@2@@std@@@mem@@@Z
39F9A0 - ?AddPetPassiveOffensiveModifierAttributes@Skill@GAME@@QEBAXAEAVCombatAttributeAccumulator@2@@Z
234BD0 - ?AddPlayerToParty@GameEngine@GAME@@QEAAXIH@Z
24E1F0 - ?AddPlayerToParty@GameEngineInboundInterface@GAME@@UEAAXIH@Z
24BD10 - ?AddPlayerToParty@GameEngineOutboundInterface@GAME@@UEAAXIH@Z
31F070 - ?AddPlayerToParty@PlayerManagerClient@GAME@@QEAAXIH@Z
322850 - ?AddPlayerToParty@PlayerManagerServer@GAME@@QEAAXIH@Z
23C540 - ?AddPlayerToVideoList@GameEngine@GAME@@QEAAXI@Z
DBCF0 - ?AddPreloadQuestAction@ControllerAI@GAME@@QEAAXAEAUPreloadQuestAction@12@@Z
14560 - ?AddProjectileEffects@Skill@GAME@@UEBAXPEAVProjectileBase@2@@Z
4051E0 - ?AddProjectileEffects@SkillActivated@GAME@@UEBAXPEAVProjectileBase@2@@Z
4028D0 - ?AddProjectileEffects@Skill_WPAttack@GAME@@UEBAXPEAVProjectileBase@2@@Z
32EC90 - ?AddProjectileModifier@ProjectileBase@GAME@@UEAAXAEBUProjectileModifierStruct@12@@Z
3A5790 - ?AddProjectileModifier@Skill@GAME@@UEBAXPEAVProjectileBase@2@@Z
3BBBA0 - ?AddProjectileModifier@Skill_AttackProjectileDrop@GAME@@UEBAXPEAVProjectileBase@2@@Z
3BBBA0 - ?AddProjectileModifier@Skill_AttackWeapon@GAME@@UEBAXPEAVProjectileBase@2@@Z
402840 - ?AddProjectileModifier@Skill_WPAttack@GAME@@UEBAXPEAVProjectileBase@2@@Z
1DBE40 - ?AddPropAttachment@EquipManager@GAME@@QEAAXAEAVProp@2@@Z
32A2C0 - ?AddRealTimeString@PlayStats@GAME@@QEAAXPEBDZZ
27AC00 - ?AddRelic@ItemEquipment@GAME@@QEAAXAEBV?$basic_string@DU?$char_traits@D@std@@V?$allocator@D@2@@std@@0II@Z
27AF60 - ?AddRelic@ItemEquipment@GAME@@QEAAXPEAVItemRelic@2@@Z
31CCC0 - ?AddRelicCompatibleWithItems@PlayerInventoryCtrl@GAME@@QEAA_NI@Z
2FF210 - ?AddRespawnUID@Player@GAME@@QEAAXAEBVUniqueId@2@@Z
1C00A0 - ?AddResponse@DialogManager@GAME@@QEAAXAEBUYesNoResponse@12@@Z
3043F0 - ?AddSack@Player@GAME@@QEAA_NXZ
3171E0 - ?AddSack@PlayerInventoryCtrl@GAME@@QEAA_NXZ
39C250 - ?AddSecondarySkill@Skill@GAME@@QEAAXI@Z
2FF5B0 - ?AddShrineUID@Player@GAME@@QEAAXAEBVUniqueId@2@@Z
39E820 - ?AddSkillLevel@Skill@GAME@@IEAAXI@Z
4F7A0 - ?AddSkillPoints@Character@GAME@@QEAAXI@Z
1FDB90 - ?AddSocialTarget@FixedItemBlastContainer@GAME@@UEAAXI@Z
2E85B0 - ?AddSocialTarget@Npc@GAME@@UEAAXI@Z
14560 - ?AddSocialTarget@NpcCaravan@GAME@@UEAAXI@Z
14560 - ?AddSocialTarget@NpcCrafter@GAME@@UEAAXI@Z
14560 - ?AddSocialTarget@NpcEnchanter@GAME@@UEAAXI@Z
14560 - ?AddSocialTarget@NpcMerchant@GAME@@UEAAXI@Z
14560 - ?AddSocialTarget@NpcSkillReallocator@GAME@@UEAAXI@Z
14560 - ?AddSocialTarget@NpcTransmuter@GAME@@UEAAXI@Z
4429B0 - ?AddSocialTarget@StaticShrine@GAME@@QEAAXI@Z
12E020 - ?AddSpeechToConversations@ConversationStore@GAME@@QEAAXII@Z
DB890 - ?AddState@ControllerAI@GAME@@IEAAXAEBV?$basic_string@DU?$char_traits@D@std@@V?$allocator@D@2@@std@@PEAVControllerAIState@2@@Z
37FC80 - ?AddStateDebugText@ScriptableCondition@GAME@@IEBA?AV?$basic_string@DU?$char_traits@D@std@@V?$allocator@D@2@@std@@AEBV34@@Z
2FF0C0 - ?AddTeleportUID@Player@GAME@@QEAAXAEBVUniqueId@2@W4GameDifficulty@2@@Z
64180 - ?AddTemporaryState@?$ControllerAIStateT@VControllerAI@GAME@@VCharacter@2@@GAME@@IEAAXAEBV?$basic_string@DU?$char_traits@D@std@@V?$allocator@D@2@@std@@AEBVControllerAIStateData@2@@Z
64180 - ?AddTemporaryState@?$ControllerAIStateT@VControllerCerberus@GAME@@VCerberus@2@@GAME@@IEAAXAEBV?$basic_string@DU?$char_traits@D@std@@V?$allocator@D@2@@std@@AEBVControllerAIStateData@2@@Z
64180 - ?AddTemporaryState@?$ControllerAIStateT@VControllerMegalesios@GAME@@VMegalesios@2@@GAME@@IEAAXAEBV?$basic_string@DU?$char_traits@D@std@@V?$allocator@D@2@@std@@AEBVControllerAIStateData@2@@Z
64180 - ?AddTemporaryState@?$ControllerAIStateT@VControllerMegalesios@GAME@@VMonster@2@@GAME@@IEAAXAEBV?$basic_string@DU?$char_traits@D@std@@V?$allocator@D@2@@std@@AEBVControllerAIStateData@2@@Z
64180 - ?AddTemporaryState@?$ControllerAIStateT@VControllerMonster@GAME@@VMonster@2@@GAME@@IEAAXAEBV?$basic_string@DU?$char_traits@D@std@@V?$allocator@D@2@@std@@AEBVControllerAIStateData@2@@Z
64180 - ?AddTemporaryState@?$ControllerAIStateT@VControllerMonsterHidden@GAME@@VMonster@2@@GAME@@IEAAXAEBV?$basic_string@DU?$char_traits@D@std@@V?$allocator@D@2@@std@@AEBVControllerAIStateData@2@@Z
64180 - ?AddTemporaryState@?$ControllerAIStateT@VControllerMonsterSynergy@GAME@@VMonster@2@@GAME@@IEAAXAEBV?$basic_string@DU?$char_traits@D@std@@V?$allocator@D@2@@std@@AEBVControllerAIStateData@2@@Z
64180 - ?AddTemporaryState@?$ControllerAIStateT@VControllerNpc2@GAME@@VNpc@2@@GAME@@IEAAXAEBV?$basic_string@DU?$char_traits@D@std@@V?$allocator@D@2@@std@@AEBVControllerAIStateData@2@@Z
64180 - ?AddTemporaryState@?$ControllerAIStateT@VControllerNpcHerdAnimal@GAME@@VCharacter@2@@GAME@@IEAAXAEBV?$basic_string@DU?$char_traits@D@std@@V?$allocator@D@2@@std@@AEBVControllerAIStateData@2@@Z
64180 - ?AddTemporaryState@?$ControllerAIStateT@VControllerNpcHerdAnimal@GAME@@VNpc@2@@GAME@@IEAAXAEBV?$basic_string@DU?$char_traits@D@std@@V?$allocator@D@2@@std@@AEBVControllerAIStateData@2@@Z
64180 - ?AddTemporaryState@?$ControllerAIStateT@VControllerNpcHerder@GAME@@VCharacter@2@@GAME@@IEAAXAEBV?$basic_string@DU?$char_traits@D@std@@V?$allocator@D@2@@std@@AEBVControllerAIStateData@2@@Z
64180 - ?AddTemporaryState@?$ControllerAIStateT@VControllerPlayer@GAME@@VPlayer@2@@GAME@@IEAAXAEBV?$basic_string@DU?$char_traits@D@std@@V?$allocator@D@2@@std@@AEBVControllerAIStateData@2@@Z
64180 - ?AddTemporaryState@?$ControllerAIStateT@VControllerSpirit@GAME@@VMonster@2@@GAME@@IEAAXAEBV?$basic_string@DU?$char_traits@D@std@@V?$allocator@D@2@@std@@AEBVControllerAIStateData@2@@Z
64180 - ?AddTemporaryState@?$ControllerAIStateT@VControllerSpiritHost@GAME@@VSpiritHost@2@@GAME@@IEAAXAEBV?$basic_string@DU?$char_traits@D@std@@V?$allocator@D@2@@std@@AEBVControllerAIStateData@2@@Z
64180 - ?AddTemporaryState@?$ControllerAIStateT@VControllerStationaryMonster@GAME@@VMonster@2@@GAME@@IEAAXAEBV?$basic_string@DU?$char_traits@D@std@@V?$allocator@D@2@@std@@AEBVControllerAIStateData@2@@Z
64180 - ?AddTemporaryState@?$ControllerAIStateT@VControllerTerracotta@GAME@@VMonster@2@@GAME@@IEAAXAEBV?$basic_string@DU?$char_traits@D@std@@V?$allocator@D@2@@std@@AEBVControllerAIStateData@2@@Z
64180 - ?AddTemporaryState@?$ControllerAIStateT@VControllerTyphonChained@GAME@@VMonster@2@@GAME@@IEAAXAEBV?$basic_string@DU?$char_traits@D@std@@V?$allocator@D@2@@std@@AEBVControllerAIStateData@2@@Z
DA180 - ?AddTemporaryState@ControllerAI@GAME@@IEAAXAEBV?$basic_string@DU?$char_traits@D@std@@V?$allocator@D@2@@std@@AEBVControllerAIStateData@2@@Z
DB960 - ?AddTemporaryState@ControllerAI@GAME@@IEAAXAEBV?$basic_string@DU?$char_traits@D@std@@V?$allocator@D@2@@std@@PEAVControllerAIState@2@@Z
92140 - ?AddToAccumulator@CharAttributeMod@GAME@@UEBAXAEAVCharAttributeAccumulator@2@I@Z
92140 - ?AddToAccumulator@CharAttributeMod_AttackSpeed@GAME@@UEBAXAEAVCharAttributeAccumulator@2@I@Z
94380 - ?AddToAccumulator@CharAttributeMod_TotalSpeed@GAME@@UEBAXAEAVCharAttributeAccumulator@2@I@Z
94DC0 - ?AddToAccumulator@CharAttributeStore@GAME@@UEBAXAEAVCharAttributeAccumulator@2@I@Z
91A60 - ?AddToAccumulator@CharAttributeVal@GAME@@UEBAXAEAVCharAttributeAccumulator@2@I@Z
18AC40 - ?AddToAccumulator@DefenseAttributeAbs@GAME@@UEBAXAEAVCombatAttributeAccumulator@2@IAEAVRandomUniform@2@_N@Z
18A920 - ?AddToAccumulator@DefenseAttributeAbsMod@GAME@@UEBAXAEAVCombatAttributeAccumulator@2@IAEAVRandomUniform@2@_N@Z
18FE80 - ?AddToAccumulator@DefenseAttributeAbsMod_Elemental@GAME@@UEBAXAEAVCombatAttributeAccumulator@2@IAEAVRandomUniform@2@_N@Z
18AD80 - ?AddToAccumulator@DefenseAttributeAbsRestricted@GAME@@UEBAXAEAVCombatAttributeAccumulator@2@IAEAVRandomUniform@2@_N@Z
18EBD0 - ?AddToAccumulator@DefenseAttributeAbs_ElementalResistance@GAME@@UEBAXAEAVCombatAttributeAccumulator@2@IAEAVRandomUniform@2@_N@Z
18EFE0 - ?AddToAccumulator@DefenseAttributeAbs_PercentReflectionResistance@GAME@@UEBAXAEAVCombatAttributeAccumulator@2@IAEAVRandomUniform@2@_N@Z
18EDB0 - ?AddToAccumulator@DefenseAttributeAbs_TotalSpeed@GAME@@UEBAXAEAVCombatAttributeAccumulator@2@IAEAVRandomUniform@2@_N@Z
18ABB0 - ?AddToAccumulator@DefenseAttributeDefenseCap@GAME@@UEBAXAEAVCombatAttributeAccumulator@2@IAEAVRandomUniform@2@_N@Z
190B30 - ?AddToAccumulator@DefenseAttributeDefenseCap_All@GAME@@UEBAXAEAVCombatAttributeAccumulator@2@IAEAVRandomUniform@2@_N@Z
18B3A0 - ?AddToAccumulator@DefenseAttributeDur@GAME@@UEBAXAEAVCombatAttributeAccumulator@2@IAEAVRandomUniform@2@_N@Z
18AA70 - ?AddToAccumulator@DefenseAttributeDurMod@GAME@@UEBAXAEAVCombatAttributeAccumulator@2@IAEAVRandomUniform@2@_N@Z
18F5C0 - ?AddToAccumulator@DefenseAttributeMisc_BlockAmountModifier@GAME@@UEBAXAEAVCombatAttributeAccumulator@2@IAEAVRandomUniform@2@_N@Z
18F480 - ?AddToAccumulator@DefenseAttributeMisc_BlockModifier@GAME@@UEBAXAEAVCombatAttributeAccumulator@2@IAEAVRandomUniform@2@_N@Z
18F480 - ?AddToAccumulator@DefenseAttributeMisc_Reflect@GAME@@UEBAXAEAVCombatAttributeAccumulator@2@IAEAVRandomUniform@2@_N@Z
18F710 - ?AddToAccumulator@DefenseAttributeMisc_ReflectModifier@GAME@@UEBAXAEAVCombatAttributeAccumulator@2@IAEAVRandomUniform@2@_N@Z
193480 - ?AddToAccumulator@DefenseAttributeStore@GAME@@UEBAXAEAVCombatAttributeAccumulator@2@I@Z
192850 - ?AddToAccumulator@DefenseAttribute_BaseProtectionAbsorption@GAME@@UEBAXAEAVCombatAttributeAccumulator@2@IAEAVRandomUniform@2@_N@Z
409AF0 - ?AddToAccumulator@SkillAttributeMod@GAME@@UEBAXAEAVSkillAttributeAccumulator@2@IM@Z
40A580 - ?AddToAccumulator@SkillAttributeStore@GAME@@UEBAXAEAVSkillAttributeAccumulator@2@IM@Z
4099E0 - ?AddToAccumulator@SkillAttributeVal@GAME@@UEBAXAEAVSkillAttributeAccumulator@2@IM@Z
420350 - ?AddToActiveList@SkillManager@GAME@@EEAAXPEAVSkill@2@@Z
14560 - ?AddToActiveList@SkillManagerLite@GAME@@UEAAXPEAVSkill@2@@Z
39C290 - ?AddToItemSecondarySkills@Skill@GAME@@QEAAXI@Z
39C1B0 - ?AddToItemSkillModifiers@Skill@GAME@@QEAAXI@Z
E30A0 - ?AddToList@ControllerGraeae@GAME@@AEAAXXZ
4F720 - ?AddToModifierPoints@Character@GAME@@QEAAXH@Z
31ACF0 - ?AddToOneShotMap@PlayerInventoryCtrl@GAME@@IEAA_NAEBV?$basic_string@DU?$char_traits@D@std@@V?$allocator@D@2@@std@@PEAVOneShot_Potion@2@I@Z
1F72A0 - ?AddToPacket@FactionPack@GAME@@QEBAXAEAVNetPacketOutBuffer@2@@Z
2801A0 - ?AddToRelicLevel@ItemRelic@GAME@@MEAAII_N@Z
1BDA0 - ?AddToScene@AmbientShadow@GAME@@QEAAXAEAVGraphicsScene@2@AEBVWorldCoords@2@M@Z
1BE10 - ?AddToScene@AmbientShadow@GAME@@QEAAXAEAVGraphicsScene@2@AEBVWorldCoords@2@MM@Z
5F840 - ?AddToScene@Character@GAME@@UEAAXAEAVGraphicsScene@2@PEBVFrustum@2@@Z
20D730 - ?AddToScene@FxMesh@GAME@@UEAAXAEAVGraphicsScene@2@PEBVFrustum@2@@Z
310DB0 - ?AddToScene@Player@GAME@@UEAAXAEAVGraphicsScene@2@PEBVFrustum@2@@Z
3853F0 - ?AddToScene@ScriptEntity@GAME@@UEAAXAEAVGraphicsScene@2@PEBVFrustum@2@@Z
45D660 - ?AddToScene@TerrainDecoration@GAME@@UEAAXAEAVGraphicsScene@2@PEBVFrustum@2@@Z
5B830 - ?AddToSkillAugment@Character@GAME@@QEAAXAEBV?$basic_string@DU?$char_traits@D@std@@V?$allocator@D@2@@std@@I@Z
5B7F0 - ?AddToSkillLevel@Character@GAME@@QEAAXAEBV?$basic_string@DU?$char_traits@D@std@@V?$allocator@D@2@@std@@I@Z
4F7A0 - ?AddToSkillPoints@Character@GAME@@QEAAXH@Z
94DA0 - ?AddToStore@CharAttributeStore@GAME@@UEAAXPEAVCharAttribute@2@@Z
13DAC0 - ?AddToStore@DamageAttributeAbs@GAME@@UEAAXAEAVDamageAttributeStore@2@AEBVLoadTable@2@@Z
13B030 - ?AddToStore@DamageAttributeAbsMod@GAME@@UEAAXAEAVDamageAttributeStore@2@AEBVLoadTable@2@@Z
151D50 - ?AddToStore@DamageAttributeAbs_ManaBurn@GAME@@UEAAXAEAVDamageAttributeStore@2@AEBVLoadTable@2@@Z
13FB10 - ?AddToStore@DamageAttributeDur@GAME@@UEAAXAEAVDamageAttributeStore@2@AEBVLoadTable@2@@Z
13C0F0 - ?AddToStore@DamageAttributeDurMod@GAME@@UEAAXAEAVDamageAttributeStore@2@AEBVLoadTable@2@@Z
14560 - ?AddToStore@DamageAttribute_BasePhysical@GAME@@UEAAXAEAVDamageAttributeStore@2@AEBVLoadTable@2@@Z
13DAC0 - ?AddToStore@DamageAttribute_Physical@GAME@@UEAAXAEAVDamageAttributeStore@2@AEBVLoadTable@2@@Z
14560 - ?AddToStore@DefenseAttribute_BaseProtectionAbsorption@GAME@@UEAAXAEAVDefenseAttributeStore@2@AEBVLoadTable@2@@Z
189DB0 - ?AddToStore@DefenseAttribute_Typical@GAME@@UEAAXAEAVDefenseAttributeStore@2@AEBVLoadTable@2@@Z
94DA0 - ?AddToStore@SkillAttributeStore@GAME@@UEAAXPEAVSkillAttribute@2@@Z
417340 - ?AddToUISkillList@SkillManager@GAME@@AEAAXI@Z
193E0 - ?AddToWorld@CerberusGeyserMarker@GAME@@EEBA_NXZ
14560 - ?AddToWorld@Fx@GAME@@UEAAXAEBVCoords@2@@Z
20DD10 - ?AddToWorld@FxMesh@GAME@@UEAAXAEBVWorldCoords@2@@Z
158F0 - ?AddToWorld@ProjectileAreaEffect@GAME@@MEBA_NXZ
4F7E0 - ?AddTotalDevotionPoints@Character@GAME@@QEAAXI@Z
227D10 - ?AddTransferSack@GameEngine@GAME@@QEAA_NXZ
14560 - ?AddTransmute@Item@GAME@@UEAAXPEAV12@@Z
279EC0 - ?AddTransmute@ItemEquipment@GAME@@QEAAXAEBV?$basic_string@DU?$char_traits@D@std@@V?$allocator@D@2@@std@@@Z
27A930 - ?AddTransmute@ItemEquipment@GAME@@UEAAXPEAVItem@2@@Z
50EC0 - ?AddTribute@Character@GAME@@QEAAXI@Z
21F990 - ?AddUINotification@GameEngine@GAME@@QEAAXW4Type@UINotification@2@AEBV?$basic_string@GU?$char_traits@G@std@@V?$allocator@G@2@@std@@_N@Z
21FA60 - ?AddUINotification@GameEngine@GAME@@QEAAXW4Type@UINotification@2@AEBV?$vector@V?$basic_string@GU?$char_traits@G@std@@V?$allocator@G@2@@std@@@mem@@_N@Z
33CB50 - ?AddUniqueIdToEntity@Proxy@GAME@@AEAAXPEAVEntity@2@@Z
949B0 - ?AddValue@CharAttributeAccumulator@GAME@@QEAAXW4CharAttributeType@2@M@Z
40A2B0 - ?AddValue@SkillAttributeAccumulator@GAME@@UEAAXW4SkillAttributeType@2@M@Z
420FA0 - ?AddWeaponEnchantment@SkillManager@GAME@@UEAAXIAEBV?$basic_string@DU?$char_traits@D@std@@V?$allocator@D@2@@std@@@Z
14560 - ?AddWeaponEnchantment@SkillManagerLite@GAME@@UEAAXIAEBV?$basic_string@DU?$char_traits@D@std@@V?$allocator@D@2@@std@@@Z
39E4B0 - ?AddWeightedObjectToList@Skill@GAME@@QEBAXIAEBV?$basic_string@DU?$char_traits@D@std@@V?$allocator@D@2@@std@@AEBIAEAV?$vector@U?$pair@IV?$basic_string@DU?$char_traits@D@std@@V?$allocator@D@2@@std@@@std@@@mem@@AEAI@Z
1F69D0 - ?Adjust@FactionPack@GAME@@QEAAXW4FactionType@2@AEBUKillAdjustment@12@W4MonsterClassification@2@@Z
22FF0 - ?AdjustAnimation@AnimationSet@GAME@@QEAAXAEAVActor@2@M@Z
1F66C0 - ?AdjustValue@FactionPack@GAME@@QEAAXW4FactionType@2@M_N@Z
2104F0 - ?AdjustYaw@GameCamera@GAME@@QEAAXM@Z
25D0B0 - ?AlignRect@InventorySack@GAME@@QEBAXAEAVRect@2@@Z
318950 - ?AlignRect@PlayerInventoryCtrl@GAME@@QEAAXAEAVRect@2@H@Z
4425A0 - ?AllKilled@StaticShrine@GAME@@IEBA_NXZ
193E0 - ?AllocateAllAnimSets@Character@GAME@@UEBA_NXZ
158F0 - ?AllocateAllAnimSets@Player@GAME@@UEBA_NXZ
5EAF0 - ?AllocateAnimSets@Character@GAME@@AEAAXXZ
43EC80 - ?AllowBone@SpecialCharHandler_IcyCharacter@GAME@@IEBA_NPEBVGraphicsMeshInstance@2@AEBUBone@GraphicsMesh@2@@Z
52A00 - ?AllowDualWieldWeapons@Character@GAME@@QEAAXW4EquipmentHandTypes@2@@Z
E1770 - ?AllowDualWieldWeapons@ControllerCharacter@GAME@@QEAAXW4EquipmentHandTypes@2@@Z
39E920 - ?AllowDualWieldWeapons@Skill@GAME@@QEBA?AW4EquipmentHandTypes@2@XZ
41B9F0 - ?AllowDualWieldWeapons@SkillManager@GAME@@QEAAXW4EquipmentHandTypes@2@@Z
158F0 - ?AllowHandSwap@CursorHandler@GAME@@UEBA_NXZ
193E0 - ?AllowHandSwap@CursorHandlerEnchant@GAME@@UEBA_NXZ
193E0 - ?AllowHandSwap@CursorHandlerRelicCombine@GAME@@UEBA_NXZ
193E0 - ?AllowHandSwap@CursorHandlerTransmute@GAME@@UEBA_NXZ
231370 - ?AllowRagdolls@GameEngine@GAME@@QEBA_NXZ
2644D0 - ?AllowUse@Item@GAME@@UEBA_NAEA_N@Z
26E710 - ?AllowUse@ItemArtifactFormula@GAME@@UEBA_NAEA_N@Z
26F780 - ?AllowUse@ItemAttributeReset@GAME@@UEBA_NAEA_N@Z
270170 - ?AllowUse@ItemDevotionReset@GAME@@UEBA_NAEA_N@Z
2711D0 - ?AllowUse@ItemDifficultyUnlock@GAME@@UEBA_NAEA_N@Z
27D3D0 - ?AllowUse@ItemFactionBooster@GAME@@UEBA_NAEA_N@Z
27DC00 - ?AllowUse@ItemFactionWarrant@GAME@@UEBA_NAEA_N@Z
27EE90 - ?AllowUse@ItemNote@GAME@@UEBA_NAEA_N@Z
2644D0 - ?AllowUse@ItemTransmuterSet@GAME@@UEBA_NAEA_N@Z
428EC0 - ?AllowsWarmUp@SkillProfile@GAME@@QEBA_NXZ
14560 - ?AllyAttacked@?$ControllerAIStateT@VControllerAI@GAME@@VCharacter@2@@GAME@@MEAAXII@Z
14560 - ?AllyAttacked@?$ControllerAIStateT@VControllerCerberus@GAME@@VCerberus@2@@GAME@@MEAAXII@Z
14560 - ?AllyAttacked@?$ControllerAIStateT@VControllerMegalesios@GAME@@VMegalesios@2@@GAME@@MEAAXII@Z
14560 - ?AllyAttacked@?$ControllerAIStateT@VControllerMegalesios@GAME@@VMonster@2@@GAME@@MEAAXII@Z
14560 - ?AllyAttacked@?$ControllerAIStateT@VControllerMonster@GAME@@VMonster@2@@GAME@@MEAAXII@Z
14560 - ?AllyAttacked@?$ControllerAIStateT@VControllerMonsterHidden@GAME@@VMonster@2@@GAME@@MEAAXII@Z
14560 - ?AllyAttacked@?$ControllerAIStateT@VControllerMonsterSynergy@GAME@@VMonster@2@@GAME@@MEAAXII@Z
14560 - ?AllyAttacked@?$ControllerAIStateT@VControllerNpc2@GAME@@VNpc@2@@GAME@@MEAAXII@Z
14560 - ?AllyAttacked@?$ControllerAIStateT@VControllerNpcHerdAnimal@GAME@@VCharacter@2@@GAME@@MEAAXII@Z
14560 - ?AllyAttacked@?$ControllerAIStateT@VControllerNpcHerdAnimal@GAME@@VNpc@2@@GAME@@MEAAXII@Z
14560 - ?AllyAttacked@?$ControllerAIStateT@VControllerNpcHerder@GAME@@VCharacter@2@@GAME@@MEAAXII@Z
14560 - ?AllyAttacked@?$ControllerAIStateT@VControllerPlayer@GAME@@VPlayer@2@@GAME@@MEAAXII@Z
14560 - ?AllyAttacked@?$ControllerAIStateT@VControllerSpirit@GAME@@VMonster@2@@GAME@@MEAAXII@Z
14560 - ?AllyAttacked@?$ControllerAIStateT@VControllerSpiritHost@GAME@@VSpiritHost@2@@GAME@@MEAAXII@Z
14560 - ?AllyAttacked@?$ControllerAIStateT@VControllerStationaryMonster@GAME@@VMonster@2@@GAME@@MEAAXII@Z
14560 - ?AllyAttacked@?$ControllerAIStateT@VControllerTerracotta@GAME@@VMonster@2@@GAME@@MEAAXII@Z
14560 - ?AllyAttacked@?$ControllerAIStateT@VControllerTyphonChained@GAME@@VMonster@2@@GAME@@MEAAXII@Z
4BBC0 - ?AllyAttacked@Character@GAME@@UEAAXII@Z
D9720 - ?AllyAttacked@ControllerAI@GAME@@UEAAXII@Z
14560 - ?AllyAttacked@ControllerCombat@GAME@@UEAAXII@Z
F1BB0 - ?AllyAttacked@ControllerMonster@GAME@@UEAAXII@Z
F6A40 - ?AllyAttacked@ControllerMonsterStateAttack@GAME@@MEAAXII@Z
F49C0 - ?AllyAttacked@ControllerMonsterStateIdle@GAME@@MEAAXII@Z
F49C0 - ?AllyAttacked@ControllerMonsterStatePatrol@GAME@@MEAAXII@Z
F58D0 - ?AllyAttacked@ControllerMonsterStatePursue@GAME@@MEAAXII@Z
100D90 - ?AllyAttacked@ControllerMonsterStateQuestMove@GAME@@UEAAXII@Z
F49C0 - ?AllyAttacked@ControllerMonsterStateReturn@GAME@@UEAAXII@Z
F49C0 - ?AllyAttacked@ControllerMonsterStateRoam@GAME@@UEAAXII@Z
F49C0 - ?AllyAttacked@ControllerMonsterStateWaitToAttack@GAME@@UEAAXII@Z
F49C0 - ?AllyAttacked@ControllerMonsterStateWander@GAME@@UEAAXII@Z
14560 - ?AllyAttacked@ControllerSpiritStateStartup@GAME@@MEAAXII@Z
14560 - ?AllyDied@?$ControllerAIStateT@VControllerAI@GAME@@VCharacter@2@@GAME@@MEAAXI@Z
14560 - ?AllyDied@?$ControllerAIStateT@VControllerCerberus@GAME@@VCerberus@2@@GAME@@MEAAXI@Z
14560 - ?AllyDied@?$ControllerAIStateT@VControllerMegalesios@GAME@@VMegalesios@2@@GAME@@MEAAXI@Z
14560 - ?AllyDied@?$ControllerAIStateT@VControllerMegalesios@GAME@@VMonster@2@@GAME@@MEAAXI@Z
14560 - ?AllyDied@?$ControllerAIStateT@VControllerMonster@GAME@@VMonster@2@@GAME@@MEAAXI@Z
14560 - ?AllyDied@?$ControllerAIStateT@VControllerMonsterHidden@GAME@@VMonster@2@@GAME@@MEAAXI@Z
14560 - ?AllyDied@?$ControllerAIStateT@VControllerMonsterSynergy@GAME@@VMonster@2@@GAME@@MEAAXI@Z
14560 - ?AllyDied@?$ControllerAIStateT@VControllerNpc2@GAME@@VNpc@2@@GAME@@MEAAXI@Z
14560 - ?AllyDied@?$ControllerAIStateT@VControllerNpcHerdAnimal@GAME@@VCharacter@2@@GAME@@MEAAXI@Z
14560 - ?AllyDied@?$ControllerAIStateT@VControllerNpcHerdAnimal@GAME@@VNpc@2@@GAME@@MEAAXI@Z
14560 - ?AllyDied@?$ControllerAIStateT@VControllerNpcHerder@GAME@@VCharacter@2@@GAME@@MEAAXI@Z
14560 - ?AllyDied@?$ControllerAIStateT@VControllerPlayer@GAME@@VPlayer@2@@GAME@@MEAAXI@Z
14560 - ?AllyDied@?$ControllerAIStateT@VControllerSpirit@GAME@@VMonster@2@@GAME@@MEAAXI@Z
14560 - ?AllyDied@?$ControllerAIStateT@VControllerSpiritHost@GAME@@VSpiritHost@2@@GAME@@MEAAXI@Z
14560 - ?AllyDied@?$ControllerAIStateT@VControllerStationaryMonster@GAME@@VMonster@2@@GAME@@MEAAXI@Z
14560 - ?AllyDied@?$ControllerAIStateT@VControllerTerracotta@GAME@@VMonster@2@@GAME@@MEAAXI@Z
14560 - ?AllyDied@?$ControllerAIStateT@VControllerTyphonChained@GAME@@VMonster@2@@GAME@@MEAAXI@Z
F49E0 - ?AllyDied@ControllerMonsterStateAttack@GAME@@MEAAXI@Z
FDC50 - ?AllyDied@ControllerMonsterStateDefendLeader@GAME@@MEAAXI@Z
FD350 - ?AllyDied@ControllerMonsterStateFollowLeader@GAME@@MEAAXI@Z
F49E0 - ?AllyDied@ControllerMonsterStateIdle@GAME@@MEAAXI@Z
F49E0 - ?AllyDied@ControllerMonsterStatePatrol@GAME@@MEAAXI@Z
F49E0 - ?AllyDied@ControllerMonsterStatePursue@GAME@@MEAAXI@Z
100DD0 - ?AllyDied@ControllerMonsterStateQuestMove@GAME@@UEAAXI@Z
F49E0 - ?AllyDied@ControllerMonsterStateRepositionForAttack@GAME@@MEAAXI@Z
F49E0 - ?AllyDied@ControllerMonsterStateReturn@GAME@@UEAAXI@Z
F49E0 - ?AllyDied@ControllerMonsterStateRoam@GAME@@UEAAXI@Z
F49E0 - ?AllyDied@ControllerMonsterStateWaitToAttack@GAME@@UEAAXI@Z
F49E0 - ?AllyDied@ControllerMonsterStateWander@GAME@@UEAAXI@Z
14560 - ?AllyDied@ControllerSpiritStateStartup@GAME@@MEAAXI@Z
14560 - ?AllyNeedsHelp@?$ControllerAIStateT@VControllerAI@GAME@@VCharacter@2@@GAME@@MEAAXII@Z
14560 - ?AllyNeedsHelp@?$ControllerAIStateT@VControllerCerberus@GAME@@VCerberus@2@@GAME@@MEAAXII@Z
14560 - ?AllyNeedsHelp@?$ControllerAIStateT@VControllerMegalesios@GAME@@VMegalesios@2@@GAME@@MEAAXII@Z
14560 - ?AllyNeedsHelp@?$ControllerAIStateT@VControllerMegalesios@GAME@@VMonster@2@@GAME@@MEAAXII@Z
14560 - ?AllyNeedsHelp@?$ControllerAIStateT@VControllerMonster@GAME@@VMonster@2@@GAME@@MEAAXII@Z
14560 - ?AllyNeedsHelp@?$ControllerAIStateT@VControllerMonsterHidden@GAME@@VMonster@2@@GAME@@MEAAXII@Z
14560 - ?AllyNeedsHelp@?$ControllerAIStateT@VControllerMonsterSynergy@GAME@@VMonster@2@@GAME@@MEAAXII@Z
14560 - ?AllyNeedsHelp@?$ControllerAIStateT@VControllerNpc2@GAME@@VNpc@2@@GAME@@MEAAXII@Z
14560 - ?AllyNeedsHelp@?$ControllerAIStateT@VControllerNpcHerdAnimal@GAME@@VCharacter@2@@GAME@@MEAAXII@Z
14560 - ?AllyNeedsHelp@?$ControllerAIStateT@VControllerNpcHerdAnimal@GAME@@VNpc@2@@GAME@@MEAAXII@Z
14560 - ?AllyNeedsHelp@?$ControllerAIStateT@VControllerNpcHerder@GAME@@VCharacter@2@@GAME@@MEAAXII@Z
14560 - ?AllyNeedsHelp@?$ControllerAIStateT@VControllerPlayer@GAME@@VPlayer@2@@GAME@@MEAAXII@Z
14560 - ?AllyNeedsHelp@?$ControllerAIStateT@VControllerSpirit@GAME@@VMonster@2@@GAME@@MEAAXII@Z
14560 - ?AllyNeedsHelp@?$ControllerAIStateT@VControllerSpiritHost@GAME@@VSpiritHost@2@@GAME@@MEAAXII@Z
14560 - ?AllyNeedsHelp@?$ControllerAIStateT@VControllerStationaryMonster@GAME@@VMonster@2@@GAME@@MEAAXII@Z
